ccollections
defaultdict
p0
(c__builtin__
list
p1
tp2
Rp3
Vasn1_cb
p4
(lp5
Vi2b_PVK.constprop.4
p6
aVssl2_read_internal
p7
aVOCSP_sendreq_nbio
p8
aVBN_GF2m_mod_inv
p9
aVBN_bn2mpi
p10
asVASN1_STRING_copy
p11
(lp12
VX509_ALGOR_set0
p13
aVOBJ_NAME_new_index
p14
aVBN_nist_mod_192
p15
aVd2i_ASN1_type_bytes
p16
aVBN_nist_mod_256
p17
asVENGINE_register_all_ECDSA
p18
(lp19
VENGINE_register_all_RAND
p20
aVENGINE_register_all_pkey_asn1_meths
p21
aVENGINE_register_all_DH
p22
aVENGINE_register_all_ECDH
p23
aVENGINE_register_all_digests
p24
asVCMS_dataInit
p25
(lp26
VEVP_CipherInit_ex
p27
aVssl_get_new_session
p28
aVEVP_DigestInit_ex
p29
aVBN_BLINDING_create_param
p30
aVd2i_ocsp_nonce
p31
asVASN1_tag2str
p32
(lp33
Vbn_gather5
p34
aVasn1_get_field_ptr
p35
aVsigx_cmp_BSEARCH_CMP_FN
p36
aVpbe_cmp
p37
aVCAST_encrypt
p38
asVssl3_finish_mac
p39
(lp40
Vaesni_xts_init_key
p41
aVTS_find_cert
p42
aV_CONF_get_string
p43
aVlh_free
p44
aVlh_doall_arg
p45
asVCMS_EncryptedData_set1_key
p46
(lp47
VEVP_MD_CTX_copy_ex
p48
aVEVP_CIPHER_CTX_copy
p49
aVOBJ_dup
p50
aVUI_dup_input_string
p51
aVcms_set1_SignerIdentifier
p52
asVCRYPTO_get_dynlock_value
p53
(lp54
VBIO_accept
p55
aVX509_STORE_load_locations
p56
aVOBJ_NAME_add
p57
aVSXNET_add_id_INTEGER
p58
aVv2i_AUTHORITY_KEYID
p59
asVssl_parse_clienthello_use_srtp_ext
p60
(lp61
Vssl_bytes_to_cipher_list
p62
aVBIO_get_accept_socket
p63
aVi2a_ASN1_INTEGER
p64
aVX509_policy_check
p65
aVX509_verify_cert
p66
asVUI_method_get_reader
p67
(lp68
VUI_method_get_writer
p69
aVUI_get0_output_string
p70
aVBIO_number_read
p71
aVX509_EXTENSION_get_data
p72
aVBIO_next
p73
asVBN_GF2m_mod_mul
p74
(lp75
Vssl2_write
p76
aVdo_print_ex.constprop.3
p77
aVBN_from_montgomery_word
p78
aVEVP_EncryptUpdate
p79
aVCRYPTO_cts128_encrypt
p80
asVCMS_RecipientInfo_ktri_get0_signer_id
p81
(lp82
VCMS_RecipientInfo_ktri_cert_cmp
p83
aVCMS_RecipientInfo_set0_pkey
p84
aVENGINE_cleanup
p85
aVPKCS7_add_recipient_info
p86
aVX509_CRL_print_fp
p87
asVdtls1_write_app_data_bytes
p88
(lp89
Vssl3_write_bytes
p90
aVX509_NAME_print_ex
p91
aVget_crl_sk
p92
aVX509_NAME_print_ex_fp
p93
aVASN1_mbstring_ncopy
p94
asVcamellia_256_cbc_cipher
p95
(lp96
Vbf_cbc_cipher
p97
aVdes_cbc_cipher
p98
aVcast5_cbc_cipher
p99
aVseed_cbc_cipher
p100
aVcamellia_192_ofb_cipher
p101
asVsock_puts
p102
(lp103
VEVP_CIPHER_type
p104
aVnc_match
p105
aVRAND_query_egd_bytes
p106
aVec_GF2m_simple_group_copy
p107
aVX509_NAME_print
p108
asVEVP_CIPHER_set_asn1_iv
p109
(lp110
VX509_ATTRIBUTE_set1_object
p111
aVX509_EXTENSION_set_object
p112
aVCMAC_CTX_copy
p113
aVTXT_DB_get_by_index
p114
aVnullf_read
p115
asVOCSP_id_cmp
p116
(lp117
Vdtls1_read_failed
p118
aVfile_read
p119
aVsock_read
p120
aVPEM_def_callback
p121
aVOCSP_REQ_CTX_add1_header
p122
asVEVP_PKEY_assign
p123
(lp124
VEVP_PKEY_set_type
p125
aVEVP_PKEY_set_type_str
p126
aVOBJ_add_object
p127
aVSSL_set_bio
p128
aVEVP_PBE_find
p129
asVcamellia_256_cfb8_cipher
p130
(lp131
Vseed_cfb128_cipher
p132
aVbf_cfb64_cipher
p133
aVidea_cfb64_cipher
p134
aVcast5_cfb64_cipher
p135
aVcamellia_256_cfb1_cipher
p136
asVASN1_template_new
p137
(lp138
Vbn_cmp_part_words
p139
aVEC_POINT_point2oct
p140
aVEC_POINT_set_compressed_coordinates_GFp
p141
aVEC_POINT_set_compressed_coordinates_GF2m
p142
aVEC_POINT_oct2point
p143
asVDES_ede3_cfb64_encrypt
p144
(lp145
VCAST_cfb64_encrypt
p146
aVBF_cfb64_encrypt
p147
aVDES_cfb64_encrypt
p148
aVASN1_BIT_STRING_set_bit
p149
aVdtls1_get_message
p150
asVidea_cbc_cipher
p151
(lp152
g97
ag98
ag99
ag100
ag101
asVEVP_PKEY_set1_RSA
p153
(lp154
g125
aVASN1_sign
p155
ag127
aVssl3_send_client_certificate
p156
aVdtls1_send_client_certificate
p157
asVBUF_strndup
p158
(lp159
Vmd_ctrl
p160
aVEVP_PKEY_encrypt
p161
aVEVP_PKEY_sign
p162
aVEVP_PKEY_verify_recover
p163
aVasn1_enc_restore
p164
asVssl3_send_hello_request
p165
(lp166
Vssl3_send_server_done
p167
aVDSO_set_name_converter
p168
aVX509_alias_get0
p169
aVX509_keyid_get0
p170
aVs2i_skey_id
p171
asVCRYPTO_free_ex_data
p172
(lp173
VTS_RESP_CTX_add_policy
p174
aVERR_reason_error_string
p175
aVSSL_CTX_use_PrivateKey
p176
aVSSL_use_PrivateKey
p177
aVEC_GROUP_new
p178
asVASN1_d2i_fp
p179
(lp180
VPEM_SignFinal
p181
aVNETSCAPE_SPKI_b64_decode
p182
aVa2i_IPADDRESS
p183
aVcms_DigestAlgorithm_find_ctx
p184
aVcms_encode_Receipt
p185
asVec_asn1_group2parameters.constprop.3
p186
(lp187
Vssl3_send_client_key_exchange
p188
aVec_asn1_parameters2group
p189
aVRSA_eay_public_decrypt
p190
aVPEM_X509_INFO_write_bio
p191
aVv2i_subject_alt
p192
asVCMS_dataFinal
p193
(lp194
Vssl_check_srvr_ecc_cert_and_alg
p195
ag106
aVa2d_ASN1_OBJECT
p196
aVX509_NAME_add_entry
p197
ag64
asVCRYPTO_push_info_
p198
(lp199
Vrsa_get_blinding
p200
ag176
aVi2d_ECPrivateKey
p201
aVPKCS5_PBE_keyivgen
p202
aVEVP_DigestVerifyInit
p203
asVENGINE_ctrl
p204
(lp205
VCMS_add0_cert
p206
aVCMS_get1_crls
p207
aVCMS_get1_certs
p208
aVcrl_extension_match
p209
ag14
asVSSL_use_PrivateKey_ASN1
p210
(lp211
g181
aVcms_signerinfo_verify_cert.isra.1
p212
ag184
ag182
aVTS_ASN1_INTEGER_print_bio
p213
asVssl_load_ciphers
p214
(lp215
VHMAC_Init_ex
p216
aVprobable_prime
p217
aVOPENSSL_cpuid_setup
p218
aVssleay_rand_add
p219
aVPEM_X509_INFO_read_bio
p220
asVBN_mod_lshift1
p221
(lp222
Vpkey_hmac_copy
p223
aVNCONF_get_number_e
p224
aVPKCS7_content_new
p225
aVX509_ATTRIBUTE_get0_type
p226
aVSRP_get_default_gN
p227
asVBIO_vsnprintf
p228
(lp229
VASN1_unpack_string
p230
aVBIO_sock_error
p231
aVdef_time_cb
p232
aVSSL_get_wfd
p233
aVSSL_get_rfd
p234
asVr2i_certpol
p235
(lp236
VPKCS7_dataDecode
p237
aVec_wNAF_precompute_mult
p238
aVv2i_crld
p239
aVPKCS7_dataInit
p240
aVPEM_write_bio
p241
asVOBJ_cleanup
p242
(lp243
Vsk_sort
p244
aVOPENSSL_init
p245
aVBN_GENCB_call
p246
aVobj_name_LHASH_COMP
p247
aVBIO_free_all
p248
asVd2i_EC_PUBKEY
p249
(lp250
Vcms_Receipt_verify
p251
aVPEM_read_bio_Parameters
p252
aVec_asn1_group2parameters.constprop.3
p253
aVPKCS5_v2_PBE_keyivgen
p254
aVASN1_item_verify
p255
asVENGINE_set_default_string
p256
(lp257
VENGINE_set_default
p258
aVgenerate_key
p259
aVcheck_crl
p260
ag63
aVTS_RESP_verify_token
p261
asVCONF_get_number
p262
(lp263
g185
aVASN1_d2i_bio
p264
aVEVP_PKEY_meth_find
p265
aVCMS_add1_ReceiptRequest
p266
ag182
asVSSL_get_current_compression
p267
(lp268
VSSL_get_current_expansion
p269
aVX509_policy_node_get0_qualifiers
p270
aVX509_get0_pubkey_bitstr
p271
ag69
ag70
asVEVP_CIPHER_do_all
p272
(lp273
VEVP_MD_do_all
p274
aVEVP_MD_do_all_sorted
p275
aVEVP_CIPHER_do_all_sorted
p276
aVengine_table_doall
p277
aVBIO_asn1_set_suffix
p278
asVsock_write
p279
(lp280
g104
ag105
ag106
ag107
ag108
asVSSL_set_verify
p281
(lp282
Vdo_all_fn_LHASH_DOALL_ARG
p283
aVpqueue_size
p284
ag35
aVOBJ_cleanup
p285
aVPKCS7_RECIP_INFO_get0_alg
p286
asVrsa_priv_decode
p287
(lp288
Vrsa_pub_decode
p289
aVSSL_CTX_use_RSAPrivateKey_ASN1
p290
aVSSL_use_RSAPrivateKey_ASN1
p291
aVSSL_CTX_use_PrivateKey_ASN1
p292
aVSSL_use_PrivateKey_ASN1
p293
asVERR_load_SSL_strings
p294
(lp295
VERR_load_CONF_strings
p296
aVERR_load_ECDSA_strings
p297
aVERR_load_COMP_strings
p298
aVERR_load_DSO_strings
p299
aVERR_load_X509_strings
p300
asVssl_cipher_ptr_id_cmp
p301
(lp302
Vnull_ctrl
p303
aVrle_compress_block
p304
aVCRYPTO_THREADID_set_callback
p305
aVCRYPTO_set_mem_debug_functions
p306
aVASN1_TYPE_get
p307
asVX509at_add1_attr_by_txt
p308
(lp309
Veckey_pub_print
p310
aVEC_GROUP_check
p311
aVSSL_CTX_use_certificate_chain_file
p312
aVEC_GROUP_new_by_curve_name
p313
aVeckey_pub_encode
p314
asVSSL_CTX_use_PrivateKey_ASN1
p315
(lp316
g181
ag212
ag184
ag182
ag213
asVdef_init_WIN32
p317
(lp318
VSSL_set_session_secret_cb
p319
aVX509_EXTENSION_get_critical
p320
aVX509_EXTENSION_set_data
p321
aVUI_method_set_opener
p322
aVUI_method_set_closer
p323
asVSHA_Update
p324
(lp325
VSHA256_Update
p326
aVMD4_Update
p327
aVRIPEMD160_Update
p328
aVMD5_Update
p329
aVSHA512_Update
p330
asVRIPEMD160_Final
p331
(lp332
VMD5_Final
p333
aVMD4_Final
p334
aVSHA1_Final
p335
aVSHA_Final
p336
aVdtls1_client_hello
p337
asVSSL_get_wfd
p338
(lp339
g234
aVASN1_item_unpack
p340
aVMDC2
p341
aVSHA1
p342
aVRIPEMD160
p343
asVPEM_proc_type
p344
(lp345
VBUF_strlcpy
p346
aVX509_set_notAfter
p347
aVmd_read
p348
aVbitstr_cb
p349
ag161
asVsk_shift
p350
(lp351
Vssl_clear_bad_session
p352
aVCRYPTO_set_locked_mem_ex_functions
p353
aVMDC2_Update
p354
aVASN1_STRING_to_UTF8
p355
aVRSA_padding_add_X931
p356
asVssl3_check_client_hello
p357
(lp358
Vconn_ctrl
p359
aVfile_ctrl
p360
ag43
aVasn1_template_ex_d2i
p361
ag13
asVSSL_clear
p362
(lp363
VX509_STORE_CTX_cleanup
p364
ag48
aVEVP_MD_CTX_cleanup
p365
aVEVP_CIPHER_CTX_cleanup
p366
aVX509_policy_tree_free
p367
asVtimeout_LHASH_DOALL_ARG
p368
(lp369
VENGINE_remove
p370
ag149
aVX509_alias_set1
p371
aVlh_retrieve
p372
aVBIO_gets
p373
asVCRYPTO_ex_data_new_class
p374
(lp375
VEVP_PKEY_get_default_digest_nid
p376
aVX509V3_get_string
p377
aVDSO_global_lookup
p378
aVsub_1119d0
p379
aVERR_get_next_error_library
p380
asVBN_GF2m_mod_exp_arr
p381
(lp382
Vasn1_parse2
p383
aVread_string_inner
p384
aVBN_is_prime_fasttest_ex
p385
aVBN_mod_mul_montgomery
p386
aVBN_sqr
p387
asVCRYPTO_realloc
p388
(lp389
g386
aVcheck_revocation
p390
aVec_GFp_simple_point_get_affine_coordinates
p391
aVBN_exp
p392
aVBN_div_recp
p393
asVEVP_MD_CTX_create
p394
(lp395
VX509_STORE_CTX_new
p396
aVssl_sess_cert_new
p397
aVTS_RESP_CTX_new
p398
aVBN_CTX_new
p399
aVASN1_OBJECT_new
p400
asVECParameters_print_fp
p401
(lp402
VOCSP_archive_cutoff_new
p403
aVTS_CONF_set_def_policy
p404
ag212
aVSSL_set_wfd
p405
ag181
asVCRYPTO_destroy_dynlockid
p406
(lp407
g58
aVint_free_ex_data
p408
ag55
aVCONF_modules_load
p409
aVint_new_ex_data
p410
asVBIO_snprintf
p411
(lp412
Vi2d_ASN1_BOOLEAN
p413
aVi2d_ASN1_bytes
p414
aVi2d_ASN1_OBJECT
p415
aVRSA_memory_lock
p416
aVcert_crl
p417
asVCRYPTO_new_ex_data
p418
(lp419
g174
ag175
ag176
ag177
ag178
asVASN1_template_free
p420
(lp421
VEVP_PKEY_type
p422
aVX509_STORE_free
p423
ag264
aVDSA_verify
p424
ag266
asVa2i_IPADDRESS
p425
(lp426
VRAND_poll
p427
aVCONF_parse_list
p428
aVOBJ_obj2txt
p429
ag92
aVasn1_ex_c2i
p430
asVCRYPTO_set_locked_mem_functions
p431
(lp432
g353
ag352
aVX509_set_notBefore
p433
ag111
ag112
asVssl3_setup_read_buffer
p434
(lp435
VERR_load_ERR_strings
p436
ag27
ag30
aVBN_CTX_get
p437
aVEVP_PKEY_derive_set_peer
p438
asVASN1_item_new
p439
(lp440
VAES_bi_ige_encrypt
p441
aVAES_wrap_key
p442
aVCRYPTO_cts128_decrypt
p443
aVBN_hex2bn
p444
aVaes_xts_cipher
p445
asVi2d_ECParameters
p446
(lp447
Vi2d_ECPKParameters
p448
aVPKCS5_pbe_set0_algor
p449
ag405
aVPKCS7_add_recipient
p450
aVeckey_priv_decode
p451
asVEVP_PKEY_set1_DSA
p452
(lp453
g125
ag155
ag127
ag156
ag157
asVbn_dup_expand
p454
(lp455
g30
aVpolicy_data_new
p456
ag29
ag27
aVX509V3_add_value
p457
asVBN_GF2m_mod_solve_quad_arr
p458
(lp459
VBN_mod_inverse
p460
ag393
aVBN_mod_exp_recp
p461
aVBN_generate_prime_ex
p462
ag386
asVECDH_set_method
p463
(lp464
Vdtls1_new
p465
ag367
ag50
aVd2i_PKCS8PrivateKey_bio
p466
aVx509_name_ex_d2i
p467
asVCONF_free
p468
(lp469
VENGINE_pkey_asn1_find_str
p470
aVX509V3_EXT_d2i
p471
aVSSL_CTX_flush_sessions
p472
aVtree_find_sk
p473
aVCONF_get_string
p474
asVX509V3_EXT_REQ_add_conf
p475
(lp476
Vpkey_rsa_keygen
p477
aVPKCS7_add_signature
p478
aVi2a_ASN1_OBJECT
p479
aVCMS_add_simple_smimecap
p480
aVssl_verify_cert_chain
p481
asVEVP_PKEY_asn1_new
p482
(lp483
VCRYPTO_dbg_malloc
p484
aVASN1_TIME_to_generalizedtime
p485
aVBN_BLINDING_new
p486
ag16
aVec_GFp_mont_group_copy
p487
asVEC_KEY_dup
p488
(lp489
Vssl2_new
p490
aVRSA_new_method
p491
aVecdsa_check
p492
aVCMS_SignerInfo_set1_signer_cert
p493
aVDSA_free
p494
asVX509_ATTRIBUTE_create_by_txt
p495
(lp496
g392
aVtls1_change_cipher_state
p497
aVPKCS12_parse
p498
aVOCSP_url_svcloc_new
p499
ag391
asVX509v3_get_ext_by_NID
p500
(lp501
Vcheck_policy
p502
aVEC_GROUP_set_seed
p503
aVtrust_1oid
p504
aVDIST_POINT_set_dpname
p505
aVpkey_ec_copy
p506
asVCAST_decrypt
p507
(lp508
VBN_set_params
p509
aVdtls1_set_message_header
p510
aVipv6_cb
p511
aVASN1_put_object
p512
aVBN_GF2m_poly2arr
p513
asVDES_check_key_parity
p514
(lp515
VASN1_UTCTIME_check
p516
aVCRYPTO_memcmp
p517
aVt_fromb64
p518
aVASN1_GENERALIZEDTIME_check
p519
aVOPENSSL_gmtime_adj
p520
asVBIO_new
p521
(lp522
VCMS_ReceiptRequest_create0
p523
aVUI_new_method
p524
aVPKCS8_encrypt
p525
aVnew_dir
p526
aVX509_check_purpose
p527
asVGENERAL_NAME_cmp
p528
(lp529
g346
aVBN_CTX_free
p530
ag356
aVBN_CTX_start
p531
ag44
asVCMAC_CTX_new
p532
(lp533
VBN_MONT_CTX_new
p534
aVBN_RECP_CTX_new
p535
aVEVP_CIPHER_CTX_new
p536
aVcms_Data_create
p537
aVX509_STORE_new
p538
asVEVP_EncodeFinal
p539
(lp540
Vprivate_Camellia_set_key
p541
aVint_thread_release
p542
aVsk_zero
p543
aVengine_unlocked_init
p544
aVASN1_STRING_cmp
p545
asVERR_load_BIO_strings
p546
(lp547
g296
ag297
ag298
ag299
ag300
asVEVP_PKEY_decrypt
p548
(lp549
g161
ag162
ag163
aVEVP_PKEY_derive
p550
ag160
asVNCONF_get_number_e
p551
(lp552
g523
aVCMS_final
p553
aVpkey_ec_paramgen
p554
aVdlfcn_load
p555
aVBIO_ctrl
p556
asVv2i_GENERAL_NAME_ex
p557
(lp558
g457
aVUI_dup_input_boolean
p559
aVOCSP_accept_responses_new
p560
ag498
aVEC_KEY_generate_key
p561
asVPEM_read_bio_ECPrivateKey
p562
(lp563
VPEM_read_RSAPrivateKey
p564
aVPEM_read_bio_DSAPrivateKey
p565
aVPEM_read_ECPrivateKey
p566
aVPEM_read_bio_RSAPrivateKey
p567
aVPEM_read_DSAPrivateKey
p568
asVEVP_CipherFinal_ex
p569
(lp570
VEVP_DecryptFinal_ex
p571
aVPEM_get_EVP_CIPHER_INFO
p572
aVBIO_vprintf
p573
aVRSA_verify_PKCS1_PSS_mgf1
p574
aVRSA_padding_add_PKCS1_OAEP
p575
asVSSL_use_PrivateKey
p576
(lp577
g176
ag466
aVASN1_pack_string
p578
ag485
ag218
asVOCSP_crl_reason_str
p579
(lp580
Vssl_get_server_send_pkey
p581
ag139
aVasn1_GetSequence
p582
aVASN1_check_infinite_end
p583
aVASN1_const_check_infinite_end
p584
asVENGINE_ctrl_cmd
p585
(lp586
Vdtls1_send_client_verify
p587
aVUI_add_input_string
p588
aVUI_add_verify_string
p589
ag51
aVec_GFp_nist_field_sqr
p590
asVcms_add_cipher_smcap
p591
(lp592
VPKCS7_get0_signers
p593
ag561
aVRSA_generate_key
p594
aVdtls1_buffer_record.isra.6
p595
aVCMS_digest_verify
p596
asVecdsa_data_dup
p597
(lp598
Vecdh_data_dup
p599
aVX509_PUBKEY_set
p600
aVTS_RESP_CTX_set_certs
p601
aVx509_name_ex_new
p602
ag524
asVsock_read
p603
(lp604
g105
ag104
ag106
aVtls1_process_sigalgs
p605
ag107
asVX509_print_ex_fp
p606
(lp607
VX509_REQ_print_ex
p608
aVX509_NAME_ENTRY_create_by_OBJ
p609
aVCMS_add1_signer
p610
aVX509_EXTENSION_create_by_OBJ
p611
aVdsa_sign_setup
p612
asVv2i_BASIC_CONSTRAINTS
p613
(lp614
g386
ag66
aVRSA_eay_private_encrypt
p615
aVOCSP_basic_verify
p616
aVcrl_cb
p617
asVi2d_PKCS8PrivateKey_fp
p618
(lp619
VPEM_write_PKCS8PrivateKey_nid
p620
aVi2d_PKCS8PrivateKey_nid_fp
p621
aVPEM_write_PKCS8PrivateKey
p622
aVPEM_write_PrivateKey
p623
aVPEM_ASN1_write
p624
asVASN1_i2d_fp
p625
(lp626
VASN1_i2d_bio
p627
aVi2d_ASN1_SET
p628
aVCMS_SignerInfo_verify
p629
aVdsa_sig_print
p630
aVPEM_ASN1_write_bio
p631
asVX509_find_by_issuer_and_serial
p632
(lp633
g42
aVasn1_i2d_ex_primitive
p634
aVmulti_split
p635
aVTXT_DB_create_index
p636
aVBN_mod_sqrt
p637
asVsk_delete_ptr
p638
(lp639
VBN_lshift1
p640
aVadded_obj_LHASH_HASH
p641
ag78
aVBN_dec2bn
p642
aVSSL_has_matching_session_id
p643
asVssl3_write
p644
(lp645
g27
aVaes_ccm_init_key
p646
ag29
ag437
ag531
asVssl23_peek
p647
(lp648
Vssl23_write
p649
aVread_string
p650
aVaesni_gcm_init_key
p651
aVASN1_BIT_STRING_num_asc
p652
ag49
asVssl23_get_server_method
p653
(lp654
Vbuffer_write
p655
aVASN1_TYPE_cmp
p656
aVEVP_PKEY_meth_free
p657
aVsk_pop
p658
aVASN1_TIME_print
p659
asVSSL_CTX_new
p660
(lp661
g253
aVX509_TRUST_add
p662
aVdtls1_send_client_key_exchange
p663
aVeckey_priv_print
p664
ag188
asVint_rsa_verify
p665
(lp666
VEVP_BytesToKey
p667
aVparse_bags.constprop.1
p668
ag361
ag616
aVd2i_ASN1_SET
p669
asVEC_KEY_print_fp
p670
(lp671
VEVP_Digest
p672
ag181
ag212
aVRSA_sign_ASN1_OCTET_STRING
p673
ag403
asVCRYPTO_get_new_dynlockid
p674
(lp675
g58
ag409
aVUI_dup_error_string
p676
aVUI_dup_info_string
p677
aVv2i_idp
p678
asVASN1_item_ex_new
p679
(lp680
Vssl3_cbc_copy_mac
p681
aVfmtint.constprop.3
p682
aVtype_str
p683
aVBIO_vsnprintf
p684
ag511
asVnames_lh_free_LHASH_DOALL
p685
(lp686
g43
ag129
aVEVP_VerifyFinal
p687
aVOBJ_NAME_get
p688
aVCRYPTO_dbg_free
p689
asVd2i_RSA_PUBKEY
p690
(lp691
g251
ag252
ag253
ag254
ag255
asVX509_TRUST_set
p692
(lp693
g688
aVs2i_ASN1_INTEGER
p694
ag417
aVCMS_dataFinal
p695
aVpkey_ec_ctrl
p696
asVSHA1_Update
p697
(lp698
g327
ag329
ag328
ag330
aVaesni_cbc_hmac_sha1_cipher
p699
asVRAND_set_rand_engine
p700
(lp701
g182
ag266
aVi2d_RSA_PUBKEY
p702
aVi2d_EC_PUBKEY
p703
aVi2d_DSA_PUBKEY
p704
asVX509_NAME_add_entry_by_txt
p705
(lp706
VOBJ_create
p707
aVSSL_add_file_cert_subjects_to_stack
p708
aVX509_ATTRIBUTE_create
p709
ag478
ag212
asVX509_find_by_subject
p710
(lp711
Vssl3_send_alert
p712
ag637
ag42
aVPKCS7_get_signed_attribute
p713
aVPKCS7_get_attribute
p714
asVEC_KEY_precompute_mult
p715
(lp716
Vasn1_bio_read
p717
aVnullf_gets
p718
aVnbiof_callback_ctrl
p719
aVnullf_callback_ctrl
p720
aVnbiof_puts
p721
asVEC_POINT_make_affine
p722
(lp723
VEC_POINT_is_on_curve
p724
aVEC_POINT_set_affine_coordinates_GF2m
p725
aVEC_POINT_set_affine_coordinates_GFp
p726
aVEC_POINT_get_affine_coordinates_GF2m
p727
aVEC_POINT_get_affine_coordinates_GFp
p728
asVssl3_release_read_buffer
p729
(lp730
g149
aVERR_error_string_n
p731
ag617
ag155
ag370
asVsk_pop
p732
(lp733
g353
aVsk_shift
p734
aVX509_REQ_set_pubkey
p735
aVX509_REQ_set_subject_name
p736
aVX509_set_issuer_name
p737
asVRAND_status
p738
(lp739
VEC_GROUP_copy
p740
aVBN_MONT_CTX_copy
p741
aVOCSP_parse_url
p742
aVEC_KEY_copy
p743
ag56
asVSMIME_read_ASN1
p744
(lp745
g313
aVecdsa_sign_setup
p746
ag664
aVdsa_priv_decode
p747
aVPKCS7_signatureVerify
p748
asVSSL_CTX_use_RSAPrivateKey_ASN1
p749
(lp750
g181
ag673
ag213
aVv2i_AUTHORITY_INFO_ACCESS
p751
ag184
asVX509_PURPOSE_add
p752
(lp753
Vdef_crl_lookup
p754
aVASN1_UTCTIME_adj
p755
aVd2i_ASN1_bytes
p756
aVTS_RESP_verify_response
p757
aVssl_get_prev_session
p758
asVtls1_get_server_method
p759
(lp760
Vnsseq_cb
p761
aVpubkey_cb
p762
aVri_cb
p763
aVsi_cb
p764
aVopenssl_digests
p765
asVtls1_alert_code
p766
(lp767
Vtls1_ec_curve_id2nid
p768
ag303
ag304
ag37
ag36
asVSSL_get_cipher_list
p769
(lp770
g371
aVX509_keyid_set1
p771
aVX509_add1_trust_object
p772
aVBIO_callback_ctrl
p773
ag373
asVX509V3_EXT_conf_nid
p774
(lp775
VX509V3_EXT_conf
p776
aVX509V3_EXT_add_conf
p777
aVX509V3_EXT_CRL_add_conf
p778
aVX509V3_EXT_REQ_add_conf
p779
aVasn1_add_error
p780
asVX509V3_get_d2i
p781
(lp782
g754
ag755
ag668
aVEVP_PKEY_asn1_find
p783
ag756
asVBN_BLINDING_new
p784
(lp785
g465
ag484
ag740
ag365
aVec_GFp_mont_group_set_curve
p786
asVERR_load_ECDH_strings
p787
(lp788
g296
ag297
ag298
ag299
ag300
asVSHA512
p789
(lp790
Vaesni_cbc_hmac_sha1_ctrl
p791
aVdo_ssl3_write
p792
aVtls1_enc
p793
aVdtls1_do_write
p794
ag8
asVdtls1_write_bytes
p795
(lp796
Vdo_dtls1_write
p797
ag91
ag93
ag92
ag63
asVERR_release_err_state_table
p798
(lp799
VTS_CONF_set_crypto_device
p800
aVPKCS12_certbag2x509crl
p801
aVPKCS12_certbag2x509
p802
aVEC_POINT_clear_free
p803
aVOCSP_basic_add1_cert
p804
asVERR_load_OBJ_strings
p805
(lp806
g296
ag297
ag298
ag299
ag300
asVHMAC_Init
p807
(lp808
g667
ag216
ag754
ag635
ag755
asVUI_get_input_flags
p809
(lp810
VX509_policy_tree_level_count
p811
aVDSO_flags
p812
aVEVP_MD_CTX_md
p813
aVX509_EXTENSION_get_object
p814
aVX509_ATTRIBUTE_get0_object
p815
asVssl3_release_write_buffer
p816
(lp817
g149
ag731
ag617
ag155
ag370
asVEC_POINT_mul
p818
(lp819
Vaes_ctr_cipher
p820
aVPEM_write_bio_PrivateKey
p821
aVprint_error
p822
aVBIO_snprintf
p823
aVBIO_printf
p824
asVrinf_cb
p825
(lp826
g761
aVhmac_pkey_ctrl
p827
aVX509V3_EXT_add_list
p828
aVsend_bio_chars
p829
aVrsa_cb
p830
asVecdh_check
p831
(lp832
VOCSP_request_add0_id
p833
ag742
aVSSL_load_client_CA_file
p834
ag786
aVOCSP_crlID_new
p835
asVcamellia_128_cbc_cipher
p836
(lp837
Vcamellia_192_cbc_cipher
p838
ag97
ag98
ag99
ag100
asVEVP_PKEY_get_default_digest_nid
p839
(lp840
VEVP_PKEY_cmp
p841
aVEVP_PKEY_print_private
p842
aVEVP_PKEY_print_params
p843
aVEVP_PKEY_print_public
p844
aVRAND_bytes
p845
asVdtls1_ctrl
p846
(lp847
g125
ag370
ag155
ag156
ag157
asVint_new_ex_data
p848
(lp849
g757
aVCMS_verify
p850
aVASN1_TYPE_get_int_octetstring
p851
aVX509_get1_ocsp
p852
ag386
asVasn1_bio_gets
p853
(lp854
g717
ag718
ag719
ag720
ag721
asVssl_clear_cipher_ctx
p855
(lp856
g366
ag367
aVX509_PKEY_free
p857
aVRSA_free
p858
ag494
asVSSL_CTX_free
p859
(lp860
VBN_MONT_CTX_free
p861
aVBN_RECP_CTX_free
p862
aVRAND_get_rand_method
p863
aVsig_cb
p864
aVssl3_new
p865
asVCONF_dump_bio
p866
(lp867
g470
ag474
aVASN1_generate_nconf
p868
ag471
ag292
asVENGINE_register_all_DSA
p869
(lp870
g20
ag21
ag22
ag23
ag24
asVEC_GROUP_copy
p871
(lp872
g30
ag155
ag16
ag498
aVb2i_dss.isra.0
p873
asVSSL_get_srp_username
p874
(lp875
g69
ag70
ag71
ag72
ag73
asVPEM_write
p876
(lp877
g241
aVcms_EncryptedContent_init_bio
p878
ag664
aVec_GF2m_simple_set_compressed_coordinates
p879
aVssl_ctx_make_profiles
p880
asVERR_load_EVP_strings
p881
(lp882
g296
ag297
ag298
ag299
ag300
asVBN_mod_sub
p883
(lp884
g223
aVi2d_ASN1_bio_stream
p885
ag224
ag225
ag226
asVBIO_int_ctrl
p886
(lp887
g414
ag415
aVX509V3_EXT_get_nid
p888
aVOBJ_obj2nid
p889
aVCRYPTO_dbg_realloc
p890
asVASN1_STRING_dup
p891
(lp892
Vdynamic_ctrl
p893
aVgeneral_allocate_boolean.constprop.5
p894
ag16
ag14
aVc2i_ASN1_BIT_STRING
p895
asVUI_method_set_writer
p896
(lp897
g322
ag323
aVUI_method_set_flusher
p898
aVUI_method_set_prompt_constructor
p899
aVUI_method_set_reader
p900
asVcms_content_bio
p901
(lp902
VCMS_set1_eContentType
p903
aVok_ctrl
p904
aVASN1_primitive_new
p905
aVBN_nist_mod_384
p906
aVasn1_bio_ctrl
p907
asVUI_get0_result
p908
(lp909
Vdir_ctrl
p910
aVX509at_get_attr
p911
aVX509v3_get_ext
p912
aVX509at_delete_attr
p913
aVX509v3_delete_ext
p914
asVX509_check_private_key
p915
(lp916
VSSL_COMP_add_compression_method
p917
ag590
aVTS_RESP_CTX_set_status_info
p918
ag174
aVcms_DigestedData_do_final
p919
asVBIO_ptr_ctrl
p920
(lp921
Vd2i_ECParameters
p922
aVUI_add_error_string
p923
aVUI_add_info_string
p924
aVDSO_convert_filename
p925
ag589
asVSSL_SRP_CTX_free
p926
(lp927
Vok_free
p928
aVenc_free
p929
aVSSL_CTX_SRP_CTX_free
p930
aVb64_free
p931
aVmd_free
p932
asVEVP_PKEY_asn1_add_alias
p933
(lp934
Vssleay_rand_status
p935
aVX509_signature_print
p936
aVEVP_DigestSignFinal
p937
ag477
ag118
asVEC_POINT_dbl
p938
(lp939
VEC_POINT_cmp
p940
aVEC_POINTs_make_affine
p941
ag142
ag143
ag140
asVX509_alias_set1
p942
(lp943
VASN1_STRING_set
p944
ag30
aVSSL_SRP_CTX_init
p945
ag499
aVlevel_add_node
p946
asVCRYPTO_get_ex_data_implementation
p947
(lp948
g864
aVCRYPTO_mem_leaks_fp
p949
ag285
ag863
aVcheck_issued
p950
asVecdsa_check
p951
(lp952
g833
ag742
ag834
ag786
ag835
asVpkey_ec_keygen
p953
(lp954
Vpkey_dsa_keygen
p955
aVec_copy_parameters
p956
aVSSL_use_RSAPrivateKey
p957
aVSXNET_get_id_asc
p958
aVEC_GROUP_dup
p959
asVCMS_set1_signers_certs
p960
(lp961
g852
ag757
ag758
ag850
aVget_email
p962
asVdsa_pkey_ctrl
p963
(lp964
Vec_pkey_ctrl
p965
ag783
ag756
aVSRP_Calc_server_key
p966
ag754
asVERR_get_string_table
p967
(lp968
g378
aVDSO_pathbyaddr
p969
aVASN1_STRING_dup
p970
aVERR_get_err_state_table
p971
aVERR_free_strings
p972
asVpkey_dh_cleanup
p973
(lp974
VEC_KEY_set_asn1_flag
p975
aVcmac_key_free
p976
aVpkey_dsa_cleanup
p977
aVEC_KEY_set_conv_form
p978
aVpqueue_free
p979
asVd2i_ASN1_OBJECT
p980
(lp981
g16
aVc2i_ASN1_OBJECT
p982
ag27
ag15
aVec_GF2m_simple_point2oct
p983
asVEVP_PKEY_CTX_dup
p984
(lp985
Vdtls1_buffer_message
p986
aVX509_CERT_AUX_print
p987
aVd2i_ECPrivateKey
p988
ag742
ag924
asVtls12_get_sigandhash
p989
(lp990
g581
ag139
aVBN_nist_mod_521
p991
ag904
aVpkey_hmac_ctrl
p992
asVSSL_SESSION_free
p993
(lp994
g861
ag862
ag863
ag864
ag865
asVRSA_blinding_on
p995
(lp996
VASN1_item_sign_ctx
p997
aVBIO_new_NDEF
p998
ag612
ag498
aVengine_table_register
p999
asVecdh_data_free
p1000
(lp1001
Vecdsa_data_free
p1002
aVtls1_free
p1003
aVcleanup3_LHASH_DOALL
p1004
aVEC_KEY_set_public_key
p1005
aVCRYPTO_remalloc
p1006
asVERR_load_EC_strings
p1007
(lp1008
g296
ag297
ag298
ag299
ag300
asVcamellia_256_cfb128_cipher
p1009
(lp1010
g132
ag133
ag134
ag135
ag136
asVCRYPTO_get_lock_name
p1011
(lp1012
VBN_set_bit
p1013
aVssl23_write_bytes
p1014
aVpolicy_node_match
p1015
aVaesni_set_decrypt_key
p1016
aVpk7_cb
p1017
asVBUF_strdup
p1018
(lp1019
g160
aVX509_NAME_ENTRY_set_data
p1020
ag161
ag163
ag13
asVSHA384
p1021
(lp1022
g791
ag792
ag793
ag794
ag8
asVOCSP_RESPONSE_print
p1023
(lp1024
Vdtls1_send_server_key_exchange
p1025
ag498
aVacpt_puts
p1026
aVX509_ATTRIBUTE_set1_data
p1027
ag610
asVEC_GROUP_clear_free
p1028
(lp1029
VTS_REQ_to_TS_VERIFY_CTX
p1030
aVX509_LOOKUP_new
p1031
aVd2i_X509_AUX
p1032
aVBIO_new_bio_pair
p1033
aVX509v3_add_ext
p1034
asVEVP_CipherFinal
p1035
(lp1036
g571
ag572
ag573
ag574
ag575
asVcms_Data_create
p1037
(lp1038
g903
ag106
ag8
ag93
aVX509_STORE_CTX_purpose_inherit
p1039
asVssl23_get_client_method
p1040
(lp1041
g655
ag656
ag657
ag658
ag659
asVERR_load_RSA_strings
p1042
(lp1043
g296
ag297
ag298
ag299
ag300
asVsk_dup
p1044
(lp1045
g491
aVCMS_EnvelopedData_create
p1046
aVDSA_new_method
p1047
aVSSL_set_rfd
p1048
aVSSL_copy_session_id
p1049
asVaesni_cbc_sha1_enc_avx
p1050
(lp1051
S'0'
p1052
aVENGINE_get_last
p1053
aVPKCS7_simple_smimecap
p1054
aVRSA_padding_check_PKCS1_type_2
p1055
aVX509_VERIFY_PARAM_table_cleanup
p1056
asVSSL_COMP_get_name
p1057
(lp1058
g69
ag70
ag71
ag72
ag73
asVcast5_ecb_cipher
p1059
(lp1060
Vbf_ecb_cipher
p1061
aVcamellia_256_ecb_cipher
p1062
aVdes_ecb_cipher
p1063
aVseed_ecb_cipher
p1064
aVidea_ecb_cipher
p1065
asVSSL_set_session_id_context
p1066
(lp1067
VSSL_SESSION_set1_id_context
p1068
aVDES_fcrypt
p1069
aVWHIRLPOOL_Final
p1070
ag330
aVcheck_purpose_ssl_server
p1071
asVint_dup_ex_data
p1072
(lp1073
Vcms_copy_content
p1074
aVdsa_pub_encode
p1075
aVssl3_output_cert_chain
p1076
ag237
aVEVP_PBE_CipherInit
p1077
asVssl_parse_serverhello_use_srtp_ext
p1078
(lp1079
VASN1_STRING_TABLE_add
p1080
aVssl3_send_server_key_exchange
p1081
ag16
ag30
ag27
asVX509V3_EXT_print
p1082
(lp1083
g55
aVSRP_VBASE_get_by_user
p1084
ag754
ag852
ag59
asVEVP_CipherInit
p1085
(lp1086
g27
ag30
ag155
aVssl3_dispatch_alert
p1087
ag946
asVX509_policy_node_get0_parent
p1088
(lp1089
g69
ag70
ag71
ag72
ag73
asVEVP_PKEY_derive_init
p1090
(lp1091
VEVP_PKEY_encrypt_init
p1092
aVEVP_PKEY_keygen_init
p1093
aVEVP_PKEY_verify_init
p1094
aVEVP_PKEY_verify_recover_init
p1095
aVEVP_PKEY_paramgen_init
p1096
asVi2d_DSA_PUBKEY
p1097
(lp1098
g449
ag312
ag310
ag1047
ag751
asVASN1_PCTX_new
p1099
(lp1100
VBN_new
p1101
aVX509_INFO_new
p1102
ag400
aVEVP_PKEY_new
p1103
aVEC_KEY_new
p1104
asVBN_options
p1105
(lp1106
Vbuffer_puts
p1107
aVec_GFp_mont_field_set_to_one
p1108
aVOCSP_copy_nonce
p1109
aVENGINE_set_id
p1110
aVnull_cipher
p1111
asVSRP_gN_new_init
p1112
(lp1113
Vs2i_ASN1_OCTET_STRING
p1114
aVcms_DigestAlgorithm_init_bio
p1115
aVdh_pub_encode
p1116
aVdtls1_retransmit_buffered_messages
p1117
ag182
asVX509_get_pubkey_parameters
p1118
(lp1119
Vv2i_issuer_alt
p1120
aVCMS_sign
p1121
ag479
aVPKCS7_add_signer
p1122
ag593
asVec_GFp_simple_points_make_affine
p1123
(lp1124
g65
aVTXT_DB_write
p1125
aVok_read
p1126
ag387
aVASN1_template_free
p1127
asVcamellia_128_cfb8_cipher
p1128
(lp1129
Vcamellia_192_cfb128_cipher
p1130
aVcamellia_192_cfb8_cipher
p1131
aVcamellia_128_cfb1_cipher
p1132
aVcamellia_192_cfb1_cipher
p1133
aVrc2_cfb64_cipher
p1134
asVX509_ATTRIBUTE_create_by_NID
p1135
(lp1136
g609
ag561
ag559
aVd2i_PrivateKey
p1137
ag29
asVX509_TRUST_get_by_id
p1138
(lp1139
VX509_PURPOSE_get_by_id
p1140
aVOBJ_find_sigid_algs
p1141
ag208
ag207
ag355
asVX509_check_ca
p1142
(lp1143
VEC_GROUP_get_trinomial_basis
p1144
ag164
aVMDC2_Final
p1145
aVssl3_setup_write_buffer
p1146
ag1055
asVSSL_CTX_set_client_CA_list
p1147
(lp1148
VSSL_set_client_CA_list
p1149
aVX509_STORE_CTX_set0_param
p1150
ag1005
aVEC_KEY_set_private_key
p1151
aVEC_KEY_set_group
p1152
asVSHA256
p1153
(lp1154
g77
aVi2c_ASN1_BIT_STRING
p1155
ag76
aVdtls1_read_bytes
p1156
aVssl3_read_bytes
p1157
asVdef_create
p1158
(lp1159
g118
ag450
ag650
aVX509_load_crl_file
p1160
aVDSO_new_method
p1161
asVEVP_PKEY_decrypt_init
p1162
(lp1163
g1092
ag1093
ag1094
ag1095
ag1096
asVSSL_set_fd
p1164
(lp1165
g125
ag128
ag126
ag129
ag127
asVENGINE_register_RAND
p1166
(lp1167
VENGINE_register_STORE
p1168
aVENGINE_register_DH
p1169
aVENGINE_register_ECDH
p1170
aVENGINE_register_DSA
p1171
aVENGINE_set_default_RSA
p1172
asVOCSP_cert_status_str
p1173
(lp1174
Vssl3_renegotiate
p1175
ag304
aVrc2_ctrl
p1176
aVpkey_dh_ctrl
p1177
ag657
asVX509_PURPOSE_get_count
p1178
(lp1179
VEVP_PKEY_asn1_get_count
p1180
aVX509_TRUST_get_count
p1181
aVdsa_finish
p1182
aVdh_finish
p1183
aVUI_free
p1184
asVBIO_dup_chain
p1185
(lp1186
g192
aVX509_to_X509_REQ
p1187
ag678
aVi2d_RSA_NET
p1188
aVRSA_setup_blinding
p1189
asVCONF_load
p1190
(lp1191
g673
ag185
ag1114
ag181
aVPKCS12_item_decrypt_d2i
p1192
asVSHA224
p1193
(lp1194
g77
ag1155
ag76
ag1156
ag1157
asVrsa_item_verify
p1195
(lp1196
g192
aVssl3_get_server_certificate
p1197
ag201
ag409
aVdo_ext_nconf
p1198
asVX509_OBJECT_retrieve_match
p1199
(lp1200
g149
aVBN_BLINDING_update
p1201
aVssl3_write_pending
p1202
ag42
aVDH_check
p1203
asVECDSA_sign_setup
p1204
(lp1205
VECDSA_do_verify
p1206
aVDSA_sign
p1207
aVX509_pubkey_digest
p1208
aVlh_node_usage_stats
p1209
aVlh_node_stats
p1210
asVX509V3_EXT_REQ_add_nconf
p1211
(lp1212
g480
aVv2i_EXTENDED_KEY_USAGE
p1213
aVprint_qualifiers
p1214
ag630
ag479
asVa2i_IPADDRESS_NC
p1215
(lp1216
Vasn1_d2i_ex_primitive
p1217
ag427
ag94
ag196
ag8
asVfmtint
p1218
(lp1219
g94
aVBN_div
p1220
aVdtls1_process_record
p1221
aVEVP_DecodeUpdate
p1222
ag1155
asVCMS_set_detached
p1223
(lp1224
g903
ag1039
aVpkey_rsa_ctrl
p1225
ag106
aVacpt_ctrl
p1226
asVOBJ_obj2nid
p1227
(lp1228
g428
ag687
aVi2a_ASN1_STRING
p1229
aVi2a_ASN1_ENUMERATED
p1230
ag1217
asVBN_mod_word
p1231
(lp1232
VOPENSSL_memcmp
p1233
ag284
ag765
ag285
aVCRYPTO_get_lock_name
p1234
asVGENERAL_NAME_set0_value
p1235
(lp1236
g1134
ag132
ag133
ag134
ag135
asVdsa_cb
p1237
(lp1238
Vdh_cb
p1239
ag830
ag828
ag862
aVSSL_shutdown
p1240
asVdo_print_ex.constprop.3
p1241
(lp1242
Vdo_print_ex.constprop.4
p1243
ag76
ag1157
aVssl_parse_clienthello_tlsext
p1244
ag572
asVdynamic_data_ctx_free_func
p1245
(lp1246
VBN_BLINDING_free
p1247
aVX509V3_conf_free
p1248
ag494
aVDH_free
p1249
ag858
asVold_ec_priv_decode
p1250
(lp1251
Vdsa_param_decode
p1252
aVeckey_param_decode
p1253
aVold_dsa_priv_decode
p1254
aVold_rsa_priv_decode
p1255
aVdh_param_decode
p1256
asVUI_create_method
p1257
(lp1258
VBIO_new_dgram
p1259
aVBIO_new_fd
p1260
aVGENERAL_NAME_set0_othername
p1261
aVenc_new
p1262
ag956
asVd2i_X509_PKEY
p1263
(lp1264
VASN1_generate_v3
p1265
aVdynamic_load
p1266
aVssl3_change_cipher_state
p1267
ag1075
ag498
asVPKCS7_add_signature
p1268
(lp1269
g202
ag748
aVTS_compute_imprint
p1270
aVSMIME_read_ASN1
p1271
ag252
asVaes_ccm_cipher
p1272
(lp1273
Vssl23_accept
p1274
aVpkey_hmac_ctrl_str
p1275
ag430
ag259
ag428
asVX509_check_issued
p1276
(lp1277
g1202
ag106
ag430
ag258
ag197
asVEVP_DecryptUpdate
p1278
(lp1279
VBN_GF2m_mod_arr
p1280
aVa2i_ASN1_INTEGER
p1281
ag684
aVmime_parse_hdr
p1282
aVa2i_ASN1_ENUMERATED
p1283
asVec_wNAF_mul
p1284
(lp1285
g429
ag92
ag65
ag93
ag1220
asVCRYPTO_mem_leaks_fp
p1286
(lp1287
g649
aVBN_add
p1288
aVlh_node_stats_bio
p1289
ag120
aVsock_write
p1290
asVX509_STORE_CTX_cleanup
p1291
(lp1292
g366
ag487
ag365
aVASN1_GENERALIZEDTIME_adj
p1293
ag833
asVlh_doall
p1294
(lp1295
g45
aVBN_copy
p1296
ag44
aVOCSP_single_get0_status
p1297
aVsk_pop_free
p1298
asVRSA_eay_finish
p1299
(lp1300
Ve_rsax_rsa_finish
p1301
aVSSL_SESSION_free
p1302
ag858
ag494
ag1247
asVbsaes_cbc_encrypt
p1303
(lp1304
Vaesni_xts_encrypt
p1305
aVAES_cbc_encrypt
p1306
aVCRYPTO_ofb128_encrypt
p1307
aVbsaes_ctr32_encrypt_blocks
p1308
aVCRYPTO_ccm128_encrypt
p1309
asVEC_GROUP_set_generator
p1310
(lp1311
g51
aVUI_dup_verify_string
p1312
ag48
ag485
aVdh_private_print
p1313
asVBN_add_word
p1314
(lp1315
VBN_uadd
p1316
ag573
ag572
aVDES_quad_cksum
p1317
ag1155
asVdtls1_retransmit_buffered_messages
p1318
(lp1319
Vdtls1_retransmit_message
p1320
ag756
aVrc2_cbc_cipher
p1321
aVBN_BLINDING_convert_ex
p1322
aVocsp_match_issuerid
p1323
asVX509at_get0_data_by_OBJ
p1324
(lp1325
g15
ag17
aVoid_module_init
p1326
ag983
ag197
asVENGINE_pkey_asn1_find_str
p1327
(lp1328
g471
ag341
ag342
ag343
aVMD4
p1329
asVmime_hdr_new
p1330
(lp1331
Vdtls1_get_message_fragment
p1332
ag428
ag92
ag65
aVec_GFp_simple_get_Jprojective_coordinates_GFp
p1333
asVNCONF_load_fp
p1334
(lp1335
g555
ag554
aVint_get_new_index
p1336
aVTS_RESP_CTX_add_failure_info
p1337
aVTS_CONF_load_key
p1338
asVCRYPTO_gcm128_encrypt_ctr32
p1339
(lp1340
g1307
aVCRYPTO_gcm128_decrypt
p1341
aVCRYPTO_cts128_encrypt_block
p1342
ag684
ag1309
asVCONF_get_section
p1343
(lp1344
g265
aVASN1_dup
p1345
aVOBJ_find_sigid_by_algs
p1346
aVnbiof_read
p1347
aVECDSA_size
p1348
asVec_GF2m_simple_mul
p1349
(lp1350
VBN_mod_exp_mont
p1351
aVBN_mod_exp2_mont
p1352
ag386
ag390
aVBN_mod_exp_mont_word
p1353
asVpkey_rsa_ctrl_str
p1354
(lp1355
Vasn1_template_noexp_d2i
p1356
ag1025
ag1081
aVssl3_get_client_certificate
p1357
aVssl3_get_client_key_exchange
p1358
asVX509_add1_reject_object
p1359
(lp1360
g772
ag755
ag588
ag57
ag1293
asVENGINE_ctrl_cmd_string
p1361
(lp1362
VOCSP_request_verify
p1363
aVRSA_sign
p1364
ag1198
ag610
ag1356
asVmime_hdr_addparam.isra.1
p1365
(lp1366
g428
aVssl3_enc
p1367
ag1333
ag430
ag42
asVASN1_item_d2i
p1368
(lp1369
Vbn_GF2m_mul_2x2
p1370
aVASN1_item_ex_d2i
p1371
aVsub_83006
p1372
aVaes_cfb1_cipher
p1373
aVdes_cfb8_cipher
p1374
asVSSL_COMP_get_compression_methods
p1375
(lp1376
Vd2i_ECPKParameters
p1377
ag662
ag1160
aVX509_load_cert_file
p1378
aVi2r_PKEY_USAGE_PERIOD
p1379
asVx509v3_cache_extensions.part.6
p1380
(lp1381
g617
aVssl2_connect
p1382
ag794
aVssl2_accept
p1383
ag792
asVCRYPTO_dup_ex_data
p1384
(lp1385
g174
ag175
ag176
ag177
ag178
asVssl3_setup_buffers
p1386
(lp1387
Vssl3_setup_read_buffer
p1388
ag436
ag678
aVPKCS7_sign
p1389
ag498
asVDES_options
p1390
(lp1391
g1107
ag1109
aVBN_mod_add_quick
p1392
aVOCSP_id_cmp
p1393
aVX509_issuer_and_serial_cmp
p1394
asVENGINE_register_RSA
p1395
(lp1396
g1168
ag1169
ag1170
ag1171
ag1172
asVOCSP_request_sign
p1397
(lp1398
g561
ag498
ag560
ag997
aVpolicy_cache_set_mapping
p1399
asVCRYPTO_ccm128_setiv
p1400
(lp1401
g641
aVSHA512_Final
p1402
ag1069
aVcheck_purpose_timestamp_sign
p1403
ag334
asVEVP_PKEY_CTX_new
p1404
(lp1405
g1198
aVPKCS12_add_cert
p1406
ag1266
ag747
aVr2i_pci
p1407
asVASN1_STRING_TABLE_cleanup
p1408
(lp1409
g1184
aVvalue_free_hash_LHASH_DOALL_ARG
p1410
ag979
aV_CONF_new_data
p1411
ag1180
asVOBJ_NAME_add
p1412
(lp1413
g209
aVmem_gets
p1414
aVobj_trust
p1415
aVec_GF2m_simple_group_get_curve
p1416
ag14
asVENGINE_register_all_pkey_asn1_meths
p1417
(lp1418
g218
aVdh_priv_decode
p1419
ag252
aVv3_generic_extension
p1420
aVPKCS12_pbe_crypt
p1421
asVCRYPTO_gcm128_decrypt_ctr32
p1422
(lp1423
g1341
aVCRYPTO_gcm128_encrypt
p1424
aVCRYPTO_ccm128_decrypt_ccm64
p1425
aVCRYPTO_gcm128_aad
p1426
ag684
asVSSL_do_handshake
p1427
(lp1428
g1240
aVCMS_get0_SignerInfos
p1429
ag801
ag802
aVOTHERNAME_cmp
p1430
asVERR_load_DH_strings
p1431
(lp1432
g296
ag297
ag298
ag299
ag300
asVENGINE_register_all_RSA
p1433
(lp1434
VASN1_TYPE_set1
p1435
ag20
ag21
ag22
ag23
asVBIO_new_socket
p1436
(lp1437
g1259
ag1260
aVBN_print_fp
p1438
aVECParameters_print
p1439
aVsk_dup
p1440
asVdoapr_outch.constprop.5
p1441
(lp1442
Vdoapr_outch
p1443
ag1221
aVENGINE_ctrl
p1444
aVDES_string_to_2keys
p1445
ag430
asVPKCS5_PBE_keyivgen
p1446
(lp1447
Vget_cert_by_subject
p1448
aVdo_PVK_body.isra.3
p1449
aVEC_KEY_set_public_key_affine_coordinates
p1450
aVECPKParameters_print
p1451
aVSRP_create_verifier
p1452
asVasn1_i2d_ex_primitive
p1453
(lp1454
Vasn1_ex_i2c
p1455
ag430
ag1157
ag1217
ag1156
asVSSL_add_client_CA
p1456
(lp1457
VSSL_CTX_add_client_CA
p1458
ag122
aVCRYPTO_get_new_lockid
p1459
ag959
aVi2s_ASN1_INTEGER
p1460
asVdef_get_class
p1461
(lp1462
g1419
ag252
aVEVP_PKCS82PKEY
p1463
ag1271
aVPKCS7_decrypt
p1464
asVDES_ede3_ofb64_encrypt
p1465
(lp1466
VDES_ofb64_encrypt
p1467
ag442
aVCAST_ofb64_encrypt
p1468
aVRC2_ofb64_encrypt
p1469
ag107
asVSSL_set_session
p1470
(lp1471
g27
ag438
ag1137
ag29
ag30
asVX509_STORE_CTX_init
p1472
(lp1473
VEVP_PKEY_asn1_new
p1474
aVSSL_new
p1475
aVSRP_VBASE_new
p1476
aVEVP_PKEY_CTX_dup
p1477
aVNETSCAPE_SPKI_print
p1478
asVCMS_add1_crl
p1479
(lp1480
VBN_mpi2bn
p1481
aVX509_check_akid
p1482
ag485
ag208
ag207
asVbn_sub_words
p1483
(lp1484
Vbn_add_words
p1485
aVEVP_PKEY_CTX_get_keygen_info
p1486
aVEVP_PKEY_save_parameters
p1487
aVUI_get_result_minsize
p1488
aVUI_get_result_maxsize
p1489
asVERR_load_PEM_strings
p1490
(lp1491
g296
ag297
ag298
ag299
ag300
asVCRYPTO_free
p1492
(lp1493
VCRYPTO_free_locked
p1494
aVRSA_blinding_on
p1495
aVRAND_pseudo_bytes
p1496
ag845
aVRAND_seed
p1497
asVSSL_renegotiate_abbreviated
p1498
(lp1499
VSSL_renegotiate
p1500
aVX509V3_get_section
p1501
ag377
aVCMS_RecipientInfo_ktri_get0_algs
p1502
aVDSO_merge
p1503
asVbsaes_xts_encrypt
p1504
(lp1505
Vbsaes_xts_decrypt
p1506
ag1308
aVaesni_xts_decrypt
p1507
ag1305
aVaesni_ecb_encrypt
p1508
asVASN1_item_dup
p1509
(lp1510
g1345
aVBIO_ptr_ctrl
p1511
ag290
ag291
aVCMS_RecipientInfo_kekri_id_cmp
p1512
asVBN_GF2m_mod_exp
p1513
(lp1514
g76
ag77
ag78
ag79
ag80
asVCRYPTO_ccm128_decrypt
p1515
(lp1516
g1309
aVCRYPTO_ccm128_encrypt_ccm64
p1517
ag1342
aVCRYPTO_cts128_decrypt_block
p1518
ag1307
asVCRYPTO_add_lock
p1519
(lp1520
VASN1_item_free
p1521
aVASN1_item_ex_free
p1522
aVlh_delete
p1523
ag387
aVasn1_bio_write
p1524
asVtls12_get_sigid
p1525
(lp1526
g864
aVCMS_is_detached
p1527
aVX509V3_add_value_bool_nf
p1528
ag304
ag761
asVWHIRLPOOL
p1529
(lp1530
Vpkey_ec_sign
p1531
aVpkey_dsa_paramgen
p1532
aVASN1_item_i2d
p1533
ag414
ag217
asVERR_load_UI_strings
p1534
(lp1535
g296
ag297
ag298
ag299
ag300
asVEVP_PKEY_get1_DH
p1536
(lp1537
VEVP_PKEY_get1_DSA
p1538
aVEVP_PKEY_get1_RSA
p1539
aVEVP_PKEY_get1_EC_KEY
p1540
aVcms_get0_enveloped
p1541
aVPKCS7_cert_from_signer_info
p1542
asVCMS_add0_recipient_password
p1543
(lp1544
g878
ag1198
ag240
ag610
ag237
asVBN_GF2m_mod_sqr
p1545
(lp1546
g76
ag77
ag1283
ag1317
ag699
asVSSL_dup
p1547
(lp1548
g30
ag27
aVSSL_set_srp_server_param
p1549
aVtrust_1oidany
p1550
ag29
asVOBJ_NAME_do_all_sorted
p1551
(lp1552
g218
ag1531
aVASN1_TYPE_set_int_octetstring
p1553
ag422
aVhmac_signctx
p1554
asVX509_REQ_get_extensions
p1555
(lp1556
g743
ag157
ag156
ag966
ag1084
asVparse_tagging
p1557
(lp1558
g1455
aVX509V3_parse_list
p1559
ag430
ag1225
ag1157
asVUI_method_get_prompt_constructor
p1560
(lp1561
g69
ag70
ag71
ag72
ag73
asVBN_copy
p1562
(lp1563
g149
ag1402
aVASN1_primitive_free
p1564
ag164
aVasn1_enc_free
p1565
asVcms_RecipientInfo_pwri_crypt
p1566
(lp1567
g757
ag386
ag756
ag497
aVdtls1_reassemble_fragment
p1568
asVrsa_pub_encode
p1569
(lp1570
Vrsa_priv_encode
p1571
ag231
ag1114
ag1117
aVENGINE_get_digest
p1572
asVEC_EX_DATA_set_data
p1573
(lp1574
Vssl_cipher_get_evp
p1575
ag430
ag1444
ag196
ag428
asVc2i_ASN1_INTEGER
p1576
(lp1577
g93
aVdef_load_bio
p1578
ag63
aVBN_bn2dec
p1579
ag1443
asVdtls1_is_timer_expired
p1580
(lp1581
g43
ag359
aVdtls1_get_timeout
p1582
ag1229
ag1230
asVCRYPTO_get_mem_debug_options
p1583
(lp1584
VCRYPTO_thread_id
p1585
aVX509_LOOKUP_init
p1586
aVX509_LOOKUP_shutdown
p1587
aVCRYPTO_set_mem_debug_options
p1588
aVEC_GROUP_check_discriminant
p1589
asVasn1_item_clear
p1590
(lp1591
Vssl3_cbc_remove_padding
p1592
ag303
ag1486
ag37
ag36
asVBN_BLINDING_convert_ex
p1593
(lp1594
Vdtls1_enc
p1595
ag259
aVCMS_decrypt
p1596
ag63
ag91
asVa2i_GENERAL_NAME
p1597
(lp1598
g240
ag191
ag192
ag409
aVPKCS7_dataFinal
p1599
asVUI_method_get_closer
p1600
(lp1601
g69
ag70
ag71
ag72
ag73
asVEC_POINT_hex2point
p1602
(lp1603
Vdtls1_send_newsession_ticket
p1604
aVBN_X931_generate_prime_ex
p1605
aVPEM_read_bio_PrivateKey
p1606
aVPKCS5_pbe2_set_iv
p1607
ag252
asVBN_mod_add
p1608
(lp1609
g223
ag885
ag224
ag225
ag226
asVBUF_strlcat
p1610
(lp1611
g346
aVsk_find
p1612
aVsk_find_ex
p1613
ag335
ag336
asVprocess_pci_value
p1614
(lp1615
g1081
aVec_GFp_simple_point2oct
p1616
aVd2i_X509_PKEY
p1617
ag384
ag983
asVBN_rshift
p1618
(lp1619
g78
ag1316
aVi2b_PrivateKey_bio
p1620
aVa2i_ASN1_STRING
p1621
aVaes_gcm_ctrl
p1622
asVssl_prepare_clienthello_tlsext
p1623
(lp1624
g1146
ag904
aVconn_state
p1625
aVUI_set_result
p1626
ag894
asVX509V3_get_value_int
p1627
(lp1628
g694
aVBN_pseudo_rand
p1629
ag783
aVASN1_template_d2i
p1630
ag1229
asVPKCS7_set_cipher
p1631
(lp1632
g118
ag650
ag119
aVSMIME_text
p1633
aVapp_info_free
p1634
asVX509_CRL_verify
p1635
(lp1636
g1586
ag1587
ag1585
aVEC_GROUP_get_degree
p1637
aVEC_GROUP_set_curve_GFp
p1638
asVRSA_verify
p1639
(lp1640
g687
aVEVP_SignFinal
p1641
ag669
ag361
ag1352
asVasn1_GetSequence
p1642
(lp1643
g1622
aVASN1_get_object
p1644
ag1283
ag1280
ag329
asVRSA_eay_private_decrypt
p1645
(lp1646
g615
ag616
ag637
ag757
ag385
asVSSL_CIPHER_get_version
p1647
(lp1648
VUI_get0_action_string
p1649
ag371
ag771
aVEC_get_builtin_curves
p1650
ag905
asVEVP_PKEY_set1_DH
p1651
(lp1652
g125
ag155
ag127
ag156
ag157
asVERR_load_RAND_strings
p1653
(lp1654
g296
ag297
ag298
ag299
ag300
asVBN_GF2m_mod_div
p1655
(lp1656
g617
ag429
aVBN_GF2m_mod_mul_arr
p1657
aVbuffer_read
p1658
aVX509_NAME_oneline
p1659
asVSHA256_Update
p1660
(lp1661
g329
ag327
ag328
ag330
ag699
asVssl3_send_change_cipher_spec
p1662
(lp1663
g356
ag161
aVEVP_PKEY_decrypt
p1664
ag160
ag1146
asVX509_ATTRIBUTE_create_by_OBJ
p1665
(lp1666
Vec_GFp_simple_group_get_curve
p1667
ag946
ag62
ag1595
ag30
asVssl3_cbc_remove_padding
p1668
(lp1669
g303
ag36
ag37
ag304
ag35
asVEVP_CIPHER_get_asn1_iv
p1670
(lp1671
g57
aVdef_generate_session_id
p1672
aVdes3_ctrl
p1673
ag207
ag408
asVECDSA_sign_ex
p1674
(lp1675
VDSA_print
p1676
aVEC_KEY_print
p1677
aVRSA_print
p1678
aVSXNET_add_id_ulong
p1679
aVX509_NAME_ENTRY_create_by_txt
p1680
asVASN1_item_d2i_bio
p1681
(lp1682
g264
aVCONF_get_number
p1683
ag185
ag290
aVX509_VERIFY_PARAM_lookup
p1684
asVX509_NAME_add_entry_by_NID
p1685
(lp1686
VTS_ext_print_bio
p1687
ag184
ag181
ag478
ag708
asVasn1_const_Finish
p1688
(lp1689
VEVP_PKEY_asn1_get0_info
p1690
aVfd_ctrl
p1691
aVASN1_UNIVERSALSTRING_to_string
p1692
aVX509V3_get_value_bool
p1693
aVTS_CONF_set_tsa_name
p1694
asVSMIME_text
p1695
(lp1696
g176
ag936
aVb2i_PVK_bio
p1697
ag466
ag578
asVssl_cipher_id_cmp
p1698
(lp1699
g303
ag38
ag34
ag306
ag245
asVX509V3_EXT_CRL_add_nconf
p1700
(lp1701
VX509_STORE_add_lookup
p1702
aVX509V3_EXT_add_nconf_sk
p1703
aVadd_attribute
p1704
aVCMS_encrypt
p1705
aVX509_load_cert_crl_file
p1706
asVssl2_ctrl
p1707
(lp1708
g307
aVUI_get_string_type
p1709
ag812
ag284
aVst_free
p1710
asVX509_PURPOSE_get_by_sname
p1711
(lp1712
g1415
ag504
ag1015
ag207
ag1550
asVi2d_RSA_PUBKEY
p1713
(lp1714
g449
ag312
ag310
ag1047
ag751
asVHMAC
p1715
(lp1716
VPKCS12_gen_mac.part.0
p1717
ag1604
ag937
aVPKCS7_SIGNER_INFO_sign
p1718
ag477
asVECDSA_set_ex_data
p1719
(lp1720
VNETSCAPE_SPKI_b64_encode
p1721
ag252
ag490
ag1048
ag630
asVX509_load_cert_crl_file
p1722
(lp1723
g1160
ag1378
ag1377
ag52
aVSSL_use_certificate_file
p1724
asVBN_GF2m_mod_sqrt
p1725
(lp1726
g6
aVCMAC_Init
p1727
ag617
aVok_write
p1728
ag1658
asVEVP_CIPHER_CTX_rand_key
p1729
(lp1730
VEVP_PKEY_copy_parameters
p1731
aVEVP_PKEY_CTX_ctrl_str
p1732
aVX509_PUBKEY_get
p1733
aVDSO_bind_func
p1734
aVDSO_bind_var
p1735
asVpkey_dh_derive
p1736
(lp1737
Vpkey_ec_derive
p1738
aVBIO_ssl_copy_session_id
p1739
aVi2d_PrivateKey
p1740
aVby_file_ctrl
p1741
ag1734
asVCONF_load_fp
p1742
(lp1743
g673
ag185
ag181
ag1114
ag183
asVEVP_PKEY_sign_init
p1744
(lp1745
g1092
ag1093
ag1094
ag1095
ag1096
asVtls1_get_method
p1746
(lp1747
g761
ag762
ag763
ag764
ag765
asVBN_mod_mul_reciprocal
p1748
(lp1749
g393
ag1353
ag460
ag612
ag462
asVSSL_set_wfd
p1750
(lp1751
g125
ag128
ag126
ag28
ag149
asVdtls1_handle_timeout
p1752
(lp1753
g196
ag430
ag1332
ag1221
ag8
asVssl2_put_cipher_by_char
p1754
(lp1755
g304
ag864
ag765
ag285
aVx509_object_cmp
p1756
asVpkey_rsa_init
p1757
(lp1758
Vpkey_dh_init
p1759
aVpkey_dsa_init
p1760
aVb64_new
p1761
aVnbiof_new
p1762
aVpkey_ec_init
p1763
asVd2i_DSA_PUBKEY
p1764
(lp1765
g251
ag252
ag253
ag254
ag255
asVSSL_CTX_use_certificate
p1766
(lp1767
VSSL_use_certificate
p1768
ag1606
ag477
ag1270
ag218
asVmd_callback_ctrl
p1769
(lp1770
g717
ag718
ag719
ag720
ag721
asVOBJ_sigid_free
p1771
(lp1772
VSRP_Calc_x
p1773
ag888
aVOBJ_NAME_remove
p1774
aVSRP_Verify_B_mod_N
p1775
ag414
asVEC_GROUP_free
p1776
(lp1777
g218
ag833
aVCMS_add0_RevocationInfoChoice
p1778
aVssl_set_pkey
p1779
ag484
asVX509_verify_cert_error_string
p1780
(lp1781
g518
ag517
aVCRYPTO_cfb128_encrypt
p1782
ag516
aVCRYPTO_ctr128_encrypt_ctr32
p1783
asVOBJ_sn2nid
p1784
(lp1785
g43
ag687
ag1641
aVidea_cfb64_encrypt
p1786
ag428
asVSSL_copy_session_id
p1787
(lp1788
Vssl3_connect
p1789
ag106
aVEVP_EncryptFinal_ex
p1790
ag197
ag17
asV_CONF_get_section_values
p1791
(lp1792
g889
ag888
aV_CONF_get_section
p1793
aVOBJ_sn2nid
p1794
aVOBJ_ln2nid
p1795
asVSSL_get_srp_userinfo
p1796
(lp1797
g69
ag70
ag71
ag72
ag73
asVasn1_Finish
p1798
(lp1799
g1690
ag1691
ag1692
ag1693
ag1694
asVX509_STORE_CTX_get1_issuer
p1800
(lp1801
g610
ag1026
ag695
aVacpt_read
p1802
aVacpt_write
p1803
asVssl_cert_inst
p1804
(lp1805
Vi2o_ECPublicKey
p1806
aVdlfcn_merger
p1807
aVo2i_ECPublicKey
p1808
aVX509at_add1_attr
p1809
ag676
asVssl3_alert_code
p1810
(lp1811
g768
ag303
ag304
ag37
ag36
asVX509_NAME_ENTRY_create_by_txt
p1812
(lp1813
g561
ag559
ag238
ag609
ag593
asVBN_GF2m_mod
p1814
(lp1815
g1445
ag1221
ag1727
ag641
aVssleay_rand_bytes
p1816
asVERR_load_CRYPTO_strings
p1817
(lp1818
VERR_load_SSL_strings
p1819
ag296
ag297
ag298
ag299
asVaes_init_key
p1820
(lp1821
g696
ag694
ag755
ag127
ag1275
asVSHA256_Final
p1822
(lp1823
g1426
ag684
ag511
ag1243
ag683
asVERR_get_implementation
p1824
(lp1825
g864
ag949
ag285
ag863
ag950
asVEC_POINT_dup
p1826
(lp1827
Vd2i_PublicKey
p1828
ag894
ag893
ag1809
ag1808
asVBIO_free_all
p1829
(lp1830
g499
ag30
ag155
aVBIO_read
p1831
ag740
asVEVP_CipherUpdate
p1832
(lp1833
g1280
ag1283
ag1281
aVread_n
p1834
ag1282
asVOBJ_NAME_init
p1835
(lp1836
Vobj_cmp_BSEARCH_CMP_FN
p1837
ag305
ag978
ag975
ag1710
asVOBJ_create_objects
p1838
(lp1839
g1455
aVstr_copy
p1840
ag1157
aVasn1_check_tlen
p1841
aVasn1_collect.constprop.0
p1842
asVdtls1_clear_record_buffer
p1843
(lp1844
g367
ag833
ag494
ag1249
ag858
asVv2i_issuer_alt
p1845
(lp1846
g664
aVTS_RESP_create_response
p1847
ag313
aVec_GFp_simple_group_set_curve
p1848
ag192
asVSRP_generate_server_master_secret
p1849
(lp1850
g747
aVcompute_key
p1851
aVEVP_OpenInit
p1852
aVSRP_Calc_B
p1853
ag1421
asVpkey_rsa_copy
p1854
(lp1855
g506
aVSSL_set_session_ticket_ext
p1856
ag503
aVCMS_set_detached
p1857
aVSSL_use_psk_identity_hint
p1858
asVint_err_get
p1859
(lp1860
Vint_thread_get
p1861
ag58
ag436
ag696
ag694
asVBIO_get_retry_BIO
p1862
(lp1863
Vssl2_enc
p1864
aVcms_SignerIdentifier_get0_signer_id
p1865
aVPKCS8_pkey_get0
p1866
aVCRYPTO_get_locked_mem_functions
p1867
aVCRYPTO_get_locked_mem_ex_functions
p1868
asVBIO_asn1_get_suffix
p1869
(lp1870
VENGINE_register_ciphers
p1871
aVENGINE_register_digests
p1872
aVENGINE_register_pkey_asn1_meths
p1873
aVENGINE_register_pkey_meths
p1874
aVENGINE_set_default_pkey_meths
p1875
asVEC_KEY_new_by_curve_name
p1876
(lp1877
g490
ag492
aVecdh_check
p1878
ag493
ag494
asVssl_verify_alarm_type
p1879
(lp1880
g1592
ag303
ag304
ag37
ag36
asVEVP_PKEY_CTX_new_id
p1881
(lp1882
g1406
ag1198
ag1407
ag1266
ag747
asVX509V3_EXT_add_conf
p1883
(lp1884
g1214
ag480
ag1323
ag479
aVNAME_CONSTRAINTS_check
p1885
asVdo_all_sorted_fn
p1886
(lp1887
g307
ag305
ag34
aVX509_CRL_METHOD_free
p1888
ag283
asVSSL_CTX_use_RSAPrivateKey
p1889
(lp1890
g957
aVPKCS7_final
p1891
aVd2i_PKCS8PrivateKey_fp
p1892
aVPKCS7_add_attrib_content_type
p1893
aVCONF_load_fp
p1894
asVUI_method_get_flusher
p1895
(lp1896
g69
ag70
ag71
ag72
ag73
asVCMS_add0_crl
p1897
(lp1898
g1482
ag1481
ag485
ag208
ag207
asVRAND_pseudo_bytes
p1899
(lp1900
g1406
ag999
ag998
ag1853
ag588
asVERR_load_PKCS7_strings
p1901
(lp1902
g296
ag297
ag298
ag299
ag300
asVEC_GROUP_check_discriminant
p1903
(lp1904
g1637
aVEC_GROUP_get_curve_GF2m
p1905
ag1638
aVEC_GROUP_get_curve_GFp
p1906
aVEC_GROUP_set_curve_GF2m
p1907
asVX509V3_add_value_bool
p1908
(lp1909
g1160
ag1807
ag1033
ag52
ag1806
asVX509_NAME_get_text_by_OBJ
p1910
(lp1911
Vec_GF2m_simple_group_set_curve
p1912
aVssl_parse_clienthello_use_srtp_ext
p1913
ag1229
ag1230
ag1629
asVECDH_set_ex_data
p1914
(lp1915
g1721
ag252
ag490
ag1048
ag630
asVEVP_CIPHER_CTX_free
p1916
(lp1917
g366
ag465
ag365
ag367
aVEVP_PKEY_CTX_free
p1918
asVBN_bin2bn
p1919
(lp1920
g80
ag428
ag1296
aVssl_cipher_list_to_bytes
p1921
aVERR_get_error_line_data
p1922
asVSSL_use_certificate_file
p1923
(lp1924
VSSL_CTX_use_certificate_file
p1925
ag1377
ag1160
ag1378
ag251
asVX509_NAME_set
p1926
(lp1927
VX509_REVOKED_set_revocationDate
p1928
ag111
ag112
ag433
ag122
asVPKCS7_content_new
p1929
(lp1930
g740
aVssl3_ctx_ctrl
p1931
ag30
aVPKCS7_set_type
p1932
ag1027
asVERR_load_DSA_strings
p1933
(lp1934
g296
ag297
ag298
ag299
ag300
asVSSL_connect
p1935
(lp1936
VSSL_free
p1937
ag858
ag1249
ag494
ag366
asVssl_cipher_strength_sort
p1938
(lp1939
g1444
ag430
ag428
ag1578
ag444
asVEVP_Digest
p1940
(lp1941
Vdsa_do_sign
p1942
ag998
aVPKCS12_create
p1943
ag997
ag612
asVX509_NAME_ENTRY_get_data
p1944
(lp1945
g69
ag70
ag71
ag72
ag73
asVv2i_GENERAL_NAMES
p1946
(lp1947
g664
ag313
ag310
aVOCSP_cert_id_new
p1948
ag311
asV__do_global_dtors_aux
p1949
(lp1950
g245
ag284
aVSSL_get_servername
p1951
aVSSL_get_ciphers
p1952
aVssl_get_ciphers_by_id
p1953
asVSSL_CIPHER_description
p1954
(lp1955
g1282
ag684
ag683
ag682
ag1283
asVOCSP_cert_to_id
p1956
(lp1957
g1948
ag1607
ag748
ag746
ag747
asVASN1_GENERALIZEDTIME_set_string
p1958
(lp1959
Vssl3_send_next_proto
p1960
ag1782
aVBN_lshift
p1961
ag518
aVASN1_UTCTIME_cmp_time_t
p1962
asVdtls1_new
p1963
(lp1964
g367
ag366
ag365
ag833
ag743
asVSSL_get_version
p1965
(lp1966
g104
ag1649
aVssl3_cbc_record_digest_supported
p1967
aVadded_obj_LHASH_COMP
p1968
aVnames_lh_free_LHASH_DOALL
p1969
asVERR_add_error_vdata
p1970
(lp1971
VX509V3_get_d2i
p1972
aVBN_GF2m_mod_sqr_arr
p1973
ag94
ag92
ag91
asVEVP_CIPHER_param_to_asn1
p1974
(lp1975
VGENERAL_NAME_get0_otherName
p1976
aVssl3_renegotiate_check
p1977
aVpkey_cb
p1978
aVdpn_cb
p1979
aVX509_NAME_set
p1980
asVX509V3_EXT_d2i
p1981
(lp1982
g888
ag1773
ag889
aVCRYPTO_mem_leaks
p1983
ag218
asVX509V3_add_value_int
p1984
(lp1985
VBN_clear_free
p1986
aVSSL_get_cipher_list
p1987
ag52
aVfile_gets
p1988
ag1289
asVBIO_sock_should_retry
p1989
(lp1990
VASN1_BIT_STRING_check
p1991
ag1967
ag1020
ag1691
ag104
asVBIO_pop
p1992
(lp1993
Vdtls1_dispatch_alert
p1994
ag741
ag370
ag740
ag925
asVSSL_set_rfd
p1995
(lp1996
g128
ag125
aVERR_get_state
p1997
ag155
aVTXT_DB_read
p1998
asVASN1_TIME_check
p1999
(lp2000
g659
aVX509_NAME_entry_count
p2001
ag655
aVX509_OBJECT_free_contents
p2002
ag717
asVssl_clear_bad_session
p2003
(lp2004
VSSL_CTX_remove_session
p2005
aVBIO_write
p2006
ag982
ag27
ag1027
asVX509_TRUST_add
p2007
(lp2008
g754
ag669
ag668
ag756
aVi2d_SSL_SESSION
p2009
asVX509V3_EXT_add_list
p2010
(lp2011
VPKCS7_add_crl
p2012
aVPKCS7_add_certificate
p2013
ag52
ag1459
aVengine_free_util
p2014
asVX509_STORE_add_crl
p2015
(lp2016
VDHparams_print
p2017
ag1160
aVdh_param_print
p2018
ag201
ag1377
asVasn1_add_error
p2019
(lp2020
VCONF_free
p2021
ag278
aVBIO_asn1_set_prefix
p2022
aVDSA_size
p2023
ag277
asVSRP_Calc_A_param
p2024
(lp2025
g1363
ag48
ag589
ag1141
ag588
asVX509at_add1_attr_by_OBJ
p2026
(lp2027
g746
ag664
ag313
ag457
ag237
asVEVP_PKEY_CTX_ctrl_str
p2028
(lp2029
g438
ag925
aVdtls1_heartbeat
p2030
ag1831
ag2006
asVECDSA_get_default_method
p2031
(lp2032
VUI_get_default_method
p2033
aVDH_get_default_method
p2034
aVRSA_get_default_method
p2035
aVECDH_get_default_method
p2036
aVDSA_get_default_method
p2037
asVENGINE_set_default_digests
p2038
(lp2039
g1875
aVENGINE_set_default_pkey_asn1_meths
p2040
aVENGINE_set_default_ciphers
p2041
ag1871
ag1872
asVENGINE_by_id
p2042
(lp2043
g1034
ag1033
ag678
ag200
ag1121
asVBN_GF2m_mod_div_arr
p2044
(lp2045
Vx509_name_canon.part.0
p2046
ag1657
ag429
ag427
ag1658
asVssl23_get_method
p2047
(lp2048
g655
ag656
ag657
ag659
ag658
asVBN_set_word
p2049
(lp2050
VOCSP_request_add1_cert
p2051
ag1858
ag52
ag601
ag2014
asVPKCS12_item_i2d_encrypt
p2052
(lp2053
Vcms_SignedData_final
p2054
ag1419
aVCMS_SignerInfo_sign
p2055
ag631
ag1718
asVSSL_CIPHER_get_name
p2056
(lp2057
VNCONF_free
p2058
aVNCONF_free_data
p2059
aVUI_get0_result_string
p2060
aVX509_policy_tree_get0_user_policies
p2061
aVUI_get0_test_string
p2062
asVEVP_CIPHER_CTX_copy
p2063
(lp2064
g365
ag743
aVssl_cert_dup
p2065
ag487
aVSSL_set_session
p2066
asVssl_replace_hash
p2067
(lp2068
g493
ag266
aVEC_GROUP_free
p2069
ag289
aVrsa_priv_decode
p2070
asVENGINE_register_all_pkey_meths
p2071
(lp2072
g218
ag1419
ag252
ag1420
ag1421
asVEC_GROUP_dup
p2073
(lp2074
VEVP_DigestSignInit
p2075
ag203
ag1809
aVCMS_add0_CertificateChoices
p2076
aVtls1_export_keying_material
p2077
asVe_rsax_get_ctx
p2078
(lp2079
g1076
ag1452
ag1448
ag239
ag1606
asVECDSA_get_ex_data
p2080
(lp2081
g1048
ag1116
ag1046
aVec_GF2m_simple_point_set_affine_coordinates
p2082
ag480
asVENGINE_register_all_ciphers
p2083
(lp2084
g218
ag1419
ag252
ag1420
ag1421
asVssl3_get_cipher
p2085
(lp2086
VX509_TRUST_get0
p2087
aVEVP_PKEY_asn1_get0
p2088
ag303
aVX509_PURPOSE_get0
p2089
aVGENERAL_NAME_print
p2090
asVSSL_get_psk_identity
p2091
(lp2092
VSSL_get_psk_identity_hint
p2093
aVpqueue_next
p2094
ag169
ag170
aVX509_get_pubkey
p2095
asVssl_get_server_send_pkey
p2096
(lp2097
Vssl_set_cert_masks
p2098
ag1840
ag1222
ag573
ag1155
asVSSL_CTX_use_certificate_ASN1
p2099
(lp2100
VSXNET_get_id_ulong
p2101
ag1891
ag1338
ag957
aVSSL_CTX_use_RSAPrivateKey
p2102
asVASN1_UTCTIME_set_string
p2103
(lp2104
g1782
ag518
ag1960
ag1307
ag1961
asVCONF_dump_fp
p2105
(lp2106
g1721
ag1684
ag266
ag1572
aVENGINE_get_pkey_meth
p2107
asVSSL_SESSION_get_time
p2108
(lp2109
g69
ag70
ag71
ag72
ag73
asVEC_POINT_get_affine_coordinates_GFp
p2110
(lp2111
VEC_POINT_get_Jprojective_coordinates_GFp
p2112
aVEC_POINT_set_Jprojective_coordinates_GFp
p2113
ag725
ag726
ag727
asVdtls1_send_finished
p2114
(lp2115
g986
ag987
ag1323
ag467
ag1189
asVX509_check_trust
p2116
(lp2117
Vnbiof_write
p2118
ag216
aVtls_decrypt_ticket
p2119
aVpkey_rsa_sign
p2120
aVx509_object_idx_cnt
p2121
asVssl_get_algorithm2
p2122
(lp2123
g304
aVBN_get_word
p2124
ag285
ag864
ag1177
asVECDSA_set_method
p2125
(lp2126
g465
ag367
ag50
ag466
ag467
asVEVP_PKEY_new_mac_key
p2127
(lp2128
g201
ag610
ag1034
ag192
ag1357
asVERR_load_ENGINE_strings
p2129
(lp2130
g296
ag297
ag298
ag299
ag300
asVr2i_pci
p2131
(lp2132
g1942
aVx509_name_ex_i2d
p2133
ag997
aVv2i_NAME_CONSTRAINTS
p2134
ag999
asVbuffer_callback_ctrl
p2135
(lp2136
g717
ag718
ag719
ag720
ag721
asVERR_load_PKCS12_strings
p2137
(lp2138
g296
ag297
ag298
ag299
ag300
asVPKCS12_item_decrypt_d2i
p2139
(lp2140
g1419
ag2054
ag2055
ag1718
ag751
asVBN_print_fp
p2141
(lp2142
VBN_print
p2143
aVDES_ncbc_encrypt
p2144
aVCAST_cbc_encrypt
p2145
aVBF_cbc_encrypt
p2146
aVDES_ede3_cfb_encrypt
p2147
asVPEM_write_PrivateKey
p2148
(lp2149
VPKCS12_item_i2d_encrypt
p2150
ag1531
aVEVP_DigestVerifyFinal
p2151
ag1717
ag1420
asVasn1_bio_callback_ctrl
p2152
(lp2153
g717
ag718
ag719
ag720
ag721
asVRAND_cleanup
p2154
(lp2155
g740
ag833
ag741
ag742
ag743
asVRAND_add
p2156
(lp2157
g999
ag588
ag56
ag589
ag1406
asVDES_set_key
p2158
(lp2159
Vbn_rand_range
p2160
aVASN1_item_print
p2161
ag609
ag460
ag462
asVSXNET_get_id_ulong
p2162
(lp2163
VCRYPTO_set_ex_data
p2164
ag1706
aVASN1_BIT_STRING_name_print
p2165
aVPKCS7_set_attributes
p2166
ag1703
asVssl3_send_finished
p2167
(lp2168
g1912
ag1913
aVBN_nist_mod_224
p2169
ag150
ag17
asVPEM_X509_INFO_read
p2170
(lp2171
VPEM_read_PrivateKey
p2172
aVASN1_d2i_fp
p2173
aVX509_NAME_ENTRY_create_by_NID
p2174
ag1680
aVX509_ATTRIBUTE_create_by_txt
p2175
asVSSL_use_PrivateKey_file
p2176
(lp2177
VSSL_CTX_use_PrivateKey_file
p2178
ag1377
ag1378
ag1160
ag251
asVENGINE_register_all_digests
p2179
(lp2180
g218
ag1419
ag252
ag1420
ag1421
asVCONF_get_string
p2181
(lp2182
g1721
ag1114
aVd2i_EC_PUBKEY
p2183
aVd2i_DSA_PUBKEY
p2184
ag466
asVBN_dup
p2185
(lp2186
g149
ag945
aVX509V3_add1_i2d
p2187
ag30
ag27
asVEVP_PKEY_asn1_find_str
p2188
(lp2189
g2046
ag429
ag668
ag64
aVssl3_digest_cached_records
p2190
asVX509_PUBKEY_set0_param
p2191
(lp2192
Vpkey_rsa_copy
p2193
ag456
ag48
ag503
aVdh_copy_parameters
p2194
asVASN1_STRING_TABLE_add
p2195
(lp2196
g155
ag783
ag758
ag55
ag259
asVssl_cert_free
p2197
(lp2198
g367
aVEVP_PKEY_asn1_free
p2199
aVacpt_free
p2200
ag366
ag1918
asVSSL_CTX_add_session
p2201
(lp2202
g30
ag27
ag1523
ag1203
ag2169
asVint_thread_get
p2203
(lp2204
VSSL_srp_server_param_with_username
p2205
aVBIO_get_port
p2206
ag430
ag63
ag196
asVERR_free_strings
p2207
(lp2208
Vmem_puts
p2209
aVbn_dup_expand
p2210
ag803
ag416
aVSRP_Calc_A
p2211
asVSEED_cbc_encrypt
p2212
(lp2213
Vopenssl_load_privkey
p2214
aVEVP_CIPHER_set_asn1_iv
p2215
ag885
aVCONF_get1_default_config_file
p2216
aVint_err_del_item
p2217
asVint_cleanup
p2218
(lp2219
Veckey_type2param
p2220
aVsub_138fb0
p2221
aVdef_get_class
p2222
ag1419
aVEVP_PKEY_new_mac_key
p2223
asVBN_generate_prime_ex
p2224
(lp2225
g1353
ag615
ag385
ag460
ag393
asVaes_xts_init_key
p2226
(lp2227
g646
ag41
ag129
ag126
ag360
asVX509V3_EXT_print_fp
p2228
(lp2229
g852
ag1399
ag392
aVSRP_VBASE_init
p2230
ag962
asVv2i_POLICY_CONSTRAINTS
p2231
(lp2232
g386
ag387
aVCMS_decrypt_set1_pkey
p2233
ag384
ag393
asVssl3_read
p2234
(lp2235
g149
aVERR_peek_last_error_line_data
p2236
ag437
ag1596
aVPKCS7_stream
p2237
asVi2d_PKCS8PrivateKeyInfo_bio
p2238
(lp2239
g1439
aVi2d_X509_AUX
p2240
aVBIO_new_fp
p2241
ag1676
ag1677
asVX509V3_EXT_CRL_add_conf
p2242
(lp2243
g1214
ag480
ag1323
ag479
ag1885
asVCRYPTO_remove_all_info
p2244
(lp2245
g384
ag219
ag1077
ag261
aVASN1_bn_print
p2246
asVX509_STORE_get_by_subject
p2247
(lp2248
g430
ag635
ag617
ag1332
ag794
asVPEM_bytes_read_bio
p2249
(lp2250
g385
ag637
ag386
ag1126
ag460
asVENGINE_finish
p2251
(lp2252
VCMS_SignerInfo_verify_content
p2253
ag1733
aVint_err_set_item
p2254
ag2222
aVs2i_ASN1_IA5STRING
p2255
asVASN1_STRING_set_default_mask_asc
p2256
(lp2257
g1617
ag982
ag355
aVa2i_IPADDRESS_NC
p2258
aVX509_cmp_time
p2259
asVERR_load_BUF_strings
p2260
(lp2261
g296
ag297
ag298
ag299
ag300
asVECDH_get_ex_data
p2262
(lp2263
g1048
ag1116
ag1046
ag2082
ag480
asVtls1_get_client_method
p2264
(lp2265
g761
ag762
ag763
ag764
ag765
asVSXNET_get_id_asc
p2266
(lp2267
g1213
ag627
ag1706
ag628
aVTS_CONF_load_certs
p2268
asVEVP_CIPHER_type
p2269
(lp2270
VRSA_padding_check_SSLv23
p2271
ag1921
ag1559
ag641
ag1691
asVX509_ATTRIBUTE_create
p2272
(lp2273
Vec_GF2m_simple_point_get_affine_coordinates
p2274
aV_CONF_new_section
p2275
ag1048
ag467
ag1213
asVENGINE_set_default_ECDH
p2276
(lp2277
g1168
ag1172
aVENGINE_set_default_DSA
p2278
ag1169
ag1170
asVPKCS12_MAKE_SHKEYBAG
p2279
(lp2280
VASN1_verify
p2281
ag1054
ag1115
ag751
ag1336
asVdlfcn_name_converter
p2282
(lp2283
VTS_CONF_set_default_engine
p2284
ag121
ag1633
aVCRYPTO_is_mem_check_on
p2285
aVCRYPTO_get_new_dynlockid
p2286
asVBN_GF2m_mod_inv_arr
p2287
(lp2288
g1885
ag2165
aVdo_pk8pkey
p2289
ag1074
ag2133
asVi2d_PUBKEY
p2290
(lp2291
g600
aVEVP_PKEY2PKCS8_broken
p2292
aVTS_RESP_CTX_add_md
p2293
ag1336
ag1115
asVX509at_get_attr_by_NID
p2294
(lp2295
g502
ag503
ag504
ag505
ag506
asVSSL_shutdown
p2296
(lp2297
VSSL_peek
p2298
ag2124
ag285
ag1978
ag765
asVSSL_use_RSAPrivateKey_ASN1
p2299
(lp2300
g181
ag673
ag213
ag751
ag184
asVBIO_push
p2301
(lp2302
g589
ag588
ag1312
ag373
ag51
asVX509_NAME_ENTRY_create_by_NID
p2303
(lp2304
g561
ag559
ag238
ag609
ag498
asVASN1_TYPE_set1
p2305
(lp2306
g669
ag1229
ag1230
ag129
ag755
asVRAND_seed
p2307
(lp2308
g999
ag1406
ag588
ag408
ag998
asVdtls1_send_change_cipher_spec
p2309
(lp2310
g27
ag30
ag1267
ag497
ag1203
asVSSL_CTX_SRP_CTX_init
p2311
(lp2312
VSSL_SRP_CTX_free
p2313
ag320
ag321
aVX509_EXTENSION_set_critical
p2314
aVdef_destroy_data
p2315
asVPKCS12_item_pack_safebag
p2316
(lp2317
VPKCS12_pack_p7data
p2318
ag1054
ag2292
aVPKCS12_init
p2319
aVssl3_get_cert_status
p2320
asVX509V3_EXT_add_nconf
p2321
(lp2322
g1702
ag1703
ag1704
ag1705
ag1706
asVCRYPTO_get_ex_new_index
p2323
(lp2324
VCRYPTO_malloc
p2325
aVCRYPTO_malloc_locked
p2326
ag416
ag174
aVRAND_load_file
p2327
asVi2d_EC_PUBKEY
p2328
(lp2329
g449
ag312
ag310
ag1047
ag751
asVX509_NAME_get_text_by_NID
p2330
(lp2331
g1972
aVbuffer_write.part.0
p2332
aVDES_enc_write
p2333
ag428
ag427
asVCRYPTO_pop_info
p2334
(lp2335
g200
aVint_engine_module_init
p2336
ag1364
ag1075
aVec_GF2m_simple_cmp
p2337
asVload_builtin_compressions
p2338
(lp2339
g1377
ag1378
ag1160
ag662
ag1379
asVdtls1_dispatch_alert
p2340
(lp2341
g1087
ag30
ag27
ag63
ag259
asVASN1_item_d2i_fp
p2342
(lp2343
g181
ag182
ag184
ag183
ag185
asVEC_GROUP_cmp
p2344
(lp2345
g460
ag393
ag391
ag392
ag962
asVOBJ_txt2obj
p2346
(lp2347
g176
aVENGINE_ctrl_cmd_string
p2348
ag2118
ag1983
aVX509_STORE_CTX_get1_issuer
p2349
asVssl3_connect
p2350
(lp2351
Vdtls1_connect
p2352
aVcms_SignedData_init_bio
p2353
ag260
ag1579
ag2169
asVSSL_get_finished
p2354
(lp2355
VSSL_get_peer_finished
p2356
aVRAND_set_rand_method
p2357
ag537
aVX509_policy_level_node_count
p2358
aVEC_POINT_free
p2359
asVDSO_load
p2360
(lp2361
g1357
ag894
ag1828
ag438
ag610
asVERR_load_TS_strings
p2362
(lp2363
g296
ag297
ag298
ag299
ag300
asVOBJ_ln2nid
p2364
(lp2365
g43
ag687
ag1641
ag1786
ag428
asVX509_issuer_and_serial_cmp
p2366
(lp2367
VX509_NAME_cmp
p2368
aVX509_signature_dump
p2369
ag611
ag258
ag531
asVint_engine_module_init
p2370
(lp2371
g384
ag561
ag851
ag387
ag758
asVaesni_cbc_sha1_enc_ssse3
p2372
(lp2373
g1052
ag1053
ag1054
ag1055
ag1056
asVcamellia_128_cfb128_cipher
p2374
(lp2375
g1130
ag1131
ag1132
ag1133
ag1134
asVASN1_item_i2d_fp
p2376
(lp2377
VASN1_item_i2d_bio
p2378
ag629
ag628
ag673
ag630
asVPKCS7_add_recipient
p2379
(lp2380
VSSL_CTX_new
p2381
ag310
ag311
aVCMS_add1_recipient_cert
p2382
aVEC_KEY_check_key
p2383
asVsk_pop_free
p2384
(lp2385
g44
ag530
ag356
ag1275
ag1229
asVX509_ATTRIBUTE_get0_data
p2386
(lp2387
g485
ag1482
aVmd_write
p2388
ag893
ag208
asVcheck_defer
p2389
(lp2390
g1969
aVEC_EX_DATA_clear_free_data
p2391
aVEC_EX_DATA_free_data
p2392
aVssl23_read_bytes
p2393
ag104
asVX509_STORE_add_cert
p2394
(lp2395
g2017
ag1160
ag2018
ag201
ag1377
asVENGINE_set_default_RAND
p2396
(lp2397
g1168
ag1172
ag2278
ag1169
ag1170
asVENGINE_register_ECDSA
p2398
(lp2399
g1168
ag1169
ag1170
ag1171
ag1172
asVCMS_is_detached
p2400
(lp2401
g903
ag907
ag104
ag904
ag1790
asVX509_NAME_get_index_by_NID
p2402
(lp2403
g502
ag503
ag504
aVssl3_do_write
p2404
ag505
asVBN_num_bits
p2405
(lp2406
Vssl_add_serverhello_tlsext
p2407
aVERR_put_error
p2408
ag330
ag77
ag1840
asVX509_check_purpose
p2409
(lp2410
g695
ag694
ag2120
ag2119
ag755
asVX509V3_add_value_bool_nf
p2411
(lp2412
g893
ag1828
ag1807
ag1478
ag1033
asVBN_GF2m_mod_arr
p2413
(lp2414
g1445
ag444
ag2259
ag641
ag991
asVOCSP_resp_find_status
p2415
(lp2416
g129
ag1229
ag1230
aVadd_cert_dir.isra.0
p2417
ag13
asVRAND_bytes
p2418
(lp2419
g1406
ag999
ag998
ag1853
ag588
asVd2i_ECParameters
p2420
(lp2421
g201
ag578
aVcms_EnvelopedData_init_bio
p2422
ag1809
ag191
asVi2s_ASN1_INTEGER
p2423
(lp2424
Vi2s_ASN1_ENUMERATED
p2425
aVX509_EXTENSION_create_by_NID
p2426
ag600
aVDSO_set_filename
p2427
aVdlfcn_bind_var
p2428
asVEVP_PBE_alg_add_type
p2429
(lp2430
VOBJ_add_sigid
p2431
ag2211
ag1553
ag673
aVHMAC
p2432
asVRC2_cfb64_encrypt
p2433
(lp2434
g1786
ag146
ag147
aVDES_ede3_cfb64_encrypt
p2435
ag965
asVb64_callback_ctrl
p2436
(lp2437
g717
ag718
ag719
ag720
ag721
asVi2d_PKCS8PrivateKeyInfo_fp
p2438
(lp2439
g1439
ag2240
ag2241
ag1676
ag1677
asVpkey_dh_keygen
p2440
(lp2441
g955
ag956
ag957
ag958
ag959
asVSSL_SESSION_get_timeout
p2442
(lp2443
g69
ag70
ag71
ag72
ag73
asVCMS_get0_RecipientInfos
p2444
(lp2445
g1429
ag1240
ag1541
aVpkey_hmac_keygen
p2446
aVEVP_add_cipher
p2447
asVaesni_ccm_init_key
p2448
(lp2449
g2205
ag41
ag1691
ag360
ag1275
asVGENERAL_NAME_set0_othername
p2450
(lp2451
VX509_NAME_get_text_by_NID
p2452
aVTS_RESP_CTX_set_status_info_cond
p2453
ag1209
ag1210
aVlh_stats
p2454
asVSSL_CTX_get_timeout
p2455
(lp2456
g69
ag70
ag71
ag72
ag73
asVX509_keyid_set1
p2457
(lp2458
g944
ag30
ag945
ag499
ag946
asVCRYPTO_remalloc
p2459
(lp2460
g174
aVec_GFp_nist_field_mul
p2461
ag2325
ag2326
ag676
asVBN_mod_exp
p2462
(lp2463
g1351
ag1352
ag66
aVBN_mod_exp_simple
p2464
aVASN1_item_ex_i2d
p2465
asVDES_encrypt2
p2466
(lp2467
V_x86_64_AES_encrypt_compact
p2468
ag520
aV_x86_64_AES_encrypt
p2469
aV_x86_64_AES_decrypt
p2470
aVripemd160_block_data_order
p2471
asVdes_ofb_cipher
p2472
(lp2473
Videa_ofb_cipher
p2474
aVcast5_ofb_cipher
p2475
aVseed_ofb_cipher
p2476
aVbf_ofb_cipher
p2477
aVcamellia_256_ofb_cipher
p2478
asVX509_EXTENSION_create_by_OBJ
p2479
(lp2480
g1667
ag1595
ag1444
aVbio_read
p2481
ag430
asVd2i_PUBKEY
p2482
(lp2483
g251
ag253
aVeckey_param_print
p2484
ag1160
ag662
asVaesni_init_key
p2485
(lp2486
g1020
ag1229
ag1230
ag643
aVwrite_pending
p2487
asVX509V3_EXT_get
p2488
(lp2489
g888
ag889
ag1773
ag414
aVSRP_Calc_u
p2490
asVSSLeay_version
p2491
(lp2492
Vbn_expand_internal
p2493
aVCRYPTO_set_mem_functions
p2494
ag1612
ag445
ag641
asVCONF_modules_unload
p2495
(lp2496
g2133
aVi2r_crldp
p2497
ag409
aVrsa_pub_print
p2498
ag1406
asVERR_load_X509V3_strings
p2499
(lp2500
g296
ag297
ag298
ag299
ag300
asVSSL_accept
p2501
(lp2502
g1937
ag858
ag1249
ag494
ag366
asVCRYPTO_gcm128_new
p2503
(lp2504
g1367
ag372
ag1596
ag42
ag437
asVSSL_use_RSAPrivateKey_file
p2505
(lp2506
g1160
ag1378
ag1377
ag1724
ag1925
asVASN1_primitive_free
p2507
(lp2508
g28
aVasn1_print_fsname.isra.4
p2509
ag1039
ag259
ag8
asVdef_init_default
p2510
(lp2511
g319
ag320
ag321
ag322
ag323
asVssl_get_ciphers_by_id
p2512
(lp2513
g1952
ag2094
ag2062
ag246
ag2061
asVCRYPTO_mem_leaks
p2514
(lp2515
Vengine_table_select
p2516
ag200
ag1364
ag2336
ag1266
asVUI_method_get_opener
p2517
(lp2518
g69
ag70
ag71
ag72
ag73
asVBN_nnmod
p2519
(lp2520
VBN_mod_sub_quick
p2521
ag1262
aVpkey_hmac_init
p2522
aVX509_PURPOSE_set
p2523
aVSSL_set_cipher_list
p2524
asVERR_put_error
p2525
(lp2526
g1644
ag330
aVBN_bn2hex
p2527
ag1283
ag1243
asVdh_param_print
p2528
(lp2529
Vdh_public_print
p2530
ag1313
aVRSA_eay_public_encrypt
p2531
ag2017
ag1026
asVssl_get_server_send_cert
p2532
(lp2533
g1840
ag2098
ag94
ag573
ag1155
asVssl3_pending
p2534
(lp2535
g305
ag307
ag284
ag812
ag1233
asVCRYPTO_cleanup_all_ex_data
p2536
(lp2537
g2209
ag2210
ag803
ag416
ag2211
asVX509_PURPOSE_set
p2538
(lp2539
g688
ag694
ag417
ag695
ag696
asVSSL_get_certificate
p2540
(lp2541
g1578
ag1840
ag1444
ag1221
ag94
asVssl_cert_dup
p2542
(lp2543
g740
ag743
ag365
ag484
ag988
asVASN1_TIME_to_generalizedtime
p2544
(lp2545
g560
ag1026
ag1802
ag1803
ag457
asVCamellia_ecb_encrypt
p2546
(lp2547
VSEED_ecb_encrypt
p2548
aVEVP_CipherUpdate
p2549
aVEVP_CipherFinal
p2550
aVEVP_CipherFinal_ex
p2551
ag718
asVBUF_MEM_new
p2552
(lp2553
g1101
ag1102
ag400
ag397
ag1103
asVlh_num_items
p2554
(lp2555
g69
ag70
ag71
ag72
ag73
asVX509_VERIFY_PARAM_inherit
p2556
(lp2557
g1444
ag793
ag1578
ag1922
ag1156
asVENGINE_set_default_DH
p2558
(lp2559
g1168
ag1172
ag2278
ag1169
ag1170
asVMD4_Final
p2560
(lp2561
g1316
ag2259
ag78
ag1069
aVRC2_set_key
p2562
asVBN_mod_mul
p2563
(lp2564
Vtls1_P_hash.constprop.2
p2565
aVSRP_Calc_client_key
p2566
aVecdsa_do_sign
p2567
aVec_GF2m_simple_add
p2568
ag1450
asVn_ssl3_mac
p2569
(lp2570
VPKCS5_PBKDF2_HMAC
p2571
aVssl3_cbc_digest_record
p2572
ag699
aVRSA_padding_add_PKCS1_PSS_mgf1
p2573
ag1306
asVASN1_ENUMERATED_get
p2574
(lp2575
VASN1_INTEGER_get
p2576
aVlong_c2i
p2577
aVEVP_EncodeBlock
p2578
ag2259
aVASN1_ENUMERATED_set
p2579
asVX509_VERIFY_PARAM_add0_table
p2580
(lp2581
g480
ag2211
ag485
ag466
ag405
asVEVP_CIPHER_asn1_to_param
p2582
(lp2583
g944
ag754
ag59
ag755
ag756
asVDSO_get_loaded_filename
p2584
(lp2585
VDSO_get_filename
p2586
ag270
aVX509_policy_node_get0_policy
p2587
ag271
ag69
asVSSL_CTX_set_session_id_context
p2588
(lp2589
g1068
ag1069
ag1070
ag330
ag1071
asVBIO_indent
p2590
(lp2591
g1202
ag611
ag259
aVX509_ATTRIBUTE_create_by_OBJ
p2592
aVpkey_dsa_ctrl
p2593
asVX509at_add1_attr_by_NID
p2594
(lp2595
g310
ag313
ag311
ag664
ag312
asVSSL_CTX_use_RSAPrivateKey_file
p2596
(lp2597
g1378
ag1160
ag1724
ag1377
ag251
asVEVP_PKEY_set1_EC_KEY
p2598
(lp2599
g125
ag155
ag127
ag156
ag157
asVENGINE_init
p2600
(lp2601
g650
aVSSL_use_RSAPrivateKey_file
p2602
aVCRYPTO_pop_info
p2603
ag2164
ag2165
asVPKCS5_pbe_set
p2604
(lp2605
Vdh_priv_encode
p2606
ag451
ag1419
ag1116
ag751
asVDES_set_key_checked
p2607
(lp2608
g2160
ag460
aVBN_gcd
p2609
aVec_GFp_simple_group_check_discriminant
p2610
ag2161
asVd2i_AutoPrivateKey
p2611
(lp2612
g1137
ag561
ag593
ag559
ag1267
asVssl2_return_error
p2613
(lp2614
Vssl2_write_error
p2615
ag373
ag370
ag589
ag1312
asVssl_add_clienthello_use_srtp_ext
p2616
(lp2617
VERR_add_error_vdata
p2618
ag64
ag1595
ag797
ag634
asVssl3_init_finished_mac
p2619
(lp2620
g2065
ag484
ag833
ag365
ag366
asVint_free_ex_data
p2621
(lp2622
g851
ag757
aVEVP_PKEY_asn1_find_str
p2623
ag850
ag2133
asVssl3_peek
p2624
(lp2625
Vssl3_get_certificate_request
p2626
ag149
ag2237
ag2236
ag437
asVX509_NAME_ENTRY_create_by_OBJ
p2627
(lp2628
g946
ag2592
ag30
ag29
ag27
asVX509V3_EXT_add_alias
p2629
(lp2630
g1363
ag1364
ag922
ag349
ag1775
asVssl2_get_cipher
p2631
(lp2632
g2087
ag2088
ag303
ag2089
ag2090
asVBN_bn2bin
p2633
(lp2634
Vvpaes_cbc_encrypt
p2635
aVSSL_ctrl
p2636
aVERR_unload_strings
p2637
aVbn_sub_words
p2638
ag1485
asVssl_get_handshake_digest
p2639
(lp2640
g768
ag303
aVBN_clear_bit
p2641
ag304
ag2635
asVBN_GF2m_mod_solve_quad
p2642
(lp2643
g76
ag77
ag1283
ag1317
ag699
asVBIO_asn1_get_prefix
p2644
(lp2645
g1871
ag1872
ag1873
ag1874
ag1875
asVEVP_CIPHER_CTX_new
p2646
(lp2647
g396
ag397
ag398
ag399
ag400
asVX509_NAME_add_entry_by_OBJ
p2648
(lp2649
VEC_POINT_bn2point
p2650
aVEC_POINT_point2bn
p2651
aVBN_GF2m_mod_sqrt_arr
p2652
ag2274
aVX509V3_extensions_print
p2653
asVc2i_ASN1_OBJECT
p2654
(lp2655
g794
ag617
ag1998
ag1659
ag196
asVENGINE_set_default_ECDSA
p2656
(lp2657
g1168
ag1172
ag2278
ag1169
ag1170
asVEVP_CIPHER_CTX_set_key_length
p2658
(lp2659
g905
ag1146
aVEC_POINT_add
p2660
aVEVP_PKEY_verify
p2661
ag49
asVBIO_number_written
p2662
(lp2663
g69
ag70
ag71
ag72
ag73
asVX509_STORE_free
p2664
(lp2665
g834
ag1948
ag786
ag2650
aVX509_REQ_add_extensions_nid
p2666
asVCRYPTO_gcm128_tag
p2667
(lp2668
VWHIRLPOOL_BitUpdate
p2669
ag1280
aVidea_set_decrypt_key
p2670
ag1622
ag516
asVBN_mod_lshift
p2671
(lp2672
g651
ag652
aVec_GF2m_simple_invert
p2673
ag1672
ag2368
asVSSL_use_certificate_ASN1
p2674
(lp2675
g2101
ag1338
ag1891
ag957
ag2102
asVcms_SignedData_final
p2676
(lp2677
g1270
ag748
ag2422
aVRSA_verify_ASN1_OCTET_STRING
p2678
aVecdh_compute_key
p2679
asVssl3_get_key_exchange
p2680
(lp2681
g1081
ag1265
ag498
ag155
ag873
asVSSL_get_privatekey
p2682
(lp2683
g271
ag270
aVRSA_flags
p2684
ag69
ag70
asVssl23_read
p2685
(lp2686
g649
ag650
ag651
ag652
ag49
asVOCSP_response_status_str
p2687
(lp2688
g581
aVRSA_X931_hash_id
p2689
ag583
ag582
ag139
asVX509_EXTENSION_create_by_NID
p2690
(lp2691
g29
ag31
ag30
ag27
ag2592
asVSSL_get_srp_g
p2692
(lp2693
g69
ag70
ag71
ag72
ag73
asVERR_load_OCSP_strings
p2694
(lp2695
g296
ag297
ag298
ag299
ag300
asVERR_load_CMS_strings
p2696
(lp2697
g296
ag297
ag298
ag299
ag300
asVENGINE_cmd_is_executable
p2698
(lp2699
g982
ag1146
ag696
ag1912
ag2487
asVSSL_set_session_ticket_ext_cb
p2700
(lp2701
g319
ag322
ag323
ag898
ag899
asVSSL_get_srtp_profiles
p2702
(lp2703
g1952
ag2094
ag2062
ag246
ag2061
asVbn_mul_recursive
p2704
(lp2705
VCamellia_cbc_encrypt
p2706
ag79
ag443
ag699
ag2098
asVERR_load_BN_strings
p2707
(lp2708
g296
ag297
ag298
ag299
ag300
asVEVP_PBE_alg_add
p2709
(lp2710
g2497
ag485
ag1074
ag466
aVDSA_generate_key
p2711
asVX509_signature_print
p2712
(lp2713
g2119
ag216
ag2516
aVSMIME_crlf_copy
p2714
ag2118
asVSSL_get_srp_N
p2715
(lp2716
g69
ag70
ag71
ag72
ag73
asVEVP_DigestVerifyFinal
p2717
(lp2718
g2432
ag1572
ag2107
aVENGINE_get_pkey_asn1_meth
p2719
aVENGINE_get_cipher
p2720
asVenc_callback_ctrl
p2721
(lp2722
g717
ag718
ag719
ag720
ag721
asVERR_load_ASN1_strings
p2723
(lp2724
g296
ag297
ag298
ag299
ag300
asVX509_policy_tree_get0_policies
p2725
(lp2726
g69
ag70
ag71
ag72
ag73
asVNCONF_dump_fp
p2727
(lp2728
g555
ag1336
aVdlfcn_unload
p2729
ag1337
ag1891
as.