ccollections
defaultdict
p0
(c__builtin__
list
p1
tp2
Rp3
S'X509V3_NAME_from_section'
p4
(lp5
S'X509V3_NAME_from_section'
p6
asS'ec_GFp_simple_add'
p7
(lp8
S'ec_GFp_simple_add'
p9
asS'UI_get_string_type'
p10
(lp11
S'UI_get_string_type'
p12
asS'ec_GF2m_simple_point_get_affine_coordinates'
p13
(lp14
S'ec_GF2m_simple_point_get_affine_coordinates'
p15
asS'i2v_GENERAL_NAMES'
p16
(lp17
S'i2v_GENERAL_NAMES'
p18
asS'bn_sub_part_words'
p19
(lp20
S'bn_sub_part_words'
p21
asS'SHA512_Update'
p22
(lp23
S'SHA512_Update'
p24
asS'BN_mod_exp_recp'
p25
(lp26
S'BN_mod_exp_recp'
p27
asS'BN_MONT_CTX_new'
p28
(lp29
S'BN_MONT_CTX_new'
p30
asS'DH_check_pub_key'
p31
(lp32
S'DH_check_pub_key'
p33
asS'_CONF_new_section'
p34
(lp35
S'_CONF_new_section'
p36
asS'aes_init_key'
p37
(lp38
S'aes_init_key'
p39
asS'BN_uadd'
p40
(lp41
S'BN_uadd'
p42
asS'EC_GROUP_new_curve_GFp'
p43
(lp44
S'EC_GROUP_new_curve_GFp'
p45
asS'aes_256_ecb_cipher'
p46
(lp47
S'aes_256_ecb_cipher'
p48
asS'EC_POINT_dbl'
p49
(lp50
S'EC_POINT_dbl'
p51
asS'BN_mod_add_quick'
p52
(lp53
S'BN_mod_add_quick'
p54
aS'BN_mod_lshift1_quick'
p55
asS'BN_mod_lshift1_quick'
p56
(lp57
S'BN_mod_lshift1_quick'
p58
aS'BN_mod_add_quick'
p59
asS'ssl3_send_alert'
p60
(lp61
S'ssl3_send_alert'
p62
asS'BN_RECP_CTX_set'
p63
(lp64
S'BN_RECP_CTX_set'
p65
asS'EC_KEY_copy'
p66
(lp67
S'EC_KEY_copy'
p68
asS'BUF_MEM_free'
p69
(lp70
S'BUF_MEM_free'
p71
asS'ec_GF2m_montgomery_point_multiply.part.0'
p72
(lp73
S'ec_GF2m_montgomery_point_multiply.part.0'
p74
asS'long_i2c'
p75
(lp76
S'long_i2c'
p77
asS'BN_GF2m_add'
p78
(lp79
S'BN_GF2m_add'
p80
asS'i2d_ASN1_OBJECT'
p81
(lp82
S'i2d_ASN1_OBJECT'
p83
asS'i2d_ASN1_bytes'
p84
(lp85
S'i2d_ASN1_bytes'
p86
asS'_CONF_get_section'
p87
(lp88
S'_CONF_get_section'
p89
asS'lh_doall_arg'
p90
(lp91
S'lh_doall_arg'
p92
asS'write_string'
p93
(lp94
S'write_string'
p95
asS'X509_OBJECT_retrieve_match'
p96
(lp97
S'X509_OBJECT_retrieve_match'
p98
asS'tls1_enc'
p99
(lp100
S'tls1_enc'
p101
asS'MD2_Update'
p102
(lp103
S'MD2_Update'
p104
asS'i2c_ASN1_INTEGER'
p105
(lp106
S'i2c_ASN1_INTEGER'
p107
asS'ec_GFp_simple_is_on_curve'
p108
(lp109
S'ec_GFp_simple_is_on_curve'
p110
asS'BN_mod_sub_quick'
p111
(lp112
S'BN_mod_sub_quick'
p113
asS'ec_GF2m_simple_make_affine'
p114
(lp115
S'ec_GF2m_simple_make_affine'
p116
asS'PKCS7_add_signer'
p117
(lp118
S'PKCS7_add_signer'
p119
asS'BN_new'
p120
(lp121
S'BN_new'
p122
asS'ec_GFp_simple_make_affine'
p123
(lp124
S'ec_GFp_simple_make_affine'
p125
asS'ec_GFp_simple_get_Jprojective_coordinates_GFp'
p126
(lp127
S'ec_GFp_simple_get_Jprojective_coordinates_GFp'
p128
asS'BN_mod_word'
p129
(lp130
S'BN_mod_word'
p131
asS'sha256_block_data_order'
p132
(lp133
S'sha256_block_data_order'
p134
asS'DH_check'
p135
(lp136
S'DH_check'
p137
asS'check_issued'
p138
(lp139
S'check_issued'
p140
asS'EC_POINT_set_to_infinity'
p141
(lp142
S'EC_POINT_is_at_infinity'
p143
aS'EC_POINT_set_to_infinity'
p144
asS'des_ede_ecb_cipher'
p145
(lp146
S'des_ede_ecb_cipher'
p147
asS'ec_pre_comp_clear_free'
p148
(lp149
S'ec_pre_comp_clear_free'
p150
asS'X509at_get_attr_by_OBJ'
p151
(lp152
S'X509at_get_attr_by_OBJ'
p153
aS'X509v3_get_ext_by_OBJ'
p154
asS'ASN1_INTEGER_get'
p155
(lp156
S'ASN1_INTEGER_get'
p157
asS'CRYPTO_get_ex_data'
p158
(lp159
S'CRYPTO_get_ex_data'
p160
asS'md5_block_asm_data_order'
p161
(lp162
S'md5_block_asm_data_order'
p163
asS'_x86_64_AES_encrypt'
p164
(lp165
S'_x86_64_AES_encrypt'
p166
asS'X509_get_pubkey'
p167
(lp168
S'X509_get_pubkey'
p169
asS'bn_expand2'
p170
(lp171
S'bn_expand2'
p172
asS'BN_is_bit_set'
p173
(lp174
S'BN_is_bit_set'
p175
asS'BN_add'
p176
(lp177
S'BN_add'
p178
asS'def_destroy'
p179
(lp180
S'def_destroy'
p181
asS'AES_ecb_encrypt'
p182
(lp183
S'AES_ecb_encrypt'
p184
asS'BN_usub'
p185
(lp186
S'BN_usub'
p187
asS'ec_GF2m_simple_cmp'
p188
(lp189
S'ec_GF2m_simple_cmp'
p190
asS'idea_ecb_cipher'
p191
(lp192
S'idea_ecb_cipher'
p193
asS'DSA_sign'
p194
(lp195
S'DSA_sign'
p196
asS'EVP_PKEY_cmp_parameters'
p197
(lp198
S'EVP_PKEY_cmp_parameters'
p199
asS'AES_cfb128_encrypt'
p200
(lp201
S'AES_cfb128_encrypt'
p202
asS'trtable_free'
p203
(lp204
S'trtable_free'
p205
asS'ec_GFp_simple_points_make_affine'
p206
(lp207
S'ec_GFp_simple_points_make_affine'
p208
asS'EC_POINT_clear_free'
p209
(lp210
S'EC_POINT_clear_free'
p211
asS'bn_mul_normal'
p212
(lp213
S'bn_mul_normal'
p214
asS'str_copy'
p215
(lp216
S'str_copy'
p217
asS'ssl3_enc'
p218
(lp219
S'ssl3_enc'
p220
asS'SHA256_Update'
p221
(lp222
S'SHA256_Update'
p223
asS'X509v3_get_ext_by_OBJ'
p224
(lp225
S'X509at_get_attr_by_OBJ'
p226
aS'X509v3_get_ext_by_OBJ'
p227
asS'ERR_set_error_data'
p228
(lp229
S'ERR_set_error_data'
p230
asS'X509_OBJECT_retrieve_by_subject'
p231
(lp232
S'X509_OBJECT_retrieve_by_subject'
p233
asS'sk_value'
p234
(lp235
S'sk_value'
p236
aS'OPENSSL_sk_value'
p237
asS'EC_KEY_set_private_key'
p238
(lp239
S'EC_KEY_set_private_key'
p240
asS'asn1_do_adb'
p241
(lp242
S'asn1_do_adb'
p243
asS'EVP_CIPHER_CTX_cleanup'
p244
(lp245
S'EVP_CIPHER_CTX_cleanup'
p246
asS'X509_LOOKUP_ctrl'
p247
(lp248
S'X509_LOOKUP_ctrl'
p249
asS'trust_1oid'
p250
(lp251
S'trust_1oid'
p252
asS'BN_mod_exp_mont'
p253
(lp254
S'BN_mod_exp_mont'
p255
asS'BUF_MEM_grow'
p256
(lp257
S'BUF_MEM_grow'
p258
asS'ASN1_d2i_bio'
p259
(lp260
S'ASN1_d2i_bio'
p261
asS'EC_POINT_copy'
p262
(lp263
S'EC_POINT_copy'
p264
asS'X509_certificate_type'
p265
(lp266
S'X509_certificate_type'
p267
asS'bn_add_words'
p268
(lp269
S'bn_add_words'
p270
aS'bn_sub_words'
p271
asS'BN_RECP_CTX_free'
p272
(lp273
S'BN_RECP_CTX_free'
p274
asS'OBJ_cmp'
p275
(lp276
S'OBJ_cmp'
p277
asS'DES_ecb_encrypt'
p278
(lp279
S'DES_ecb_encrypt'
p280
asS'gf2m_Madd'
p281
(lp282
S'gf2m_Madd'
p283
asS'BN_gcd'
p284
(lp285
S'BN_gcd'
p286
asS'EC_POINT_set_affine_coordinates_GF2m'
p287
(lp288
S'EC_POINT_set_affine_coordinates_GF2m'
p289
aS'EC_POINT_get_affine_coordinates_GF2m'
p290
asS'AES_cfbr_encrypt_block'
p291
(lp292
S'AES_cfbr_encrypt_block'
p293
asS'EC_KEY_set_public_key'
p294
(lp295
S'EC_KEY_set_public_key'
p296
asS'EC_GROUP_have_precompute_mult'
p297
(lp298
S'EC_GROUP_have_precompute_mult'
p299
asS'OBJ_NAME_remove'
p300
(lp301
S'OBJ_NAME_remove'
p302
asS'RC2_decrypt'
p303
(lp304
S'RC2_decrypt'
p305
asS'free_string'
p306
(lp307
S'free_string'
p308
asS'BN_lshift'
p309
(lp310
S'BN_lshift'
p311
asS'ASN1_STRING_cmp'
p312
(lp313
S'ASN1_STRING_cmp'
p314
asS'tls1_setup_key_block'
p315
(lp316
S'tls1_setup_key_block'
p317
asS'OBJ_NAME_do_all'
p318
(lp319
S'OBJ_NAME_do_all'
p320
asS'gf2m_Mdouble'
p321
(lp322
S'gf2m_Mdouble'
p323
asS'ASN1_INTEGER_cmp'
p324
(lp325
S'ASN1_INTEGER_cmp'
p326
asS'X509_check_issued'
p327
(lp328
S'X509_check_issued'
p329
asS'obj_name_hash'
p330
(lp331
S'obj_name_LHASH_HASH'
p332
aS'obj_name_hash'
p333
asS'cast5_ecb_cipher'
p334
(lp335
S'cast5_ecb_cipher'
p336
asS'EVP_PKEY_size'
p337
(lp338
S'EVP_PKEY_size'
p339
asS'EC_EX_DATA_clear_free_data'
p340
(lp341
S'EC_EX_DATA_clear_free_data'
p342
asS'RSA_eay_finish'
p343
(lp344
S'RSA_eay_finish'
p345
asS'OCSP_single_get0_status'
p346
(lp347
S'OCSP_single_get0_status'
p348
asS'ssleay_rand_pseudo_bytes'
p349
(lp350
S'ssleay_rand_pseudo_bytes'
p351
asS'rc2_ecb_cipher'
p352
(lp353
S'rc2_ecb_cipher'
p354
aS'rc5_32_12_16_ecb_cipher'
p355
asS'X509_get0_pubkey_bitstr'
p356
(lp357
S'X509_get0_pubkey_bitstr'
p358
asS'EC_POINT_get_affine_coordinates_GF2m'
p359
(lp360
S'EC_POINT_set_affine_coordinates_GF2m'
p361
aS'EC_POINT_get_affine_coordinates_GF2m'
p362
asS'PKCS7_SIGNER_INFO_set'
p363
(lp364
S'PKCS7_SIGNER_INFO_set'
p365
asS'PEM_read_bio_ECPrivateKey'
p366
(lp367
S'PEM_read_ECPrivateKey'
p368
aS'PEM_read_bio_ECPrivateKey'
p369
asS'X509_INFO_free'
p370
(lp371
S'X509_INFO_free'
p372
asS'EVP_CIPHER_CTX_free'
p373
(lp374
S'EVP_CIPHER_CTX_free'
p375
asS'BN_rshift1'
p376
(lp377
S'BN_rshift1'
p378
asS'BN_MONT_CTX_free'
p379
(lp380
S'BN_MONT_CTX_free'
p381
asS'ec_GF2m_simple_mul'
p382
(lp383
S'ec_GF2m_simple_mul'
p384
asS'DES_ecb3_encrypt'
p385
(lp386
S'DES_ecb3_encrypt'
p387
asS'BN_sub'
p388
(lp389
S'BN_sub'
p390
asS'EC_KEY_free'
p391
(lp392
S'EC_KEY_free'
p393
asS'tree_find_sk'
p394
(lp395
S'tree_find_sk'
p396
asS'BN_MONT_CTX_set'
p397
(lp398
S'BN_MONT_CTX_set'
p399
asS'BN_CTX_start'
p400
(lp401
S'BN_CTX_start'
p402
asS'ec_GFp_simple_cmp'
p403
(lp404
S'ec_GFp_simple_cmp'
p405
asS'bn_add_part_words'
p406
(lp407
S'bn_add_part_words'
p408
asS'sk_delete'
p409
(lp410
S'sk_delete'
p411
asS'BIO_write'
p412
(lp413
S'BIO_write'
p414
asS'xptable_free'
p415
(lp416
S'xptable_free'
p417
asS'SXNET_get_id_INTEGER'
p418
(lp419
S'SXNET_get_id_INTEGER'
p420
asS'OCSP_id_issuer_cmp'
p421
(lp422
S'OCSP_id_issuer_cmp'
p423
asS'dh_finish'
p424
(lp425
S'dsa_finish'
p426
aS'dh_finish'
p427
asS'md2_block'
p428
(lp429
S'md2_block'
p430
asS'ec_GFp_simple_group_check_discriminant'
p431
(lp432
S'ec_GFp_simple_group_check_discriminant'
p433
asS'BN_set_negative'
p434
(lp435
S'BN_set_negative'
p436
asS'ERR_peek_last_error'
p437
(lp438
S'ERR_peek_last_error'
p439
asS'bn_mul_low_recursive'
p440
(lp441
S'bn_mul_low_recursive'
p442
asS'sk_num'
p443
(lp444
S'sk_num'
p445
aS'OPENSSL_sk_num'
p446
asS'BF_ecb_encrypt'
p447
(lp448
S'BF_ecb_encrypt'
p449
asS'int_cleanup_cb_LHASH_DOALL'
p450
(lp451
S'int_cleanup_cb_LHASH_DOALL'
p452
asS'BN_GF2m_mod_inv'
p453
(lp454
S'BN_GF2m_mod_inv'
p455
asS'buffer_free'
p456
(lp457
S'buffer_free'
p458
asS'sk_free'
p459
(lp460
S'sk_free'
p461
aS'ASN1_STRING_free'
p462
asS'X509_OBJECT_idx_by_subject'
p463
(lp464
S'X509_OBJECT_idx_by_subject'
p465
asS'BUF_strlcpy'
p466
(lp467
S'BUF_strlcpy'
p468
asS'ssl3_get_message'
p469
(lp470
S'ssl3_get_message'
p471
asS'X509_NAME_add_entry'
p472
(lp473
S'X509_NAME_add_entry'
p474
asS'X509V3_EXT_add_nconf_sk'
p475
(lp476
S'X509V3_EXT_add_nconf_sk'
p477
asS'X509V3_add1_i2d'
p478
(lp479
S'X509V3_add1_i2d'
p480
asS'BN_CTX_free'
p481
(lp482
S'BN_CTX_free'
p483
asS'sha512_block_data_order'
p484
(lp485
S'sha512_block_data_order'
p486
asS'UI_get0_output_string'
p487
(lp488
S'UI_get0_output_string'
p489
asS'ASN1_ENUMERATED_get'
p490
(lp491
S'ASN1_ENUMERATED_get'
p492
asS'X509v3_get_ext_by_critical'
p493
(lp494
S'X509v3_get_ext_by_critical'
p495
asS'DSA_SIG_free'
p496
(lp497
S'DSA_SIG_free'
p498
asS'X509_NAME_delete_entry'
p499
(lp500
S'X509_NAME_delete_entry'
p501
asS'ASN1_TIME_set'
p502
(lp503
S'ASN1_TIME_set'
p504
asS'BN_lshift1'
p505
(lp506
S'BN_lshift1'
p507
asS'i2d_ASN1_BOOLEAN'
p508
(lp509
S'i2d_ASN1_BOOLEAN'
p510
asS'X509_VERIFY_PARAM_set1_name'
p511
(lp512
S'X509_VERIFY_PARAM_set1_name'
p513
asS'bn_cmp_words'
p514
(lp515
S'bn_cmp_words'
p516
asS'aes_192_ecb_cipher'
p517
(lp518
S'aes_192_ecb_cipher'
p519
aS'aes_128_ecb_cipher'
p520
asS'ec_GF2m_simple_is_on_curve'
p521
(lp522
S'ec_GF2m_simple_is_on_curve'
p523
asS'X509_pubkey_digest'
p524
(lp525
S'X509_pubkey_digest'
p526
asS'BN_sub_word'
p527
(lp528
S'BN_sub_word'
p529
asS'EC_POINT_free'
p530
(lp531
S'EC_POINT_free'
p532
asS'lh_free'
p533
(lp534
S'lh_free'
p535
asS'BN_mod_lshift_quick'
p536
(lp537
S'BN_mod_lshift_quick'
p538
asS'bn_sub_words'
p539
(lp540
S'bn_add_words'
p541
aS'bn_sub_words'
p542
asS'ripemd160_block_data_order'
p543
(lp544
S'ripemd160_block_data_order'
p545
asS'AES_set_encrypt_key'
p546
(lp547
S'AES_set_encrypt_key'
p548
asS'MD5_Update'
p549
(lp550
S'MD5_Update'
p551
asS'CRYPTO_free'
p552
(lp553
S'CRYPTO_free'
p554
asS'_CONF_add_string'
p555
(lp556
S'_CONF_add_string'
p557
asS'ASN1_item_d2i_bio'
p558
(lp559
S'ASN1_item_d2i_bio'
p560
asS'ssl3_get_server_done'
p561
(lp562
S'ssl3_get_server_done'
p563
asS'EC_POINT_is_at_infinity'
p564
(lp565
S'EC_POINT_is_at_infinity'
p566
aS'EC_POINT_set_to_infinity'
p567
asS'i2c_ASN1_BIT_STRING'
p568
(lp569
S'i2c_ASN1_BIT_STRING'
p570
asS'BN_exp'
p571
(lp572
S'BN_exp'
p573
asS'ec_GFp_nist_field_sqr'
p574
(lp575
S'ec_GFp_nist_field_sqr'
p576
asS'BN_mod_sqr'
p577
(lp578
S'BN_mod_sqr'
p579
asS'obj_name_cmp'
p580
(lp581
S'obj_name_LHASH_COMP'
p582
aS'obj_name_cmp'
p583
asS'BN_ucmp'
p584
(lp585
S'BN_ucmp'
p586
asS'BN_mod_mul_montgomery'
p587
(lp588
S'BN_mod_mul_montgomery'
p589
asS'ASN1_PRINTABLE_type'
p590
(lp591
S'ASN1_PRINTABLE_type'
p592
asS'idea_ofb64_encrypt'
p593
(lp594
S'idea_ofb64_encrypt'
p595
aS'IDEA_ofb64_encrypt'
p596
asS'RC2_ecb_encrypt'
p597
(lp598
S'RC2_ecb_encrypt'
p599
aS'RC5_32_ecb_encrypt'
p600
asS'CAST_ecb_encrypt'
p601
(lp602
S'CAST_ecb_encrypt'
p603
asS'BN_BLINDING_free'
p604
(lp605
S'BN_BLINDING_free'
p606
asS'ec_GFp_simple_set_compressed_coordinates'
p607
(lp608
S'ec_GFp_simple_set_compressed_coordinates'
p609
asS'bn_sqr_recursive'
p610
(lp611
S'bn_sqr_recursive'
p612
asS'BN_CTX_new'
p613
(lp614
S'BN_CTX_new'
p615
asS'X509_NAME_get_entry'
p616
(lp617
S'X509_NAME_get_entry'
p618
asS'buffer_ctrl'
p619
(lp620
S'buffer_ctrl'
p621
asS'X509_time_adj'
p622
(lp623
S'X509_time_adj'
p624
asS'def_load_bio'
p625
(lp626
S'def_load_bio'
p627
asS'BN_CTX_get'
p628
(lp629
S'BN_CTX_get'
p630
asS'bf_ecb_cipher'
p631
(lp632
S'bf_ecb_cipher'
p633
asS'PEM_read_ECPrivateKey'
p634
(lp635
S'PEM_read_ECPrivateKey'
p636
aS'PEM_read_bio_ECPrivateKey'
p637
asS'lh_strhash'
p638
(lp639
S'lh_strhash'
p640
asS'X509V3_conf_free'
p641
(lp642
S'X509V3_conf_free'
p643
asS'ASN1_STRING_set0'
p644
(lp645
S'ASN1_STRING_set0'
p646
asS'BN_mul'
p647
(lp648
S'BN_mul'
p649
asS'ECDSA_size'
p650
(lp651
S'ECDSA_size'
p652
asS'SHA_Update'
p653
(lp654
S'SHA_Update'
p655
asS'EC_GROUP_get_order'
p656
(lp657
S'EC_GROUP_get_order'
p658
asS'd2i_ocsp_nonce'
p659
(lp660
S'd2i_ocsp_nonce'
p661
asS'EC_EX_DATA_set_data'
p662
(lp663
S'EC_EX_DATA_set_data'
p664
asS'BN_mul_word'
p665
(lp666
S'BN_mul_word'
p667
asS'idea_ecb_encrypt'
p668
(lp669
S'idea_ecb_encrypt'
p670
aS'IDEA_ecb_encrypt'
p671
asS'idea_encrypt'
p672
(lp673
S'idea_encrypt'
p674
aS'IDEA_encrypt'
p675
asS'ssl_check_serverhello_tlsext'
p676
(lp677
S'ssl_check_serverhello_tlsext'
p678
asS'ASN1_put_object'
p679
(lp680
S'ASN1_put_object'
p681
asS'ASN1_item_digest'
p682
(lp683
S'ASN1_item_digest'
p684
asS'ec_GF2m_simple_group_set_curve'
p685
(lp686
S'ec_GF2m_simple_group_set_curve'
p687
asS'asn1_ex_i2c'
p688
(lp689
S'asn1_ex_i2c'
p690
asS'SHA384_Update'
p691
(lp692
S'SHA512_Update'
p693
asS'DSA_size'
p694
(lp695
S'DSA_size'
p696
asS'BN_GF2m_poly2arr'
p697
(lp698
S'BN_GF2m_poly2arr'
p699
asS'BN_cmp'
p700
(lp701
S'BN_cmp'
p702
asS'obj_trust'
p703
(lp704
S'obj_trust'
p705
asS'BN_num_bits_word'
p706
(lp707
S'BN_num_bits_word'
p708
asS'def_load'
p709
(lp710
S'def_load'
p711
asS'i2s_ASN1_ENUMERATED_TABLE'
p712
(lp713
S'i2s_ASN1_ENUMERATED_TABLE'
p714
asS'BN_CTX_end'
p715
(lp716
S'BN_CTX_end'
p717
asS'ec_GFp_simple_dbl'
p718
(lp719
S'ec_GFp_simple_dbl'
p720
asS'app_info_free'
p721
(lp722
S'app_info_free'
p723
asS'X509_NAME_ENTRY_set_data'
p724
(lp725
S'X509_NAME_ENTRY_set_data'
p726
asS'ASN1_object_size'
p727
(lp728
S'ASN1_object_size'
p729
asS'OCSP_resp_find'
p730
(lp731
S'OCSP_resp_find'
p732
asS'bn_mul_low_normal'
p733
(lp734
S'bn_mul_low_normal'
p735
asS'des_ecb_cipher'
p736
(lp737
S'des_ecb_cipher'
p738
asS'ASN1_STRING_free'
p739
(lp740
S'sk_free'
p741
aS'ASN1_STRING_free'
p742
asS'RC2_encrypt'
p743
(lp744
S'RC2_encrypt'
p745
asS'sha_block_data_order'
p746
(lp747
S'sha_block_data_order'
p748
asS'EC_EX_DATA_free_data'
p749
(lp750
S'EC_EX_DATA_free_data'
p751
asS'UI_process'
p752
(lp753
S'UI_process'
p754
asS'BN_mod_exp_mont_word'
p755
(lp756
S'BN_mod_exp_mont_word'
p757
asS'X509_NAME_get_index_by_OBJ'
p758
(lp759
S'X509_NAME_get_index_by_OBJ'
p760
asS'BN_free'
p761
(lp762
S'BN_free'
p763
asS'CRYPTO_malloc'
p764
(lp765
S'CRYPTO_malloc'
p766
asS'dsa_finish'
p767
(lp768
S'dsa_finish'
p769
aS'dh_finish'
p770
asS'add_hash'
p771
(lp772
S'add_hash'
p773
aS'added_obj_LHASH_HASH'
p774
asS'ec_GF2m_simple_group_copy'
p775
(lp776
S'ec_GF2m_simple_group_copy'
p777
asS'aes_128_ecb_cipher'
p778
(lp779
S'aes_192_ecb_cipher'
p780
aS'aes_128_ecb_cipher'
p781
asS'BN_rshift'
p782
(lp783
S'BN_rshift'
p784
asS'X509_STORE_set_default_paths'
p785
(lp786
S'X509_STORE_set_default_paths'
p787
asS'ec_GF2m_simple_add'
p788
(lp789
S'ec_GF2m_simple_add'
p790
asS'BIO_gets'
p791
(lp792
S'BIO_gets'
p793
asS'X509_PKEY_free'
p794
(lp795
S'X509_PKEY_free'
p796
asS'X509_STORE_load_locations'
p797
(lp798
S'X509_STORE_load_locations'
p799
asS'EVP_PKEY_type'
p800
(lp801
S'EVP_PKEY_type'
p802
asS'RIPEMD160_Update'
p803
(lp804
S'RIPEMD160_Update'
p805
asS'MD2_Final'
p806
(lp807
S'MD2_Final'
p808
asS'free_dir'
p809
(lp810
S'free_dir'
p811
asS'AES_ofb128_encrypt'
p812
(lp813
S'AES_ofb128_encrypt'
p814
asS'EC_EX_DATA_free_all_data'
p815
(lp816
S'EC_EX_DATA_free_all_data'
p817
asS'ec_pre_comp_free'
p818
(lp819
S'ec_pre_comp_free'
p820
asS'policy_cache_find_data'
p821
(lp822
S'policy_cache_find_data'
p823
asS'EVP_PKEY_bits'
p824
(lp825
S'EVP_PKEY_bits'
p826
asS'ssl3_cleanup_key_block'
p827
(lp828
S'ssl3_cleanup_key_block'
p829
asS'BN_clear_free'
p830
(lp831
S'BN_clear_free'
p832
asS'ERR_peek_error'
p833
(lp834
S'ERR_peek_error'
p835
asS'BN_sqr'
p836
(lp837
S'BN_sqr'
p838
asS'trust_1oidany'
p839
(lp840
S'trust_1oidany'
p841
as.