(lp0
S'ngx_create_paths'
p1
aS'ngx_http_fastcgi_create_request'
p2
aS'ngx_create_temp_buf'
p3
aS'ngx_array_create'
p4
aS'ngx_resolver_send_query'
p5
aS'ngx_escape_uri'
p6
aS'ngx_crc32_short'
p7
aS'ngx_http_send_header'
p8
aS'ngx_destroy_pool'
p9
aS'ngx_time_init'
p10
aS'ngx_mail_core_listen'
p11
aS'ngx_log_error_core'
p12
aS'ngx_http_map_uri_to_path'
p13
aS'ngx_single_process_cycle'
p14
aS'ngx_strncasecmp'
p15
aS'ngx_hash_keys_array_init'
p16
aS'ngx_count_modules'
p17
aS'ngx_sort'
p18
aS'ngx_os_init'
p19
aS'ngx_radix_tree_create'
p20
aS'ngx_resolve_name_locked'
p21
aS'ngx_http_uwsgi_create_request'
p22
aS'BIO_new_file'
p23
aS'ngx_ptocidr'
p24
aS'ngx_http_output_filter'
p25
aS'ngx_log_stderr'
p26
aS'ngx_create_pool'
p27
aS'ngx_pcalloc'
p28
aS'ngx_atoi'
p29
aS'ngx_http_auth_basic_close'
p30
aS'main'
p31
aS'ngx_http_uwsgi_init_params.isra.4'
p32
aS'ngx_http_scgi_init_params.isra.3'
p33
aS'ngx_hash_find'
p34
aS'ngx_reset_pool'
p35
aS'ngx_strnstr'
p36
aS'ngx_resolver_export'
p37
aS'ngx_open_dir'
p38
aS'ngx_parse_size'
p39
aS'r2i_pci'
p40
aS'def_load'
p41
aS'ngx_crc32_table_init'
p42
aS'ngx_sprintf'
p43
aS'ngx_http_log_gzip'
p44
aS'ngx_read_file'
p45
aS'ngx_http_geo_value.isra.4'
p46
aS'ngx_http_scgi_create_request'
p47
aS'ngx_conf_log_error'
p48
aS'ngx_resolver_resolve_srv_names'
p49
aS'ngx_clone_listening'
p50
aS'ngx_hash_add_key'
p51
aS'ngx_http_script_flush_no_cacheable_variables'
p52
aS'ngx_http_autoindex_json.isra.1'
p53
aS'ngx_http_block'
p54
aS'ngx_os_status'
p55
aS'ngx_http_fastcgi_process_header'
p56
aS'ngx_http_mp4_crop_stss_data.isra.4'
p57
aS'ngx_init_signals'
p58
aS'ngx_http_mp4_read_atom'
p59
aS'ngx_http_geo_cidr_add'
p60
aS'ngx_http_range_header_filter'
p61
aS'ngx_resolver_process_srv'
p62
aS'ngx_inet_addr'
p63
aS'ngx_preinit_modules'
p64
aS'ngx_http_fastcgi_init_params.isra.4'
p65
aS'ngx_alloc'
p66
aS'ngx_cpystrn'
p67
aS'process_pci_value'
p68
aS'ngx_stream_core_listen'
p69
aS'ngx_http_geo'
p70
aS'ngx_ssl_stapling'
p71
aS'ngx_http_mp4_crop_ctts_data.isra.5'
p72
aS'ngx_http_access_rule'
p73
aS'ngx_read_dir'
p74
aS'ngx_ssl_read_password_file'
p75
aS'ngx_palloc'
p76
aS'ngx_close_file_mapping'
p77
aS'ngx_stream_access_rule'
p78
aS'ngx_gmtime'
p79
aS'SSLeay_version'
p80
aS'ngx_memn2cmp'
p81
aS'ngx_http_arg'
p82
aS'ngx_http_geo_block'
p83
aS'ngx_escape_html'
p84
aS'ngx_log_open_default'
p85
aS'ngx_pnalloc'
p86
aS'ngx_array_push'
p87
aS'ngx_log_init'
p88
aS'ngx_hash_key_lc'
p89
aS'ngx_create_pidfile'
p90
aS'ngx_http_mp4_handler'
p91
aS'ngx_http_core_try_files_phase'
p92
aS'ngx_daemon'
p93
aS'ngx_signal_process'
p94
aS'ngx_strerror_init'
p95
aS'ngx_http_auth_basic_handler'
p96
aS'ngx_http_read_client_request_body'
p97
aS'ngx_http_mp4_crop_stts_data'
p98
aS'ngx_http_log_set_log'
p99
aS'ngx_conf_parse'
p100
aS'ngx_http_autoindex_handler'
p101
aS'ngx_log_redirect_stderr'
p102
aS'ngx_ssl_init'
p103
aS'ngx_http_mp4_crop_stsc_data'
p104
aS'ngx_list_push'
p105
aS'ngx_http_log_compile_format.isra.4'
p106
a.