(dp0
S'X509V3_NAME_from_section'
p1
c__builtin__
set
p2
((lp3
S'libcryptoopenssl-OpenSSL_0_9_8t'
p4
aS'libcryptoopenssl-OpenSSL_0_9_8u'
p5
aS'libcryptoopenssl-OpenSSL_0_9_8v'
p6
aS'libcryptoopenssl-OpenSSL_0_9_8w'
p7
aS'libcryptoopenssl-OpenSSL_0_9_8s'
p8
aS'libcryptoopenssl-OpenSSL_0_9_8x'
p9
atp10
Rp11
sS'ec_GFp_simple_add'
p12
g2
((lp13
tp14
Rp15
sS'ec_GFp_nist_field_sqr'
p16
g2
((lp17
tp18
Rp19
sS'ec_GF2m_simple_point_get_affine_coordinates'
p20
g2
((lp21
tp22
Rp23
sS'app_info_free'
p24
g2
((lp25
tp26
Rp27
sS'bn_sub_part_words'
p28
g2
((lp29
tp30
Rp31
sS'SHA512_Update'
p32
g2
((lp33
S'libcryptoopenssl-OpenSSL_0_9_8t'
p34
aS'libcryptoopenssl-OpenSSL_0_9_8u'
p35
aS'libcryptoopenssl-OpenSSL_0_9_8v'
p36
aS'libcryptoopenssl-OpenSSL_0_9_8w'
p37
aS'libcryptoopenssl-OpenSSL_0_9_8p'
p38
aS'libcryptoopenssl-OpenSSL_0_9_8q'
p39
aS'libcryptoopenssl-OpenSSL_0_9_8r'
p40
aS'libcryptoopenssl-OpenSSL_0_9_8s'
p41
aS'libcryptoopenssl-OpenSSL_0_9_8x'
p42
aS'libcryptoopenssl-OpenSSL_0_9_8y'
p43
aS'libcryptoopenssl-OpenSSL_0_9_8m'
p44
aS'libcryptoopenssl-OpenSSL_0_9_8n'
p45
aS'libcryptoopenssl-OpenSSL_0_9_8o'
p46
atp47
Rp48
sS'BN_mod_exp_recp'
p49
g2
((lp50
tp51
Rp52
sS'BN_MONT_CTX_new'
p53
g2
((lp54
tp55
Rp56
sS'DH_check_pub_key'
p57
g2
((lp58
tp59
Rp60
sS'_CONF_new_section'
p61
g2
((lp62
tp63
Rp64
sS'ECDSA_size'
p65
g2
((lp66
tp67
Rp68
sS'BN_uadd'
p69
g2
((lp70
tp71
Rp72
sS'EC_GROUP_new_curve_GFp'
p73
g2
((lp74
tp75
Rp76
sS'EC_POINT_dbl'
p77
g2
((lp78
tp79
Rp80
sS'BN_mod_add_quick'
p81
g2
((lp82
tp83
Rp84
sS'BN_mod_lshift1_quick'
p85
g2
((lp86
tp87
Rp88
sS'ssl3_send_alert'
p89
g2
((lp90
tp91
Rp92
sS'BN_RECP_CTX_set'
p93
g2
((lp94
tp95
Rp96
sS'EC_KEY_copy'
p97
g2
((lp98
tp99
Rp100
sS'BUF_MEM_free'
p101
g2
((lp102
tp103
Rp104
sS'DES_ecb_encrypt'
p105
g2
((lp106
S'libcryptoopenssl-OpenSSL_0_9_7m'
p107
aS'libcryptoopenssl-OpenSSL_0_9_7l'
p108
aS'libcryptoopenssl-OpenSSL_0_9_7i'
p109
aS'libcryptoopenssl-OpenSSL_0_9_7h'
p110
aS'libcryptoopenssl-OpenSSL_0_9_7k'
p111
aS'libcryptoopenssl-OpenSSL_0_9_7j'
p112
aS'libcryptoopenssl-OpenSSL_0_9_7e'
p113
aS'libcryptoopenssl-OpenSSL_0_9_7d'
p114
aS'libcryptoopenssl-OpenSSL_0_9_7g'
p115
aS'libcryptoopenssl-OpenSSL_0_9_7f'
p116
aS'libcryptoopenssl-OpenSSL_0_9_7a'
p117
aS'libcryptoopenssl-OpenSSL_0_9_7c'
p118
aS'libcryptoopenssl-OpenSSL_0_9_7b'
p119
aS'libcryptoopenssl-OpenSSL_0_9_8t'
p120
aS'libcryptoopenssl-OpenSSL_0_9_8u'
p121
aS'libcryptoopenssl-OpenSSL_0_9_8v'
p122
aS'libcryptoopenssl-OpenSSL_0_9_8w'
p123
aS'libcryptoopenssl-OpenSSL_0_9_8p'
p124
aS'libcryptoopenssl-OpenSSL_0_9_8q'
p125
aS'libcryptoopenssl-OpenSSL_0_9_8r'
p126
aS'libcryptoopenssl-OpenSSL_0_9_8s'
p127
aS'libcryptoopenssl-OpenSSL_0_9_8x'
p128
aS'libcryptoopenssl-OpenSSL_0_9_8y'
p129
aS'libcryptoopenssl-OpenSSL_0_9_8d'
p130
aS'libcryptoopenssl-OpenSSL_0_9_8e'
p131
aS'libcryptoopenssl-OpenSSL_0_9_8f'
p132
aS'libcryptoopenssl-OpenSSL_0_9_8g'
p133
aS'libcryptoopenssl-OpenSSL_0_9_8a'
p134
aS'libcryptoopenssl-OpenSSL_0_9_8b'
p135
aS'libcryptoopenssl-OpenSSL_0_9_8c'
p136
aS'libcryptoopenssl-OpenSSL_0_9_8l'
p137
aS'libcryptoopenssl-OpenSSL_0_9_8m'
p138
aS'libcryptoopenssl-OpenSSL_0_9_8n'
p139
aS'libcryptoopenssl-OpenSSL_0_9_8o'
p140
aS'libcryptoopenssl-OpenSSL_0_9_8h'
p141
aS'libcryptoopenssl-OpenSSL_0_9_8i'
p142
aS'libcryptoopenssl-OpenSSL_0_9_8j'
p143
aS'libcryptoopenssl-OpenSSL_0_9_8k'
p144
aS'libcryptoopenssl-OpenSSL_0_9_8'
p145
aS'libcryptoopenssl-OpenSSL_0_9_7'
p146
atp147
Rp148
sS'long_i2c'
p149
g2
((lp150
tp151
Rp152
sS'BN_GF2m_add'
p153
g2
((lp154
tp155
Rp156
sS'i2d_ASN1_OBJECT'
p157
g2
((lp158
tp159
Rp160
sS'i2d_ASN1_bytes'
p161
g2
((lp162
tp163
Rp164
sS'EC_POINT_copy'
p165
g2
((lp166
tp167
Rp168
sS'lh_doall_arg'
p169
g2
((lp170
S'libcryptoopenssl-OpenSSL_0_9_7m'
p171
aS'libcryptoopenssl-OpenSSL_0_9_7l'
p172
aS'libcryptoopenssl-OpenSSL_0_9_7i'
p173
aS'libcryptoopenssl-OpenSSL_0_9_7h'
p174
aS'libcryptoopenssl-OpenSSL_0_9_7k'
p175
aS'libcryptoopenssl-OpenSSL_0_9_7j'
p176
aS'libcryptoopenssl-OpenSSL_0_9_7e'
p177
aS'libcryptoopenssl-OpenSSL_0_9_7d'
p178
aS'libcryptoopenssl-OpenSSL_0_9_7g'
p179
aS'libcryptoopenssl-OpenSSL_0_9_7f'
p180
aS'libcryptoopenssl-OpenSSL_0_9_7a'
p181
aS'libcryptoopenssl-OpenSSL_0_9_7c'
p182
aS'libcryptoopenssl-OpenSSL_0_9_7b'
p183
aS'libcryptoopenssl-OpenSSL_0_9_8t'
p184
aS'libcryptoopenssl-OpenSSL_0_9_8u'
p185
aS'libcryptoopenssl-OpenSSL_0_9_8v'
p186
aS'libcryptoopenssl-OpenSSL_0_9_8w'
p187
aS'libcryptoopenssl-OpenSSL_0_9_8p'
p188
aS'libcryptoopenssl-OpenSSL_0_9_8q'
p189
aS'libcryptoopenssl-OpenSSL_0_9_8r'
p190
aS'libcryptoopenssl-OpenSSL_0_9_8s'
p191
aS'libcryptoopenssl-OpenSSL_0_9_8x'
p192
aS'libcryptoopenssl-OpenSSL_0_9_8y'
p193
aS'libcryptoopenssl-OpenSSL_0_9_8d'
p194
aS'libcryptoopenssl-OpenSSL_0_9_8e'
p195
aS'libcryptoopenssl-OpenSSL_0_9_8f'
p196
aS'libcryptoopenssl-OpenSSL_0_9_8g'
p197
aS'libcryptoopenssl-OpenSSL_0_9_8a'
p198
aS'libcryptoopenssl-OpenSSL_0_9_8b'
p199
aS'libcryptoopenssl-OpenSSL_0_9_8c'
p200
aS'libcryptoopenssl-OpenSSL_0_9_8l'
p201
aS'libcryptoopenssl-OpenSSL_0_9_8m'
p202
aS'libcryptoopenssl-OpenSSL_0_9_8n'
p203
aS'libcryptoopenssl-OpenSSL_0_9_8o'
p204
aS'libcryptoopenssl-OpenSSL_0_9_8h'
p205
aS'libcryptoopenssl-OpenSSL_0_9_8i'
p206
aS'libcryptoopenssl-OpenSSL_0_9_8j'
p207
aS'libcryptoopenssl-OpenSSL_0_9_8k'
p208
aS'libcryptoopenssl-OpenSSL_0_9_8'
p209
aS'libcryptoopenssl-OpenSSL_0_9_7'
p210
atp211
Rp212
sS'X509_time_adj'
p213
g2
((lp214
S'libcryptoopenssl-OpenSSL_0_9_7m'
p215
aS'libcryptoopenssl-OpenSSL_0_9_7l'
p216
aS'libcryptoopenssl-OpenSSL_0_9_7i'
p217
aS'libcryptoopenssl-OpenSSL_0_9_7h'
p218
aS'libcryptoopenssl-OpenSSL_0_9_7k'
p219
aS'libcryptoopenssl-OpenSSL_0_9_7j'
p220
aS'libcryptoopenssl-OpenSSL_0_9_7e'
p221
aS'libcryptoopenssl-OpenSSL_0_9_7d'
p222
aS'libcryptoopenssl-OpenSSL_0_9_7g'
p223
aS'libcryptoopenssl-OpenSSL_0_9_7f'
p224
aS'libcryptoopenssl-OpenSSL_0_9_7a'
p225
aS'libcryptoopenssl-OpenSSL_0_9_7c'
p226
aS'libcryptoopenssl-OpenSSL_0_9_7b'
p227
aS'libcryptoopenssl-OpenSSL_0_9_8t'
p228
aS'libcryptoopenssl-OpenSSL_0_9_8u'
p229
aS'libcryptoopenssl-OpenSSL_0_9_8v'
p230
aS'libcryptoopenssl-OpenSSL_0_9_8w'
p231
aS'libcryptoopenssl-OpenSSL_0_9_8p'
p232
aS'libcryptoopenssl-OpenSSL_0_9_8q'
p233
aS'libcryptoopenssl-OpenSSL_0_9_8r'
p234
aS'libcryptoopenssl-OpenSSL_0_9_8s'
p235
aS'libcryptoopenssl-OpenSSL_0_9_8x'
p236
aS'libcryptoopenssl-OpenSSL_0_9_8y'
p237
aS'libcryptoopenssl-OpenSSL_0_9_8d'
p238
aS'libcryptoopenssl-OpenSSL_0_9_8e'
p239
aS'libcryptoopenssl-OpenSSL_0_9_8f'
p240
aS'libcryptoopenssl-OpenSSL_0_9_8g'
p241
aS'libcryptoopenssl-OpenSSL_0_9_8a'
p242
aS'libcryptoopenssl-OpenSSL_0_9_8b'
p243
aS'libcryptoopenssl-OpenSSL_0_9_8c'
p244
aS'libcryptoopenssl-OpenSSL_0_9_8l'
p245
aS'libcryptoopenssl-OpenSSL_0_9_8m'
p246
aS'libcryptoopenssl-OpenSSL_0_9_8n'
p247
aS'libcryptoopenssl-OpenSSL_0_9_8o'
p248
aS'libcryptoopenssl-OpenSSL_0_9_8h'
p249
aS'libcryptoopenssl-OpenSSL_0_9_8i'
p250
aS'libcryptoopenssl-OpenSSL_0_9_8j'
p251
aS'libcryptoopenssl-OpenSSL_0_9_8k'
p252
aS'libcryptoopenssl-OpenSSL_0_9_8'
p253
atp254
Rp255
sS'MD2_Update'
p256
g2
((lp257
S'libcryptoopenssl-OpenSSL_0_9_8t'
p258
aS'libcryptoopenssl-OpenSSL_0_9_8u'
p259
aS'libcryptoopenssl-OpenSSL_0_9_8v'
p260
aS'libcryptoopenssl-OpenSSL_0_9_8w'
p261
aS'libcryptoopenssl-OpenSSL_0_9_8p'
p262
aS'libcryptoopenssl-OpenSSL_0_9_8q'
p263
aS'libcryptoopenssl-OpenSSL_0_9_8r'
p264
aS'libcryptoopenssl-OpenSSL_0_9_8s'
p265
aS'libcryptoopenssl-OpenSSL_0_9_8x'
p266
aS'libcryptoopenssl-OpenSSL_0_9_8y'
p267
aS'libcryptoopenssl-OpenSSL_0_9_8d'
p268
aS'libcryptoopenssl-OpenSSL_0_9_8f'
p269
aS'libcryptoopenssl-OpenSSL_0_9_8g'
p270
aS'libcryptoopenssl-OpenSSL_0_9_8a'
p271
aS'libcryptoopenssl-OpenSSL_0_9_8b'
p272
aS'libcryptoopenssl-OpenSSL_0_9_8l'
p273
aS'libcryptoopenssl-OpenSSL_0_9_8m'
p274
aS'libcryptoopenssl-OpenSSL_0_9_8n'
p275
aS'libcryptoopenssl-OpenSSL_0_9_8o'
p276
aS'libcryptoopenssl-OpenSSL_0_9_8h'
p277
aS'libcryptoopenssl-OpenSSL_0_9_8i'
p278
aS'libcryptoopenssl-OpenSSL_0_9_8j'
p279
aS'libcryptoopenssl-OpenSSL_0_9_8k'
p280
aS'libcryptoopenssl-OpenSSL_0_9_8'
p281
atp282
Rp283
sS'i2c_ASN1_INTEGER'
p284
g2
((lp285
S'libcryptoopenssl-OpenSSL_1_0_1'
p286
aS'libcryptoopenssl-OpenSSL_1_0_0'
p287
aS'libcryptoopenssl-OpenSSL_1_0_0h'
p288
aS'libcryptoopenssl-OpenSSL_1_0_0i'
p289
aS'libcryptoopenssl-OpenSSL_1_0_0j'
p290
aS'libcryptoopenssl-OpenSSL_1_0_0k'
p291
aS'libcryptoopenssl-OpenSSL_1_0_0d'
p292
aS'libcryptoopenssl-OpenSSL_1_0_0e'
p293
aS'libcryptoopenssl-OpenSSL_1_0_0f'
p294
aS'libcryptoopenssl-OpenSSL_1_0_0g'
p295
aS'libcryptoopenssl-OpenSSL_1_0_0a'
p296
aS'libcryptoopenssl-OpenSSL_1_0_0b'
p297
aS'libcryptoopenssl-OpenSSL_1_0_0c'
p298
aS'libcryptoopenssl-OpenSSL_0_9_8t'
p299
aS'libcryptoopenssl-OpenSSL_0_9_8u'
p300
aS'libcryptoopenssl-OpenSSL_0_9_8v'
p301
aS'libcryptoopenssl-OpenSSL_0_9_8w'
p302
aS'libcryptoopenssl-OpenSSL_0_9_8p'
p303
aS'libcryptoopenssl-OpenSSL_0_9_8q'
p304
aS'libcryptoopenssl-OpenSSL_0_9_8r'
p305
aS'libcryptoopenssl-OpenSSL_0_9_8s'
p306
aS'libcryptoopenssl-OpenSSL_0_9_8x'
p307
aS'libcryptoopenssl-OpenSSL_0_9_8y'
p308
aS'libcryptoopenssl-OpenSSL_0_9_8d'
p309
aS'libcryptoopenssl-OpenSSL_0_9_8e'
p310
aS'libcryptoopenssl-OpenSSL_0_9_8f'
p311
aS'libcryptoopenssl-OpenSSL_0_9_8g'
p312
aS'libcryptoopenssl-OpenSSL_0_9_8b'
p313
aS'libcryptoopenssl-OpenSSL_0_9_8c'
p314
aS'libcryptoopenssl-OpenSSL_0_9_8l'
p315
aS'libcryptoopenssl-OpenSSL_0_9_8m'
p316
aS'libcryptoopenssl-OpenSSL_0_9_8n'
p317
aS'libcryptoopenssl-OpenSSL_0_9_8o'
p318
aS'libcryptoopenssl-OpenSSL_0_9_8h'
p319
aS'libcryptoopenssl-OpenSSL_0_9_8i'
p320
aS'libcryptoopenssl-OpenSSL_0_9_8j'
p321
aS'libcryptoopenssl-OpenSSL_0_9_8k'
p322
aS'libcryptoopenssl-OpenSSL_1_0_1e'
p323
aS'libcryptoopenssl-OpenSSL_1_0_1d'
p324
aS'libcryptoopenssl-OpenSSL_1_0_1c'
p325
aS'libcryptoopenssl-OpenSSL_1_0_1b'
p326
aS'libcryptoopenssl-OpenSSL_1_0_1a'
p327
atp328
Rp329
sS'ec_GFp_simple_is_on_curve'
p330
g2
((lp331
tp332
Rp333
sS'BN_mod_sub_quick'
p334
g2
((lp335
tp336
Rp337
sS'ec_GF2m_simple_make_affine'
p338
g2
((lp339
tp340
Rp341
sS'PKCS7_add_signer'
p342
g2
((lp343
S'libcryptoopenssl-OpenSSL_0_9_8t'
p344
aS'libcryptoopenssl-OpenSSL_0_9_8u'
p345
aS'libcryptoopenssl-OpenSSL_0_9_8v'
p346
aS'libcryptoopenssl-OpenSSL_0_9_8w'
p347
aS'libcryptoopenssl-OpenSSL_0_9_8s'
p348
aS'libcryptoopenssl-OpenSSL_0_9_8x'
p349
aS'libcryptoopenssl-OpenSSL_0_9_8y'
p350
atp351
Rp352
sS'ec_GFp_simple_make_affine'
p353
g2
((lp354
tp355
Rp356
sS'rc2_ecb_cipher'
p357
g2
((lp358
S'libcryptoopenssl-OpenSSL_0_9_7m'
p359
aS'libcryptoopenssl-OpenSSL_0_9_7l'
p360
aS'libcryptoopenssl-OpenSSL_0_9_7i'
p361
aS'libcryptoopenssl-OpenSSL_0_9_7h'
p362
aS'libcryptoopenssl-OpenSSL_0_9_7k'
p363
aS'libcryptoopenssl-OpenSSL_0_9_7j'
p364
aS'libcryptoopenssl-OpenSSL_0_9_7e'
p365
aS'libcryptoopenssl-OpenSSL_0_9_7d'
p366
aS'libcryptoopenssl-OpenSSL_0_9_7g'
p367
aS'libcryptoopenssl-OpenSSL_0_9_7f'
p368
aS'libcryptoopenssl-OpenSSL_0_9_7a'
p369
aS'libcryptoopenssl-OpenSSL_0_9_7c'
p370
aS'libcryptoopenssl-OpenSSL_0_9_7b'
p371
aS'libcryptoopenssl-OpenSSL_0_9_8t'
p372
aS'libcryptoopenssl-OpenSSL_0_9_8u'
p373
aS'libcryptoopenssl-OpenSSL_0_9_8v'
p374
aS'libcryptoopenssl-OpenSSL_0_9_8w'
p375
aS'libcryptoopenssl-OpenSSL_0_9_8p'
p376
aS'libcryptoopenssl-OpenSSL_0_9_8q'
p377
aS'libcryptoopenssl-OpenSSL_0_9_8r'
p378
aS'libcryptoopenssl-OpenSSL_0_9_8s'
p379
aS'libcryptoopenssl-OpenSSL_0_9_8x'
p380
aS'libcryptoopenssl-OpenSSL_0_9_8y'
p381
aS'libcryptoopenssl-OpenSSL_0_9_8d'
p382
aS'libcryptoopenssl-OpenSSL_0_9_8e'
p383
aS'libcryptoopenssl-OpenSSL_0_9_8f'
p384
aS'libcryptoopenssl-OpenSSL_0_9_8g'
p385
aS'libcryptoopenssl-OpenSSL_0_9_8a'
p386
aS'libcryptoopenssl-OpenSSL_0_9_8b'
p387
aS'libcryptoopenssl-OpenSSL_0_9_8c'
p388
aS'libcryptoopenssl-OpenSSL_0_9_8l'
p389
aS'libcryptoopenssl-OpenSSL_0_9_8m'
p390
aS'libcryptoopenssl-OpenSSL_0_9_8n'
p391
aS'libcryptoopenssl-OpenSSL_0_9_8o'
p392
aS'libcryptoopenssl-OpenSSL_0_9_8h'
p393
aS'libcryptoopenssl-OpenSSL_0_9_8i'
p394
aS'libcryptoopenssl-OpenSSL_0_9_8j'
p395
aS'libcryptoopenssl-OpenSSL_0_9_8k'
p396
aS'libcryptoopenssl-OpenSSL_0_9_8'
p397
aS'libcryptoopenssl-OpenSSL_0_9_7'
p398
atp399
Rp400
sS'ec_GFp_simple_get_Jprojective_coordinates_GFp'
p401
g2
((lp402
tp403
Rp404
sS'dtls1_get_message'
p405
g2
((lp406
tp407
Rp408
sS'ec_GF2m_simple_add'
p409
g2
((lp410
tp411
Rp412
sS'ERR_set_error_data'
p413
g2
((lp414
tp415
Rp416
sS'DH_check'
p417
g2
((lp418
tp419
Rp420
sS'check_issued'
p421
g2
((lp422
S'libcryptoopenssl-OpenSSL_0_9_8t'
p423
aS'libcryptoopenssl-OpenSSL_0_9_8u'
p424
aS'libcryptoopenssl-OpenSSL_0_9_8v'
p425
aS'libcryptoopenssl-OpenSSL_0_9_8w'
p426
aS'libcryptoopenssl-OpenSSL_0_9_8s'
p427
aS'libcryptoopenssl-OpenSSL_0_9_8x'
p428
atp429
Rp430
sS'EC_POINT_set_to_infinity'
p431
g2
((lp432
tp433
Rp434
sS'des_ede_ecb_cipher'
p435
g2
((lp436
S'libcryptoopenssl-OpenSSL_0_9_7m'
p437
aS'libcryptoopenssl-OpenSSL_0_9_7l'
p438
aS'libcryptoopenssl-OpenSSL_0_9_7i'
p439
aS'libcryptoopenssl-OpenSSL_0_9_7h'
p440
aS'libcryptoopenssl-OpenSSL_0_9_7k'
p441
aS'libcryptoopenssl-OpenSSL_0_9_7j'
p442
aS'libcryptoopenssl-OpenSSL_0_9_7e'
p443
aS'libcryptoopenssl-OpenSSL_0_9_7d'
p444
aS'libcryptoopenssl-OpenSSL_0_9_7g'
p445
aS'libcryptoopenssl-OpenSSL_0_9_7f'
p446
aS'libcryptoopenssl-OpenSSL_0_9_7a'
p447
aS'libcryptoopenssl-OpenSSL_0_9_7c'
p448
aS'libcryptoopenssl-OpenSSL_0_9_7b'
p449
aS'libcryptoopenssl-OpenSSL_0_9_8t'
p450
aS'libcryptoopenssl-OpenSSL_0_9_8u'
p451
aS'libcryptoopenssl-OpenSSL_0_9_8v'
p452
aS'libcryptoopenssl-OpenSSL_0_9_8w'
p453
aS'libcryptoopenssl-OpenSSL_0_9_8p'
p454
aS'libcryptoopenssl-OpenSSL_0_9_8q'
p455
aS'libcryptoopenssl-OpenSSL_0_9_8r'
p456
aS'libcryptoopenssl-OpenSSL_0_9_8s'
p457
aS'libcryptoopenssl-OpenSSL_0_9_8x'
p458
aS'libcryptoopenssl-OpenSSL_0_9_8y'
p459
aS'libcryptoopenssl-OpenSSL_0_9_8d'
p460
aS'libcryptoopenssl-OpenSSL_0_9_8e'
p461
aS'libcryptoopenssl-OpenSSL_0_9_8f'
p462
aS'libcryptoopenssl-OpenSSL_0_9_8g'
p463
aS'libcryptoopenssl-OpenSSL_0_9_8a'
p464
aS'libcryptoopenssl-OpenSSL_0_9_8b'
p465
aS'libcryptoopenssl-OpenSSL_0_9_8c'
p466
aS'libcryptoopenssl-OpenSSL_0_9_8l'
p467
aS'libcryptoopenssl-OpenSSL_0_9_8m'
p468
aS'libcryptoopenssl-OpenSSL_0_9_8n'
p469
aS'libcryptoopenssl-OpenSSL_0_9_8o'
p470
aS'libcryptoopenssl-OpenSSL_0_9_8h'
p471
aS'libcryptoopenssl-OpenSSL_0_9_8i'
p472
aS'libcryptoopenssl-OpenSSL_0_9_8j'
p473
aS'libcryptoopenssl-OpenSSL_0_9_8k'
p474
aS'libcryptoopenssl-OpenSSL_0_9_8'
p475
aS'libcryptoopenssl-OpenSSL_0_9_7'
p476
atp477
Rp478
sS'ec_pre_comp_clear_free'
p479
g2
((lp480
tp481
Rp482
sS'des_ecb_cipher'
p483
g2
((lp484
S'libcryptoopenssl-OpenSSL_0_9_7m'
p485
aS'libcryptoopenssl-OpenSSL_0_9_7l'
p486
aS'libcryptoopenssl-OpenSSL_0_9_7i'
p487
aS'libcryptoopenssl-OpenSSL_0_9_7h'
p488
aS'libcryptoopenssl-OpenSSL_0_9_7k'
p489
aS'libcryptoopenssl-OpenSSL_0_9_7j'
p490
aS'libcryptoopenssl-OpenSSL_0_9_7e'
p491
aS'libcryptoopenssl-OpenSSL_0_9_7d'
p492
aS'libcryptoopenssl-OpenSSL_0_9_7g'
p493
aS'libcryptoopenssl-OpenSSL_0_9_7f'
p494
aS'libcryptoopenssl-OpenSSL_0_9_7a'
p495
aS'libcryptoopenssl-OpenSSL_0_9_7c'
p496
aS'libcryptoopenssl-OpenSSL_0_9_7b'
p497
aS'libcryptoopenssl-OpenSSL_0_9_8t'
p498
aS'libcryptoopenssl-OpenSSL_0_9_8u'
p499
aS'libcryptoopenssl-OpenSSL_0_9_8v'
p500
aS'libcryptoopenssl-OpenSSL_0_9_8w'
p501
aS'libcryptoopenssl-OpenSSL_0_9_8p'
p502
aS'libcryptoopenssl-OpenSSL_0_9_8q'
p503
aS'libcryptoopenssl-OpenSSL_0_9_8r'
p504
aS'libcryptoopenssl-OpenSSL_0_9_8s'
p505
aS'libcryptoopenssl-OpenSSL_0_9_8x'
p506
aS'libcryptoopenssl-OpenSSL_0_9_8y'
p507
aS'libcryptoopenssl-OpenSSL_0_9_8d'
p508
aS'libcryptoopenssl-OpenSSL_0_9_8e'
p509
aS'libcryptoopenssl-OpenSSL_0_9_8f'
p510
aS'libcryptoopenssl-OpenSSL_0_9_8g'
p511
aS'libcryptoopenssl-OpenSSL_0_9_8a'
p512
aS'libcryptoopenssl-OpenSSL_0_9_8b'
p513
aS'libcryptoopenssl-OpenSSL_0_9_8c'
p514
aS'libcryptoopenssl-OpenSSL_0_9_8l'
p515
aS'libcryptoopenssl-OpenSSL_0_9_8m'
p516
aS'libcryptoopenssl-OpenSSL_0_9_8n'
p517
aS'libcryptoopenssl-OpenSSL_0_9_8o'
p518
aS'libcryptoopenssl-OpenSSL_0_9_8h'
p519
aS'libcryptoopenssl-OpenSSL_0_9_8i'
p520
aS'libcryptoopenssl-OpenSSL_0_9_8j'
p521
aS'libcryptoopenssl-OpenSSL_0_9_8k'
p522
aS'libcryptoopenssl-OpenSSL_0_9_8'
p523
aS'libcryptoopenssl-OpenSSL_0_9_7'
p524
atp525
Rp526
sS'X509at_get_attr_by_OBJ'
p527
g2
((lp528
S'libcryptoopenssl-OpenSSL_0_9_8t'
p529
aS'libcryptoopenssl-OpenSSL_0_9_8u'
p530
aS'libcryptoopenssl-OpenSSL_0_9_8v'
p531
aS'libcryptoopenssl-OpenSSL_0_9_8w'
p532
aS'libcryptoopenssl-OpenSSL_0_9_8s'
p533
aS'libcryptoopenssl-OpenSSL_0_9_8x'
p534
atp535
Rp536
sS'ASN1_INTEGER_get'
p537
g2
((lp538
S'libcryptoopenssl-OpenSSL_1_0_0'
p539
aS'libcryptoopenssl-OpenSSL_1_0_0d'
p540
aS'libcryptoopenssl-OpenSSL_1_0_0e'
p541
aS'libcryptoopenssl-OpenSSL_1_0_0f'
p542
aS'libcryptoopenssl-OpenSSL_1_0_0a'
p543
aS'libcryptoopenssl-OpenSSL_1_0_0b'
p544
aS'libcryptoopenssl-OpenSSL_1_0_0c'
p545
aS'libcryptoopenssl-OpenSSL_0_9_8t'
p546
aS'libcryptoopenssl-OpenSSL_0_9_8u'
p547
aS'libcryptoopenssl-OpenSSL_0_9_8v'
p548
aS'libcryptoopenssl-OpenSSL_0_9_8w'
p549
aS'libcryptoopenssl-OpenSSL_0_9_8p'
p550
aS'libcryptoopenssl-OpenSSL_0_9_8q'
p551
aS'libcryptoopenssl-OpenSSL_0_9_8r'
p552
aS'libcryptoopenssl-OpenSSL_0_9_8s'
p553
aS'libcryptoopenssl-OpenSSL_0_9_8x'
p554
aS'libcryptoopenssl-OpenSSL_0_9_8y'
p555
aS'libcryptoopenssl-OpenSSL_0_9_8d'
p556
aS'libcryptoopenssl-OpenSSL_0_9_8e'
p557
aS'libcryptoopenssl-OpenSSL_0_9_8f'
p558
aS'libcryptoopenssl-OpenSSL_0_9_8g'
p559
aS'libcryptoopenssl-OpenSSL_0_9_8a'
p560
aS'libcryptoopenssl-OpenSSL_0_9_8b'
p561
aS'libcryptoopenssl-OpenSSL_0_9_8c'
p562
aS'libcryptoopenssl-OpenSSL_0_9_8l'
p563
aS'libcryptoopenssl-OpenSSL_0_9_8m'
p564
aS'libcryptoopenssl-OpenSSL_0_9_8n'
p565
aS'libcryptoopenssl-OpenSSL_0_9_8o'
p566
aS'libcryptoopenssl-OpenSSL_0_9_8h'
p567
aS'libcryptoopenssl-OpenSSL_0_9_8i'
p568
aS'libcryptoopenssl-OpenSSL_0_9_8j'
p569
aS'libcryptoopenssl-OpenSSL_0_9_8k'
p570
aS'libcryptoopenssl-OpenSSL_0_9_8'
p571
atp572
Rp573
sS'CRYPTO_get_ex_data'
p574
g2
((lp575
S'libcryptoopenssl-OpenSSL_0_9_8t'
p576
aS'libcryptoopenssl-OpenSSL_0_9_8u'
p577
aS'libcryptoopenssl-OpenSSL_0_9_8v'
p578
aS'libcryptoopenssl-OpenSSL_0_9_8w'
p579
aS'libcryptoopenssl-OpenSSL_0_9_8s'
p580
aS'libcryptoopenssl-OpenSSL_0_9_8x'
p581
aS'libcryptoopenssl-OpenSSL_0_9_8y'
p582
atp583
Rp584
sS'md5_block_asm_data_order'
p585
g2
((lp586
S'libcryptoopenssl-OpenSSL_0_9_8t'
p587
aS'libcryptoopenssl-OpenSSL_0_9_8u'
p588
aS'libcryptoopenssl-OpenSSL_0_9_8v'
p589
aS'libcryptoopenssl-OpenSSL_0_9_8w'
p590
aS'libcryptoopenssl-OpenSSL_0_9_8p'
p591
aS'libcryptoopenssl-OpenSSL_0_9_8q'
p592
aS'libcryptoopenssl-OpenSSL_0_9_8r'
p593
aS'libcryptoopenssl-OpenSSL_0_9_8s'
p594
aS'libcryptoopenssl-OpenSSL_0_9_8x'
p595
aS'libcryptoopenssl-OpenSSL_0_9_8y'
p596
aS'libcryptoopenssl-OpenSSL_0_9_8m'
p597
aS'libcryptoopenssl-OpenSSL_0_9_8n'
p598
aS'libcryptoopenssl-OpenSSL_0_9_8o'
p599
atp600
Rp601
sS'bn_add_words'
p602
g2
((lp603
tp604
Rp605
sS'X509_get_pubkey'
p606
g2
((lp607
S'libcryptoopenssl-OpenSSL_0_9_8t'
p608
aS'libcryptoopenssl-OpenSSL_0_9_8u'
p609
aS'libcryptoopenssl-OpenSSL_0_9_8v'
p610
aS'libcryptoopenssl-OpenSSL_0_9_8w'
p611
aS'libcryptoopenssl-OpenSSL_0_9_8p'
p612
aS'libcryptoopenssl-OpenSSL_0_9_8q'
p613
aS'libcryptoopenssl-OpenSSL_0_9_8r'
p614
aS'libcryptoopenssl-OpenSSL_0_9_8s'
p615
aS'libcryptoopenssl-OpenSSL_0_9_8x'
p616
aS'libcryptoopenssl-OpenSSL_0_9_8y'
p617
aS'libcryptoopenssl-OpenSSL_0_9_8e'
p618
aS'libcryptoopenssl-OpenSSL_0_9_8f'
p619
aS'libcryptoopenssl-OpenSSL_0_9_8g'
p620
aS'libcryptoopenssl-OpenSSL_0_9_8l'
p621
aS'libcryptoopenssl-OpenSSL_0_9_8m'
p622
aS'libcryptoopenssl-OpenSSL_0_9_8n'
p623
aS'libcryptoopenssl-OpenSSL_0_9_8o'
p624
aS'libcryptoopenssl-OpenSSL_0_9_8h'
p625
aS'libcryptoopenssl-OpenSSL_0_9_8i'
p626
aS'libcryptoopenssl-OpenSSL_0_9_8j'
p627
aS'libcryptoopenssl-OpenSSL_0_9_8k'
p628
atp629
Rp630
sS'bn_expand2'
p631
g2
((lp632
tp633
Rp634
sS'BN_is_bit_set'
p635
g2
((lp636
tp637
Rp638
sS'bn_add_part_words'
p639
g2
((lp640
tp641
Rp642
sS'aes_init_key'
p643
g2
((lp644
S'libcryptoopenssl-OpenSSL_0_9_8t'
p645
aS'libcryptoopenssl-OpenSSL_0_9_8u'
p646
aS'libcryptoopenssl-OpenSSL_0_9_8v'
p647
aS'libcryptoopenssl-OpenSSL_0_9_8w'
p648
aS'libcryptoopenssl-OpenSSL_0_9_8p'
p649
aS'libcryptoopenssl-OpenSSL_0_9_8q'
p650
aS'libcryptoopenssl-OpenSSL_0_9_8r'
p651
aS'libcryptoopenssl-OpenSSL_0_9_8s'
p652
aS'libcryptoopenssl-OpenSSL_0_9_8x'
p653
aS'libcryptoopenssl-OpenSSL_0_9_8y'
p654
aS'libcryptoopenssl-OpenSSL_0_9_8o'
p655
atp656
Rp657
sS'X509v3_get_ext_by_OBJ'
p658
g2
((lp659
S'libcryptoopenssl-OpenSSL_0_9_8t'
p660
aS'libcryptoopenssl-OpenSSL_0_9_8u'
p661
aS'libcryptoopenssl-OpenSSL_0_9_8v'
p662
aS'libcryptoopenssl-OpenSSL_0_9_8w'
p663
aS'libcryptoopenssl-OpenSSL_0_9_8s'
p664
aS'libcryptoopenssl-OpenSSL_0_9_8x'
p665
atp666
Rp667
sS'BN_usub'
p668
g2
((lp669
tp670
Rp671
sS'ec_GF2m_simple_cmp'
p672
g2
((lp673
tp674
Rp675
sS'idea_ecb_cipher'
p676
g2
((lp677
S'libcryptoopenssl-OpenSSL_0_9_7m'
p678
aS'libcryptoopenssl-OpenSSL_0_9_7l'
p679
aS'libcryptoopenssl-OpenSSL_0_9_7i'
p680
aS'libcryptoopenssl-OpenSSL_0_9_7h'
p681
aS'libcryptoopenssl-OpenSSL_0_9_7k'
p682
aS'libcryptoopenssl-OpenSSL_0_9_7j'
p683
aS'libcryptoopenssl-OpenSSL_0_9_7e'
p684
aS'libcryptoopenssl-OpenSSL_0_9_7d'
p685
aS'libcryptoopenssl-OpenSSL_0_9_7g'
p686
aS'libcryptoopenssl-OpenSSL_0_9_7f'
p687
aS'libcryptoopenssl-OpenSSL_0_9_7a'
p688
aS'libcryptoopenssl-OpenSSL_0_9_7c'
p689
aS'libcryptoopenssl-OpenSSL_0_9_7b'
p690
aS'libcryptoopenssl-OpenSSL_0_9_8t'
p691
aS'libcryptoopenssl-OpenSSL_0_9_8u'
p692
aS'libcryptoopenssl-OpenSSL_0_9_8v'
p693
aS'libcryptoopenssl-OpenSSL_0_9_8w'
p694
aS'libcryptoopenssl-OpenSSL_0_9_8p'
p695
aS'libcryptoopenssl-OpenSSL_0_9_8q'
p696
aS'libcryptoopenssl-OpenSSL_0_9_8r'
p697
aS'libcryptoopenssl-OpenSSL_0_9_8s'
p698
aS'libcryptoopenssl-OpenSSL_0_9_8x'
p699
aS'libcryptoopenssl-OpenSSL_0_9_8y'
p700
aS'libcryptoopenssl-OpenSSL_0_9_8d'
p701
aS'libcryptoopenssl-OpenSSL_0_9_8e'
p702
aS'libcryptoopenssl-OpenSSL_0_9_8f'
p703
aS'libcryptoopenssl-OpenSSL_0_9_8g'
p704
aS'libcryptoopenssl-OpenSSL_0_9_8a'
p705
aS'libcryptoopenssl-OpenSSL_0_9_8b'
p706
aS'libcryptoopenssl-OpenSSL_0_9_8c'
p707
aS'libcryptoopenssl-OpenSSL_0_9_8l'
p708
aS'libcryptoopenssl-OpenSSL_0_9_8m'
p709
aS'libcryptoopenssl-OpenSSL_0_9_8n'
p710
aS'libcryptoopenssl-OpenSSL_0_9_8o'
p711
aS'libcryptoopenssl-OpenSSL_0_9_8h'
p712
aS'libcryptoopenssl-OpenSSL_0_9_8i'
p713
aS'libcryptoopenssl-OpenSSL_0_9_8j'
p714
aS'libcryptoopenssl-OpenSSL_0_9_8k'
p715
aS'libcryptoopenssl-OpenSSL_0_9_8'
p716
aS'libcryptoopenssl-OpenSSL_0_9_7'
p717
atp718
Rp719
sS'DSA_sign'
p720
g2
((lp721
S'libcryptoopenssl-OpenSSL_1_0_2'
p722
aS'libcryptoopenssl-OpenSSL_1_0_1'
p723
aS'libcryptoopenssl-OpenSSL_1_0_2q'
p724
aS'libcryptoopenssl-OpenSSL_1_0_2f'
p725
aS'libcryptoopenssl-OpenSSL_1_0_2g'
p726
aS'libcryptoopenssl-OpenSSL_1_0_2d'
p727
aS'libcryptoopenssl-OpenSSL_1_0_2e'
p728
aS'libcryptoopenssl-OpenSSL_1_0_2b'
p729
aS'libcryptoopenssl-OpenSSL_1_0_2c'
p730
aS'libcryptoopenssl-OpenSSL_1_0_2a'
p731
aS'libcryptoopenssl-OpenSSL_1_0_2n'
p732
aS'libcryptoopenssl-OpenSSL_1_0_2o'
p733
aS'libcryptoopenssl-OpenSSL_1_0_2l'
p734
aS'libcryptoopenssl-OpenSSL_1_0_2m'
p735
aS'libcryptoopenssl-OpenSSL_1_0_2j'
p736
aS'libcryptoopenssl-OpenSSL_1_0_2k'
p737
aS'libcryptoopenssl-OpenSSL_1_0_2h'
p738
aS'libcryptoopenssl-OpenSSL_1_0_2i'
p739
aS'libcryptoopenssl-OpenSSL_0_9_8t'
p740
aS'libcryptoopenssl-OpenSSL_0_9_8u'
p741
aS'libcryptoopenssl-OpenSSL_0_9_8v'
p742
aS'libcryptoopenssl-OpenSSL_0_9_8w'
p743
aS'libcryptoopenssl-OpenSSL_0_9_8p'
p744
aS'libcryptoopenssl-OpenSSL_0_9_8q'
p745
aS'libcryptoopenssl-OpenSSL_0_9_8r'
p746
aS'libcryptoopenssl-OpenSSL_0_9_8s'
p747
aS'libcryptoopenssl-OpenSSL_0_9_8x'
p748
aS'libcryptoopenssl-OpenSSL_0_9_8y'
p749
aS'libcryptoopenssl-OpenSSL_0_9_8m'
p750
aS'libcryptoopenssl-OpenSSL_0_9_8n'
p751
aS'libcryptoopenssl-OpenSSL_0_9_8o'
p752
aS'libcryptoopenssl-OpenSSL_1_0_1t'
p753
aS'libcryptoopenssl-OpenSSL_1_0_1s'
p754
aS'libcryptoopenssl-OpenSSL_1_0_1r'
p755
aS'libcryptoopenssl-OpenSSL_1_0_1q'
p756
aS'libcryptoopenssl-OpenSSL_1_0_1p'
p757
aS'libcryptoopenssl-OpenSSL_1_0_1o'
p758
aS'libcryptoopenssl-OpenSSL_1_0_1n'
p759
aS'libcryptoopenssl-OpenSSL_1_0_1m'
p760
aS'libcryptoopenssl-OpenSSL_1_0_1l'
p761
aS'libcryptoopenssl-OpenSSL_1_0_1k'
p762
aS'libcryptoopenssl-OpenSSL_1_0_1j'
p763
aS'libcryptoopenssl-OpenSSL_1_0_1i'
p764
aS'libcryptoopenssl-OpenSSL_1_0_1h'
p765
aS'libcryptoopenssl-OpenSSL_1_0_1g'
p766
aS'libcryptoopenssl-OpenSSL_1_0_1f'
p767
aS'libcryptoopenssl-OpenSSL_1_0_1e'
p768
aS'libcryptoopenssl-OpenSSL_1_0_1d'
p769
aS'libcryptoopenssl-OpenSSL_1_0_1c'
p770
aS'libcryptoopenssl-OpenSSL_1_0_1b'
p771
aS'libcryptoopenssl-OpenSSL_1_0_1a'
p772
atp773
Rp774
sS'EVP_PKEY_cmp_parameters'
p775
g2
((lp776
tp777
Rp778
sS'AES_cfb128_encrypt'
p779
g2
((lp780
S'libcryptoopenssl-OpenSSL_0_9_8t'
p781
aS'libcryptoopenssl-OpenSSL_0_9_8u'
p782
aS'libcryptoopenssl-OpenSSL_0_9_8v'
p783
aS'libcryptoopenssl-OpenSSL_0_9_8w'
p784
aS'libcryptoopenssl-OpenSSL_0_9_8p'
p785
aS'libcryptoopenssl-OpenSSL_0_9_8q'
p786
aS'libcryptoopenssl-OpenSSL_0_9_8r'
p787
aS'libcryptoopenssl-OpenSSL_0_9_8s'
p788
aS'libcryptoopenssl-OpenSSL_0_9_8x'
p789
aS'libcryptoopenssl-OpenSSL_0_9_8y'
p790
aS'libcryptoopenssl-OpenSSL_0_9_8m'
p791
aS'libcryptoopenssl-OpenSSL_0_9_8n'
p792
aS'libcryptoopenssl-OpenSSL_0_9_8o'
p793
atp794
Rp795
sS'trtable_free'
p796
g2
((lp797
tp798
Rp799
sS'ec_GFp_simple_points_make_affine'
p800
g2
((lp801
tp802
Rp803
sS'EC_EX_DATA_free_data'
p804
g2
((lp805
tp806
Rp807
sS'str_copy'
p808
g2
((lp809
tp810
Rp811
sS'ssl3_enc'
p812
g2
((lp813
tp814
Rp815
sS'SHA256_Update'
p816
g2
((lp817
S'libcryptoopenssl-OpenSSL_0_9_8t'
p818
aS'libcryptoopenssl-OpenSSL_0_9_8u'
p819
aS'libcryptoopenssl-OpenSSL_0_9_8v'
p820
aS'libcryptoopenssl-OpenSSL_0_9_8w'
p821
aS'libcryptoopenssl-OpenSSL_0_9_8p'
p822
aS'libcryptoopenssl-OpenSSL_0_9_8q'
p823
aS'libcryptoopenssl-OpenSSL_0_9_8r'
p824
aS'libcryptoopenssl-OpenSSL_0_9_8s'
p825
aS'libcryptoopenssl-OpenSSL_0_9_8x'
p826
aS'libcryptoopenssl-OpenSSL_0_9_8y'
p827
aS'libcryptoopenssl-OpenSSL_0_9_8m'
p828
aS'libcryptoopenssl-OpenSSL_0_9_8n'
p829
aS'libcryptoopenssl-OpenSSL_0_9_8o'
p830
atp831
Rp832
sS'ASN1_PRINTABLE_type'
p833
g2
((lp834
S'libcryptoopenssl-OpenSSL_1_0_2'
p835
aS'libcryptoopenssl-OpenSSL_1_0_1'
p836
aS'libcryptoopenssl-OpenSSL_1_0_0'
p837
aS'libcryptoopenssl-OpenSSL_1_0_0t'
p838
aS'libcryptoopenssl-OpenSSL_1_0_0p'
p839
aS'libcryptoopenssl-OpenSSL_1_0_0q'
p840
aS'libcryptoopenssl-OpenSSL_1_0_0r'
p841
aS'libcryptoopenssl-OpenSSL_1_0_0s'
p842
aS'libcryptoopenssl-OpenSSL_1_0_0l'
p843
aS'libcryptoopenssl-OpenSSL_1_0_0m'
p844
aS'libcryptoopenssl-OpenSSL_1_0_0n'
p845
aS'libcryptoopenssl-OpenSSL_1_0_0o'
p846
aS'libcryptoopenssl-OpenSSL_1_0_0h'
p847
aS'libcryptoopenssl-OpenSSL_1_0_0i'
p848
aS'libcryptoopenssl-OpenSSL_1_0_0j'
p849
aS'libcryptoopenssl-OpenSSL_1_0_0k'
p850
aS'libcryptoopenssl-OpenSSL_1_0_0d'
p851
aS'libcryptoopenssl-OpenSSL_1_0_0e'
p852
aS'libcryptoopenssl-OpenSSL_1_0_0f'
p853
aS'libcryptoopenssl-OpenSSL_1_0_0g'
p854
aS'libcryptoopenssl-OpenSSL_1_0_0a'
p855
aS'libcryptoopenssl-OpenSSL_1_0_0b'
p856
aS'libcryptoopenssl-OpenSSL_1_0_0c'
p857
aS'libcryptoopenssl-OpenSSL_0_9_8t'
p858
aS'libcryptoopenssl-OpenSSL_0_9_8u'
p859
aS'libcryptoopenssl-OpenSSL_0_9_8v'
p860
aS'libcryptoopenssl-OpenSSL_0_9_8w'
p861
aS'libcryptoopenssl-OpenSSL_0_9_8p'
p862
aS'libcryptoopenssl-OpenSSL_0_9_8q'
p863
aS'libcryptoopenssl-OpenSSL_0_9_8r'
p864
aS'libcryptoopenssl-OpenSSL_0_9_8s'
p865
aS'libcryptoopenssl-OpenSSL_0_9_8x'
p866
aS'libcryptoopenssl-OpenSSL_0_9_8y'
p867
aS'libcryptoopenssl-OpenSSL_0_9_8d'
p868
aS'libcryptoopenssl-OpenSSL_0_9_8e'
p869
aS'libcryptoopenssl-OpenSSL_0_9_8f'
p870
aS'libcryptoopenssl-OpenSSL_0_9_8g'
p871
aS'libcryptoopenssl-OpenSSL_0_9_8a'
p872
aS'libcryptoopenssl-OpenSSL_0_9_8b'
p873
aS'libcryptoopenssl-OpenSSL_0_9_8c'
p874
aS'libcryptoopenssl-OpenSSL_0_9_8l'
p875
aS'libcryptoopenssl-OpenSSL_0_9_8m'
p876
aS'libcryptoopenssl-OpenSSL_0_9_8n'
p877
aS'libcryptoopenssl-OpenSSL_0_9_8o'
p878
aS'libcryptoopenssl-OpenSSL_0_9_8h'
p879
aS'libcryptoopenssl-OpenSSL_0_9_8i'
p880
aS'libcryptoopenssl-OpenSSL_0_9_8j'
p881
aS'libcryptoopenssl-OpenSSL_0_9_8k'
p882
aS'libcryptoopenssl-OpenSSL_1_0_1t'
p883
aS'libcryptoopenssl-OpenSSL_1_0_1s'
p884
aS'libcryptoopenssl-OpenSSL_1_0_1r'
p885
aS'libcryptoopenssl-OpenSSL_1_0_1q'
p886
aS'libcryptoopenssl-OpenSSL_1_0_1p'
p887
aS'libcryptoopenssl-OpenSSL_1_0_1o'
p888
aS'libcryptoopenssl-OpenSSL_1_0_1n'
p889
aS'libcryptoopenssl-OpenSSL_1_0_1m'
p890
aS'libcryptoopenssl-OpenSSL_1_0_1l'
p891
aS'libcryptoopenssl-OpenSSL_1_0_1k'
p892
aS'libcryptoopenssl-OpenSSL_1_0_1j'
p893
aS'libcryptoopenssl-OpenSSL_1_0_1i'
p894
aS'libcryptoopenssl-OpenSSL_1_0_1h'
p895
aS'libcryptoopenssl-OpenSSL_1_0_1g'
p896
aS'libcryptoopenssl-OpenSSL_1_0_1f'
p897
aS'libcryptoopenssl-OpenSSL_1_0_1e'
p898
aS'libcryptoopenssl-OpenSSL_1_0_1d'
p899
aS'libcryptoopenssl-OpenSSL_1_0_1c'
p900
aS'libcryptoopenssl-OpenSSL_1_0_1b'
p901
aS'libcryptoopenssl-OpenSSL_1_0_1a'
p902
aS'libcryptoopenssl-OpenSSL_1_0_2q'
p903
aS'libcryptoopenssl-OpenSSL_1_0_2f'
p904
aS'libcryptoopenssl-OpenSSL_1_0_2g'
p905
aS'libcryptoopenssl-OpenSSL_1_0_2d'
p906
aS'libcryptoopenssl-OpenSSL_1_0_2e'
p907
aS'libcryptoopenssl-OpenSSL_1_0_2b'
p908
aS'libcryptoopenssl-OpenSSL_1_0_2c'
p909
aS'libcryptoopenssl-OpenSSL_1_0_2a'
p910
aS'libcryptoopenssl-OpenSSL_1_0_2n'
p911
aS'libcryptoopenssl-OpenSSL_1_0_2o'
p912
aS'libcryptoopenssl-OpenSSL_1_0_2l'
p913
aS'libcryptoopenssl-OpenSSL_1_0_2m'
p914
aS'libcryptoopenssl-OpenSSL_1_0_2j'
p915
aS'libcryptoopenssl-OpenSSL_1_0_2k'
p916
aS'libcryptoopenssl-OpenSSL_1_0_2h'
p917
aS'libcryptoopenssl-OpenSSL_1_0_2i'
p918
aS'libcryptoopenssl-OpenSSL_0_9_7m'
p919
aS'libcryptoopenssl-OpenSSL_0_9_7l'
p920
aS'libcryptoopenssl-OpenSSL_0_9_7i'
p921
aS'libcryptoopenssl-OpenSSL_0_9_7h'
p922
aS'libcryptoopenssl-OpenSSL_0_9_7k'
p923
aS'libcryptoopenssl-OpenSSL_0_9_7j'
p924
aS'libcryptoopenssl-OpenSSL_0_9_7e'
p925
aS'libcryptoopenssl-OpenSSL_0_9_7d'
p926
aS'libcryptoopenssl-OpenSSL_0_9_7g'
p927
aS'libcryptoopenssl-OpenSSL_0_9_7f'
p928
aS'libcryptoopenssl-OpenSSL_0_9_7a'
p929
aS'libcryptoopenssl-OpenSSL_0_9_7c'
p930
aS'libcryptoopenssl-OpenSSL_0_9_7b'
p931
aS'libcryptoopenssl-OpenSSL_0_9_8'
p932
aS'libcryptoopenssl-OpenSSL_0_9_7'
p933
atp934
Rp935
sS'X509_NAME_ENTRY_set_data'
p936
g2
((lp937
S'libcryptoopenssl-OpenSSL_1_0_2'
p938
aS'libcryptoopenssl-OpenSSL_1_0_1'
p939
aS'libcryptoopenssl-OpenSSL_1_0_0'
p940
aS'libcryptoopenssl-OpenSSL_1_0_0t'
p941
aS'libcryptoopenssl-OpenSSL_1_0_0p'
p942
aS'libcryptoopenssl-OpenSSL_1_0_0q'
p943
aS'libcryptoopenssl-OpenSSL_1_0_0r'
p944
aS'libcryptoopenssl-OpenSSL_1_0_0s'
p945
aS'libcryptoopenssl-OpenSSL_1_0_0l'
p946
aS'libcryptoopenssl-OpenSSL_1_0_0m'
p947
aS'libcryptoopenssl-OpenSSL_1_0_0n'
p948
aS'libcryptoopenssl-OpenSSL_1_0_0o'
p949
aS'libcryptoopenssl-OpenSSL_1_0_0h'
p950
aS'libcryptoopenssl-OpenSSL_1_0_0i'
p951
aS'libcryptoopenssl-OpenSSL_1_0_0j'
p952
aS'libcryptoopenssl-OpenSSL_1_0_0k'
p953
aS'libcryptoopenssl-OpenSSL_1_0_0d'
p954
aS'libcryptoopenssl-OpenSSL_1_0_0e'
p955
aS'libcryptoopenssl-OpenSSL_1_0_0f'
p956
aS'libcryptoopenssl-OpenSSL_1_0_0g'
p957
aS'libcryptoopenssl-OpenSSL_1_0_0a'
p958
aS'libcryptoopenssl-OpenSSL_1_0_0b'
p959
aS'libcryptoopenssl-OpenSSL_1_0_0c'
p960
aS'libcryptoopenssl-OpenSSL_0_9_8t'
p961
aS'libcryptoopenssl-OpenSSL_0_9_8u'
p962
aS'libcryptoopenssl-OpenSSL_0_9_8v'
p963
aS'libcryptoopenssl-OpenSSL_0_9_8w'
p964
aS'libcryptoopenssl-OpenSSL_0_9_8p'
p965
aS'libcryptoopenssl-OpenSSL_0_9_8q'
p966
aS'libcryptoopenssl-OpenSSL_0_9_8r'
p967
aS'libcryptoopenssl-OpenSSL_0_9_8s'
p968
aS'libcryptoopenssl-OpenSSL_0_9_8x'
p969
aS'libcryptoopenssl-OpenSSL_0_9_8y'
p970
aS'libcryptoopenssl-OpenSSL_0_9_8d'
p971
aS'libcryptoopenssl-OpenSSL_0_9_8e'
p972
aS'libcryptoopenssl-OpenSSL_0_9_8f'
p973
aS'libcryptoopenssl-OpenSSL_0_9_8g'
p974
aS'libcryptoopenssl-OpenSSL_0_9_8a'
p975
aS'libcryptoopenssl-OpenSSL_0_9_8b'
p976
aS'libcryptoopenssl-OpenSSL_0_9_8c'
p977
aS'libcryptoopenssl-OpenSSL_0_9_8l'
p978
aS'libcryptoopenssl-OpenSSL_0_9_8m'
p979
aS'libcryptoopenssl-OpenSSL_0_9_8n'
p980
aS'libcryptoopenssl-OpenSSL_0_9_8o'
p981
aS'libcryptoopenssl-OpenSSL_0_9_8h'
p982
aS'libcryptoopenssl-OpenSSL_0_9_8i'
p983
aS'libcryptoopenssl-OpenSSL_0_9_8j'
p984
aS'libcryptoopenssl-OpenSSL_0_9_8k'
p985
aS'libcryptoopenssl-OpenSSL_1_0_1t'
p986
aS'libcryptoopenssl-OpenSSL_1_0_1s'
p987
aS'libcryptoopenssl-OpenSSL_1_0_1r'
p988
aS'libcryptoopenssl-OpenSSL_1_0_1q'
p989
aS'libcryptoopenssl-OpenSSL_1_0_1p'
p990
aS'libcryptoopenssl-OpenSSL_1_0_1o'
p991
aS'libcryptoopenssl-OpenSSL_1_0_1n'
p992
aS'libcryptoopenssl-OpenSSL_1_0_1m'
p993
aS'libcryptoopenssl-OpenSSL_1_0_1l'
p994
aS'libcryptoopenssl-OpenSSL_1_0_1k'
p995
aS'libcryptoopenssl-OpenSSL_1_0_1j'
p996
aS'libcryptoopenssl-OpenSSL_1_0_1i'
p997
aS'libcryptoopenssl-OpenSSL_1_0_1h'
p998
aS'libcryptoopenssl-OpenSSL_1_0_1g'
p999
aS'libcryptoopenssl-OpenSSL_1_0_1f'
p1000
aS'libcryptoopenssl-OpenSSL_1_0_1e'
p1001
aS'libcryptoopenssl-OpenSSL_1_0_1d'
p1002
aS'libcryptoopenssl-OpenSSL_1_0_1c'
p1003
aS'libcryptoopenssl-OpenSSL_1_0_1b'
p1004
aS'libcryptoopenssl-OpenSSL_1_0_1a'
p1005
aS'libcryptoopenssl-OpenSSL_1_0_2q'
p1006
aS'libcryptoopenssl-OpenSSL_1_0_2f'
p1007
aS'libcryptoopenssl-OpenSSL_1_0_2g'
p1008
aS'libcryptoopenssl-OpenSSL_1_0_2d'
p1009
aS'libcryptoopenssl-OpenSSL_1_0_2e'
p1010
aS'libcryptoopenssl-OpenSSL_1_0_2b'
p1011
aS'libcryptoopenssl-OpenSSL_1_0_2c'
p1012
aS'libcryptoopenssl-OpenSSL_1_0_2a'
p1013
aS'libcryptoopenssl-OpenSSL_1_0_2n'
p1014
aS'libcryptoopenssl-OpenSSL_1_0_2o'
p1015
aS'libcryptoopenssl-OpenSSL_1_0_2l'
p1016
aS'libcryptoopenssl-OpenSSL_1_0_2m'
p1017
aS'libcryptoopenssl-OpenSSL_1_0_2j'
p1018
aS'libcryptoopenssl-OpenSSL_1_0_2k'
p1019
aS'libcryptoopenssl-OpenSSL_1_0_2h'
p1020
aS'libcryptoopenssl-OpenSSL_1_0_2i'
p1021
aS'libcryptoopenssl-OpenSSL_0_9_7m'
p1022
aS'libcryptoopenssl-OpenSSL_0_9_7l'
p1023
aS'libcryptoopenssl-OpenSSL_0_9_7i'
p1024
aS'libcryptoopenssl-OpenSSL_0_9_7h'
p1025
aS'libcryptoopenssl-OpenSSL_0_9_7k'
p1026
aS'libcryptoopenssl-OpenSSL_0_9_7j'
p1027
aS'libcryptoopenssl-OpenSSL_0_9_7e'
p1028
aS'libcryptoopenssl-OpenSSL_0_9_7d'
p1029
aS'libcryptoopenssl-OpenSSL_0_9_7g'
p1030
aS'libcryptoopenssl-OpenSSL_0_9_7f'
p1031
aS'libcryptoopenssl-OpenSSL_0_9_7a'
p1032
aS'libcryptoopenssl-OpenSSL_0_9_7c'
p1033
aS'libcryptoopenssl-OpenSSL_0_9_7b'
p1034
aS'libcryptoopenssl-OpenSSL_0_9_8'
p1035
aS'libcryptoopenssl-OpenSSL_0_9_7'
p1036
atp1037
Rp1038
sS'sk_value'
p1039
g2
((lp1040
S'libcryptoopenssl-OpenSSL_0_9_8t'
p1041
aS'libcryptoopenssl-OpenSSL_0_9_8u'
p1042
aS'libcryptoopenssl-OpenSSL_0_9_8v'
p1043
aS'libcryptoopenssl-OpenSSL_0_9_8w'
p1044
aS'libcryptoopenssl-OpenSSL_0_9_8s'
p1045
aS'libcryptoopenssl-OpenSSL_0_9_8x'
p1046
atp1047
Rp1048
sS'EC_KEY_set_private_key'
p1049
g2
((lp1050
tp1051
Rp1052
sS'asn1_do_adb'
p1053
g2
((lp1054
S'libcryptoopenssl-OpenSSL_1_0_0'
p1055
aS'libcryptoopenssl-OpenSSL_1_0_0d'
p1056
aS'libcryptoopenssl-OpenSSL_1_0_0e'
p1057
aS'libcryptoopenssl-OpenSSL_1_0_0f'
p1058
aS'libcryptoopenssl-OpenSSL_1_0_0a'
p1059
aS'libcryptoopenssl-OpenSSL_1_0_0b'
p1060
aS'libcryptoopenssl-OpenSSL_1_0_0c'
p1061
aS'libcryptoopenssl-OpenSSL_0_9_8t'
p1062
aS'libcryptoopenssl-OpenSSL_0_9_8u'
p1063
aS'libcryptoopenssl-OpenSSL_0_9_8v'
p1064
aS'libcryptoopenssl-OpenSSL_0_9_8w'
p1065
aS'libcryptoopenssl-OpenSSL_0_9_8p'
p1066
aS'libcryptoopenssl-OpenSSL_0_9_8q'
p1067
aS'libcryptoopenssl-OpenSSL_0_9_8r'
p1068
aS'libcryptoopenssl-OpenSSL_0_9_8s'
p1069
aS'libcryptoopenssl-OpenSSL_0_9_8x'
p1070
aS'libcryptoopenssl-OpenSSL_0_9_8y'
p1071
aS'libcryptoopenssl-OpenSSL_0_9_8d'
p1072
aS'libcryptoopenssl-OpenSSL_0_9_8e'
p1073
aS'libcryptoopenssl-OpenSSL_0_9_8f'
p1074
aS'libcryptoopenssl-OpenSSL_0_9_8g'
p1075
aS'libcryptoopenssl-OpenSSL_0_9_8a'
p1076
aS'libcryptoopenssl-OpenSSL_0_9_8b'
p1077
aS'libcryptoopenssl-OpenSSL_0_9_8c'
p1078
aS'libcryptoopenssl-OpenSSL_0_9_8l'
p1079
aS'libcryptoopenssl-OpenSSL_0_9_8m'
p1080
aS'libcryptoopenssl-OpenSSL_0_9_8n'
p1081
aS'libcryptoopenssl-OpenSSL_0_9_8o'
p1082
aS'libcryptoopenssl-OpenSSL_0_9_8h'
p1083
aS'libcryptoopenssl-OpenSSL_0_9_8i'
p1084
aS'libcryptoopenssl-OpenSSL_0_9_8j'
p1085
aS'libcryptoopenssl-OpenSSL_0_9_8k'
p1086
aS'libcryptoopenssl-OpenSSL_0_9_8'
p1087
atp1088
Rp1089
sS'EVP_CIPHER_CTX_cleanup'
p1090
g2
((lp1091
tp1092
Rp1093
sS'X509_LOOKUP_ctrl'
p1094
g2
((lp1095
S'libcryptoopenssl-OpenSSL_1_0_2'
p1096
aS'libcryptoopenssl-OpenSSL_1_0_1'
p1097
aS'libcryptoopenssl-OpenSSL_1_0_0'
p1098
aS'libcryptoopenssl-OpenSSL_1_0_0t'
p1099
aS'libcryptoopenssl-OpenSSL_1_0_0p'
p1100
aS'libcryptoopenssl-OpenSSL_1_0_0q'
p1101
aS'libcryptoopenssl-OpenSSL_1_0_0r'
p1102
aS'libcryptoopenssl-OpenSSL_1_0_0s'
p1103
aS'libcryptoopenssl-OpenSSL_1_0_0l'
p1104
aS'libcryptoopenssl-OpenSSL_1_0_0m'
p1105
aS'libcryptoopenssl-OpenSSL_1_0_0n'
p1106
aS'libcryptoopenssl-OpenSSL_1_0_0o'
p1107
aS'libcryptoopenssl-OpenSSL_1_0_0h'
p1108
aS'libcryptoopenssl-OpenSSL_1_0_0i'
p1109
aS'libcryptoopenssl-OpenSSL_1_0_0j'
p1110
aS'libcryptoopenssl-OpenSSL_1_0_0k'
p1111
aS'libcryptoopenssl-OpenSSL_1_0_0d'
p1112
aS'libcryptoopenssl-OpenSSL_1_0_0e'
p1113
aS'libcryptoopenssl-OpenSSL_1_0_0f'
p1114
aS'libcryptoopenssl-OpenSSL_1_0_0g'
p1115
aS'libcryptoopenssl-OpenSSL_1_0_0a'
p1116
aS'libcryptoopenssl-OpenSSL_1_0_0b'
p1117
aS'libcryptoopenssl-OpenSSL_1_0_0c'
p1118
aS'libcryptoopenssl-OpenSSL_0_9_8t'
p1119
aS'libcryptoopenssl-OpenSSL_0_9_8u'
p1120
aS'libcryptoopenssl-OpenSSL_0_9_8v'
p1121
aS'libcryptoopenssl-OpenSSL_0_9_8w'
p1122
aS'libcryptoopenssl-OpenSSL_0_9_8p'
p1123
aS'libcryptoopenssl-OpenSSL_0_9_8q'
p1124
aS'libcryptoopenssl-OpenSSL_0_9_8r'
p1125
aS'libcryptoopenssl-OpenSSL_0_9_8s'
p1126
aS'libcryptoopenssl-OpenSSL_0_9_8x'
p1127
aS'libcryptoopenssl-OpenSSL_0_9_8y'
p1128
aS'libcryptoopenssl-OpenSSL_0_9_8d'
p1129
aS'libcryptoopenssl-OpenSSL_0_9_8e'
p1130
aS'libcryptoopenssl-OpenSSL_0_9_8f'
p1131
aS'libcryptoopenssl-OpenSSL_0_9_8g'
p1132
aS'libcryptoopenssl-OpenSSL_0_9_8a'
p1133
aS'libcryptoopenssl-OpenSSL_0_9_8b'
p1134
aS'libcryptoopenssl-OpenSSL_0_9_8c'
p1135
aS'libcryptoopenssl-OpenSSL_0_9_8l'
p1136
aS'libcryptoopenssl-OpenSSL_0_9_8m'
p1137
aS'libcryptoopenssl-OpenSSL_0_9_8n'
p1138
aS'libcryptoopenssl-OpenSSL_0_9_8o'
p1139
aS'libcryptoopenssl-OpenSSL_0_9_8h'
p1140
aS'libcryptoopenssl-OpenSSL_0_9_8i'
p1141
aS'libcryptoopenssl-OpenSSL_0_9_8j'
p1142
aS'libcryptoopenssl-OpenSSL_0_9_8k'
p1143
aS'libcryptoopenssl-OpenSSL_1_0_1t'
p1144
aS'libcryptoopenssl-OpenSSL_1_0_1s'
p1145
aS'libcryptoopenssl-OpenSSL_1_0_1r'
p1146
aS'libcryptoopenssl-OpenSSL_1_0_1q'
p1147
aS'libcryptoopenssl-OpenSSL_1_0_1p'
p1148
aS'libcryptoopenssl-OpenSSL_1_0_1o'
p1149
aS'libcryptoopenssl-OpenSSL_1_0_1n'
p1150
aS'libcryptoopenssl-OpenSSL_1_0_1m'
p1151
aS'libcryptoopenssl-OpenSSL_1_0_1l'
p1152
aS'libcryptoopenssl-OpenSSL_1_0_1k'
p1153
aS'libcryptoopenssl-OpenSSL_1_0_1j'
p1154
aS'libcryptoopenssl-OpenSSL_1_0_1i'
p1155
aS'libcryptoopenssl-OpenSSL_1_0_1h'
p1156
aS'libcryptoopenssl-OpenSSL_1_0_1g'
p1157
aS'libcryptoopenssl-OpenSSL_1_0_1f'
p1158
aS'libcryptoopenssl-OpenSSL_1_0_1e'
p1159
aS'libcryptoopenssl-OpenSSL_1_0_1d'
p1160
aS'libcryptoopenssl-OpenSSL_1_0_1c'
p1161
aS'libcryptoopenssl-OpenSSL_1_0_1b'
p1162
aS'libcryptoopenssl-OpenSSL_1_0_1a'
p1163
aS'libcryptoopenssl-OpenSSL_1_1_0'
p1164
aS'libcryptoopenssl-OpenSSL_1_0_2q'
p1165
aS'libcryptoopenssl-OpenSSL_1_0_2f'
p1166
aS'libcryptoopenssl-OpenSSL_1_0_2g'
p1167
aS'libcryptoopenssl-OpenSSL_1_0_2d'
p1168
aS'libcryptoopenssl-OpenSSL_1_0_2e'
p1169
aS'libcryptoopenssl-OpenSSL_1_0_2b'
p1170
aS'libcryptoopenssl-OpenSSL_1_0_2c'
p1171
aS'libcryptoopenssl-OpenSSL_1_0_2a'
p1172
aS'libcryptoopenssl-OpenSSL_1_0_2n'
p1173
aS'libcryptoopenssl-OpenSSL_1_0_2o'
p1174
aS'libcryptoopenssl-OpenSSL_1_0_2l'
p1175
aS'libcryptoopenssl-OpenSSL_1_0_2m'
p1176
aS'libcryptoopenssl-OpenSSL_1_0_2j'
p1177
aS'libcryptoopenssl-OpenSSL_1_0_2k'
p1178
aS'libcryptoopenssl-OpenSSL_1_0_2h'
p1179
aS'libcryptoopenssl-OpenSSL_1_0_2i'
p1180
aS'libcryptoopenssl-OpenSSL_0_9_7m'
p1181
aS'libcryptoopenssl-OpenSSL_0_9_7l'
p1182
aS'libcryptoopenssl-OpenSSL_0_9_7i'
p1183
aS'libcryptoopenssl-OpenSSL_0_9_7h'
p1184
aS'libcryptoopenssl-OpenSSL_0_9_7k'
p1185
aS'libcryptoopenssl-OpenSSL_0_9_7j'
p1186
aS'libcryptoopenssl-OpenSSL_0_9_7e'
p1187
aS'libcryptoopenssl-OpenSSL_0_9_7d'
p1188
aS'libcryptoopenssl-OpenSSL_0_9_7g'
p1189
aS'libcryptoopenssl-OpenSSL_0_9_7f'
p1190
aS'libcryptoopenssl-OpenSSL_0_9_7a'
p1191
aS'libcryptoopenssl-OpenSSL_0_9_7c'
p1192
aS'libcryptoopenssl-OpenSSL_0_9_7b'
p1193
aS'libcryptoopenssl-OpenSSL_1_1_0g'
p1194
aS'libcryptoopenssl-OpenSSL_1_1_0f'
p1195
aS'libcryptoopenssl-OpenSSL_1_1_0e'
p1196
aS'libcryptoopenssl-OpenSSL_1_1_0d'
p1197
aS'libcryptoopenssl-OpenSSL_1_1_0c'
p1198
aS'libcryptoopenssl-OpenSSL_1_1_0b'
p1199
aS'libcryptoopenssl-OpenSSL_1_1_0a'
p1200
aS'libcryptoopenssl-OpenSSL_1_1_0h'
p1201
aS'libcryptoopenssl-OpenSSL_0_9_8'
p1202
aS'libcryptoopenssl-OpenSSL_0_9_7'
p1203
atp1204
Rp1205
sS'trust_1oid'
p1206
g2
((lp1207
S'libcryptoopenssl-OpenSSL_0_9_8t'
p1208
aS'libcryptoopenssl-OpenSSL_0_9_8u'
p1209
aS'libcryptoopenssl-OpenSSL_0_9_8v'
p1210
aS'libcryptoopenssl-OpenSSL_0_9_8w'
p1211
aS'libcryptoopenssl-OpenSSL_0_9_8s'
p1212
aS'libcryptoopenssl-OpenSSL_0_9_8x'
p1213
atp1214
Rp1215
sS'BUF_MEM_new'
p1216
g2
((lp1217
tp1218
Rp1219
sS'ASN1_d2i_bio'
p1220
g2
((lp1221
tp1222
Rp1223
sS'SHA_Update'
p1224
g2
((lp1225
S'libcryptoopenssl-OpenSSL_1_0_2e'
p1226
aS'libcryptoopenssl-OpenSSL_1_0_1j'
p1227
aS'libcryptoopenssl-OpenSSL_1_0_0n'
p1228
aS'libcryptoopenssl-OpenSSL_1_0_2q'
p1229
aS'libcryptoopenssl-OpenSSL_1_0_1'
p1230
aS'libcryptoopenssl-OpenSSL_1_0_0'
p1231
aS'libcryptoopenssl-OpenSSL_1_0_0l'
p1232
aS'libcryptoopenssl-OpenSSL_1_0_2b'
p1233
aS'libcryptoopenssl-OpenSSL_1_0_0m'
p1234
aS'libcryptoopenssl-OpenSSL_1_0_0t'
p1235
aS'libcryptoopenssl-OpenSSL_1_0_2i'
p1236
aS'libcryptoopenssl-OpenSSL_1_0_0p'
p1237
aS'libcryptoopenssl-OpenSSL_1_0_0q'
p1238
aS'libcryptoopenssl-OpenSSL_1_0_0r'
p1239
aS'libcryptoopenssl-OpenSSL_1_0_0s'
p1240
aS'libcryptoopenssl-OpenSSL_1_0_2f'
p1241
aS'libcryptoopenssl-OpenSSL_1_0_2g'
p1242
aS'libcryptoopenssl-OpenSSL_1_0_2d'
p1243
aS'libcryptoopenssl-OpenSSL_1_0_0o'
p1244
aS'libcryptoopenssl-OpenSSL_1_0_0h'
p1245
aS'libcryptoopenssl-OpenSSL_1_0_2c'
p1246
aS'libcryptoopenssl-OpenSSL_1_0_0j'
p1247
aS'libcryptoopenssl-OpenSSL_1_0_2a'
p1248
aS'libcryptoopenssl-OpenSSL_1_0_2n'
p1249
aS'libcryptoopenssl-OpenSSL_1_0_2o'
p1250
aS'libcryptoopenssl-OpenSSL_1_0_0f'
p1251
aS'libcryptoopenssl-OpenSSL_1_0_0g'
p1252
aS'libcryptoopenssl-OpenSSL_1_0_2j'
p1253
aS'libcryptoopenssl-OpenSSL_1_0_0a'
p1254
aS'libcryptoopenssl-OpenSSL_1_0_0b'
p1255
aS'libcryptoopenssl-OpenSSL_1_0_0c'
p1256
aS'libcryptoopenssl-OpenSSL_0_9_8t'
p1257
aS'libcryptoopenssl-OpenSSL_0_9_8u'
p1258
aS'libcryptoopenssl-OpenSSL_0_9_8v'
p1259
aS'libcryptoopenssl-OpenSSL_0_9_8w'
p1260
aS'libcryptoopenssl-OpenSSL_0_9_8p'
p1261
aS'libcryptoopenssl-OpenSSL_0_9_8q'
p1262
aS'libcryptoopenssl-OpenSSL_0_9_8r'
p1263
aS'libcryptoopenssl-OpenSSL_0_9_8s'
p1264
aS'libcryptoopenssl-OpenSSL_1_0_0k'
p1265
aS'libcryptoopenssl-OpenSSL_0_9_8x'
p1266
aS'libcryptoopenssl-OpenSSL_0_9_8y'
p1267
aS'libcryptoopenssl-OpenSSL_1_0_0d'
p1268
aS'libcryptoopenssl-OpenSSL_1_0_0e'
p1269
aS'libcryptoopenssl-OpenSSL_0_9_8m'
p1270
aS'libcryptoopenssl-OpenSSL_0_9_8n'
p1271
aS'libcryptoopenssl-OpenSSL_0_9_8o'
p1272
aS'libcryptoopenssl-OpenSSL_1_0_2'
p1273
aS'libcryptoopenssl-OpenSSL_1_0_2l'
p1274
aS'libcryptoopenssl-OpenSSL_1_0_2k'
p1275
aS'libcryptoopenssl-OpenSSL_1_0_0i'
p1276
aS'libcryptoopenssl-OpenSSL_1_0_2m'
p1277
aS'libcryptoopenssl-OpenSSL_1_0_1t'
p1278
aS'libcryptoopenssl-OpenSSL_1_0_1s'
p1279
aS'libcryptoopenssl-OpenSSL_1_0_1r'
p1280
aS'libcryptoopenssl-OpenSSL_1_0_1q'
p1281
aS'libcryptoopenssl-OpenSSL_1_0_1p'
p1282
aS'libcryptoopenssl-OpenSSL_1_0_1o'
p1283
aS'libcryptoopenssl-OpenSSL_1_0_1n'
p1284
aS'libcryptoopenssl-OpenSSL_1_0_1m'
p1285
aS'libcryptoopenssl-OpenSSL_1_0_1l'
p1286
aS'libcryptoopenssl-OpenSSL_1_0_1k'
p1287
aS'libcryptoopenssl-OpenSSL_1_0_2h'
p1288
aS'libcryptoopenssl-OpenSSL_1_0_1i'
p1289
aS'libcryptoopenssl-OpenSSL_1_0_1h'
p1290
aS'libcryptoopenssl-OpenSSL_1_0_1g'
p1291
aS'libcryptoopenssl-OpenSSL_1_0_1f'
p1292
aS'libcryptoopenssl-OpenSSL_1_0_1e'
p1293
aS'libcryptoopenssl-OpenSSL_1_0_1d'
p1294
aS'libcryptoopenssl-OpenSSL_1_0_1c'
p1295
aS'libcryptoopenssl-OpenSSL_1_0_1b'
p1296
aS'libcryptoopenssl-OpenSSL_1_0_1a'
p1297
atp1298
Rp1299
sS'X509_OBJECT_retrieve_match'
p1300
g2
((lp1301
S'libcryptoopenssl-OpenSSL_0_9_8t'
p1302
aS'libcryptoopenssl-OpenSSL_0_9_8u'
p1303
aS'libcryptoopenssl-OpenSSL_0_9_8v'
p1304
aS'libcryptoopenssl-OpenSSL_0_9_8w'
p1305
aS'libcryptoopenssl-OpenSSL_0_9_8s'
p1306
aS'libcryptoopenssl-OpenSSL_0_9_8x'
p1307
atp1308
Rp1309
sS'BN_RECP_CTX_free'
p1310
g2
((lp1311
tp1312
Rp1313
sS'OBJ_cmp'
p1314
g2
((lp1315
S'libcryptoopenssl-OpenSSL_0_9_8t'
p1316
aS'libcryptoopenssl-OpenSSL_0_9_8u'
p1317
aS'libcryptoopenssl-OpenSSL_0_9_8v'
p1318
aS'libcryptoopenssl-OpenSSL_0_9_8w'
p1319
aS'libcryptoopenssl-OpenSSL_0_9_8s'
p1320
aS'libcryptoopenssl-OpenSSL_0_9_8x'
p1321
atp1322
Rp1323
sS'gf2m_Madd'
p1324
g2
((lp1325
tp1326
Rp1327
sS'BN_gcd'
p1328
g2
((lp1329
tp1330
Rp1331
sS'EC_POINT_set_affine_coordinates_GF2m'
p1332
g2
((lp1333
tp1334
Rp1335
sS'AES_cfbr_encrypt_block'
p1336
g2
((lp1337
S'libcryptoopenssl-OpenSSL_0_9_8t'
p1338
aS'libcryptoopenssl-OpenSSL_0_9_8u'
p1339
aS'libcryptoopenssl-OpenSSL_0_9_8v'
p1340
aS'libcryptoopenssl-OpenSSL_0_9_8w'
p1341
aS'libcryptoopenssl-OpenSSL_0_9_8p'
p1342
aS'libcryptoopenssl-OpenSSL_0_9_8q'
p1343
aS'libcryptoopenssl-OpenSSL_0_9_8r'
p1344
aS'libcryptoopenssl-OpenSSL_0_9_8s'
p1345
aS'libcryptoopenssl-OpenSSL_0_9_8x'
p1346
aS'libcryptoopenssl-OpenSSL_0_9_8y'
p1347
aS'libcryptoopenssl-OpenSSL_0_9_8m'
p1348
aS'libcryptoopenssl-OpenSSL_0_9_8n'
p1349
aS'libcryptoopenssl-OpenSSL_0_9_8o'
p1350
atp1351
Rp1352
sS'EC_KEY_set_public_key'
p1353
g2
((lp1354
tp1355
Rp1356
sS'X509_OBJECT_retrieve_by_subject'
p1357
g2
((lp1358
S'libcryptoopenssl-OpenSSL_0_9_7m'
p1359
aS'libcryptoopenssl-OpenSSL_0_9_7l'
p1360
aS'libcryptoopenssl-OpenSSL_0_9_7i'
p1361
aS'libcryptoopenssl-OpenSSL_0_9_7h'
p1362
aS'libcryptoopenssl-OpenSSL_0_9_7k'
p1363
aS'libcryptoopenssl-OpenSSL_0_9_7j'
p1364
aS'libcryptoopenssl-OpenSSL_0_9_7e'
p1365
aS'libcryptoopenssl-OpenSSL_0_9_7g'
p1366
aS'libcryptoopenssl-OpenSSL_0_9_7f'
p1367
aS'libcryptoopenssl-OpenSSL_0_9_8d'
p1368
aS'libcryptoopenssl-OpenSSL_0_9_8e'
p1369
aS'libcryptoopenssl-OpenSSL_0_9_8f'
p1370
aS'libcryptoopenssl-OpenSSL_0_9_8g'
p1371
aS'libcryptoopenssl-OpenSSL_0_9_8a'
p1372
aS'libcryptoopenssl-OpenSSL_0_9_8b'
p1373
aS'libcryptoopenssl-OpenSSL_0_9_8c'
p1374
aS'libcryptoopenssl-OpenSSL_0_9_8l'
p1375
aS'libcryptoopenssl-OpenSSL_0_9_8m'
p1376
aS'libcryptoopenssl-OpenSSL_0_9_8n'
p1377
aS'libcryptoopenssl-OpenSSL_0_9_8o'
p1378
aS'libcryptoopenssl-OpenSSL_0_9_8h'
p1379
aS'libcryptoopenssl-OpenSSL_0_9_8i'
p1380
aS'libcryptoopenssl-OpenSSL_0_9_8j'
p1381
aS'libcryptoopenssl-OpenSSL_0_9_8k'
p1382
aS'libcryptoopenssl-OpenSSL_0_9_8'
p1383
atp1384
Rp1385
sS'OBJ_NAME_remove'
p1386
g2
((lp1387
S'libcryptoopenssl-OpenSSL_0_9_8t'
p1388
aS'libcryptoopenssl-OpenSSL_0_9_8u'
p1389
aS'libcryptoopenssl-OpenSSL_0_9_8v'
p1390
aS'libcryptoopenssl-OpenSSL_0_9_8w'
p1391
aS'libcryptoopenssl-OpenSSL_0_9_8s'
p1392
aS'libcryptoopenssl-OpenSSL_0_9_8x'
p1393
atp1394
Rp1395
sS'RC2_decrypt'
p1396
g2
((lp1397
S'libcryptoopenssl-OpenSSL_0_9_7m'
p1398
aS'libcryptoopenssl-OpenSSL_0_9_7l'
p1399
aS'libcryptoopenssl-OpenSSL_0_9_7i'
p1400
aS'libcryptoopenssl-OpenSSL_0_9_7h'
p1401
aS'libcryptoopenssl-OpenSSL_0_9_7k'
p1402
aS'libcryptoopenssl-OpenSSL_0_9_7j'
p1403
aS'libcryptoopenssl-OpenSSL_0_9_7e'
p1404
aS'libcryptoopenssl-OpenSSL_0_9_7d'
p1405
aS'libcryptoopenssl-OpenSSL_0_9_7g'
p1406
aS'libcryptoopenssl-OpenSSL_0_9_7f'
p1407
aS'libcryptoopenssl-OpenSSL_0_9_7a'
p1408
aS'libcryptoopenssl-OpenSSL_0_9_7c'
p1409
aS'libcryptoopenssl-OpenSSL_0_9_7b'
p1410
aS'libcryptoopenssl-OpenSSL_0_9_8t'
p1411
aS'libcryptoopenssl-OpenSSL_0_9_8u'
p1412
aS'libcryptoopenssl-OpenSSL_0_9_8v'
p1413
aS'libcryptoopenssl-OpenSSL_0_9_8w'
p1414
aS'libcryptoopenssl-OpenSSL_0_9_8p'
p1415
aS'libcryptoopenssl-OpenSSL_0_9_8q'
p1416
aS'libcryptoopenssl-OpenSSL_0_9_8r'
p1417
aS'libcryptoopenssl-OpenSSL_0_9_8s'
p1418
aS'libcryptoopenssl-OpenSSL_0_9_8x'
p1419
aS'libcryptoopenssl-OpenSSL_0_9_8y'
p1420
aS'libcryptoopenssl-OpenSSL_0_9_8d'
p1421
aS'libcryptoopenssl-OpenSSL_0_9_8e'
p1422
aS'libcryptoopenssl-OpenSSL_0_9_8f'
p1423
aS'libcryptoopenssl-OpenSSL_0_9_8g'
p1424
aS'libcryptoopenssl-OpenSSL_0_9_8a'
p1425
aS'libcryptoopenssl-OpenSSL_0_9_8b'
p1426
aS'libcryptoopenssl-OpenSSL_0_9_8c'
p1427
aS'libcryptoopenssl-OpenSSL_0_9_8l'
p1428
aS'libcryptoopenssl-OpenSSL_0_9_8m'
p1429
aS'libcryptoopenssl-OpenSSL_0_9_8n'
p1430
aS'libcryptoopenssl-OpenSSL_0_9_8o'
p1431
aS'libcryptoopenssl-OpenSSL_0_9_8h'
p1432
aS'libcryptoopenssl-OpenSSL_0_9_8i'
p1433
aS'libcryptoopenssl-OpenSSL_0_9_8j'
p1434
aS'libcryptoopenssl-OpenSSL_0_9_8k'
p1435
aS'libcryptoopenssl-OpenSSL_0_9_8'
p1436
aS'libcryptoopenssl-OpenSSL_0_9_7'
p1437
atp1438
Rp1439
sS'free_string'
p1440
g2
((lp1441
tp1442
Rp1443
sS'BN_lshift'
p1444
g2
((lp1445
tp1446
Rp1447
sS'ASN1_STRING_cmp'
p1448
g2
((lp1449
S'libcryptoopenssl-OpenSSL_0_9_8t'
p1450
aS'libcryptoopenssl-OpenSSL_0_9_8u'
p1451
aS'libcryptoopenssl-OpenSSL_0_9_8v'
p1452
aS'libcryptoopenssl-OpenSSL_0_9_8w'
p1453
aS'libcryptoopenssl-OpenSSL_0_9_8s'
p1454
aS'libcryptoopenssl-OpenSSL_0_9_8x'
p1455
atp1456
Rp1457
sS'tls1_setup_key_block'
p1458
g2
((lp1459
S'libsslopenssl-OpenSSL_0_9_8l'
p1460
aS'libsslopenssl-OpenSSL_0_9_8m'
p1461
aS'libsslopenssl-OpenSSL_0_9_8n'
p1462
aS'libsslopenssl-OpenSSL_0_9_8o'
p1463
aS'libsslopenssl-OpenSSL_0_9_8e'
p1464
aS'libsslopenssl-OpenSSL_0_9_8f'
p1465
aS'libsslopenssl-OpenSSL_0_9_8g'
p1466
aS'libsslopenssl-OpenSSL_0_9_8x'
p1467
aS'libsslopenssl-OpenSSL_0_9_8y'
p1468
aS'libsslopenssl-OpenSSL_0_9_8t'
p1469
aS'libsslopenssl-OpenSSL_0_9_8u'
p1470
aS'libsslopenssl-OpenSSL_0_9_8v'
p1471
aS'libsslopenssl-OpenSSL_0_9_8w'
p1472
aS'libsslopenssl-OpenSSL_0_9_8p'
p1473
aS'libsslopenssl-OpenSSL_0_9_8q'
p1474
aS'libsslopenssl-OpenSSL_0_9_8r'
p1475
aS'libsslopenssl-OpenSSL_0_9_8s'
p1476
atp1477
Rp1478
sS'OBJ_NAME_do_all'
p1479
g2
((lp1480
S'libcryptoopenssl-OpenSSL_0_9_7m'
p1481
aS'libcryptoopenssl-OpenSSL_0_9_7l'
p1482
aS'libcryptoopenssl-OpenSSL_0_9_7i'
p1483
aS'libcryptoopenssl-OpenSSL_0_9_7h'
p1484
aS'libcryptoopenssl-OpenSSL_0_9_7k'
p1485
aS'libcryptoopenssl-OpenSSL_0_9_7j'
p1486
aS'libcryptoopenssl-OpenSSL_0_9_7e'
p1487
aS'libcryptoopenssl-OpenSSL_0_9_7d'
p1488
aS'libcryptoopenssl-OpenSSL_0_9_7g'
p1489
aS'libcryptoopenssl-OpenSSL_0_9_7f'
p1490
aS'libcryptoopenssl-OpenSSL_0_9_7a'
p1491
aS'libcryptoopenssl-OpenSSL_0_9_7c'
p1492
aS'libcryptoopenssl-OpenSSL_0_9_7b'
p1493
aS'libcryptoopenssl-OpenSSL_0_9_8t'
p1494
aS'libcryptoopenssl-OpenSSL_0_9_8u'
p1495
aS'libcryptoopenssl-OpenSSL_0_9_8v'
p1496
aS'libcryptoopenssl-OpenSSL_0_9_8w'
p1497
aS'libcryptoopenssl-OpenSSL_0_9_8p'
p1498
aS'libcryptoopenssl-OpenSSL_0_9_8q'
p1499
aS'libcryptoopenssl-OpenSSL_0_9_8r'
p1500
aS'libcryptoopenssl-OpenSSL_0_9_8s'
p1501
aS'libcryptoopenssl-OpenSSL_0_9_8x'
p1502
aS'libcryptoopenssl-OpenSSL_0_9_8y'
p1503
aS'libcryptoopenssl-OpenSSL_0_9_8d'
p1504
aS'libcryptoopenssl-OpenSSL_0_9_8e'
p1505
aS'libcryptoopenssl-OpenSSL_0_9_8f'
p1506
aS'libcryptoopenssl-OpenSSL_0_9_8g'
p1507
aS'libcryptoopenssl-OpenSSL_0_9_8a'
p1508
aS'libcryptoopenssl-OpenSSL_0_9_8b'
p1509
aS'libcryptoopenssl-OpenSSL_0_9_8c'
p1510
aS'libcryptoopenssl-OpenSSL_0_9_8l'
p1511
aS'libcryptoopenssl-OpenSSL_0_9_8m'
p1512
aS'libcryptoopenssl-OpenSSL_0_9_8n'
p1513
aS'libcryptoopenssl-OpenSSL_0_9_8o'
p1514
aS'libcryptoopenssl-OpenSSL_0_9_8h'
p1515
aS'libcryptoopenssl-OpenSSL_0_9_8i'
p1516
aS'libcryptoopenssl-OpenSSL_0_9_8j'
p1517
aS'libcryptoopenssl-OpenSSL_0_9_8k'
p1518
aS'libcryptoopenssl-OpenSSL_0_9_8'
p1519
aS'libcryptoopenssl-OpenSSL_0_9_7'
p1520
atp1521
Rp1522
sS'write_string'
p1523
g2
((lp1524
S'libcryptoopenssl-OpenSSL_1_0_2'
p1525
aS'libcryptoopenssl-OpenSSL_1_0_1'
p1526
aS'libcryptoopenssl-OpenSSL_1_0_0'
p1527
aS'libcryptoopenssl-OpenSSL_1_0_0t'
p1528
aS'libcryptoopenssl-OpenSSL_1_0_0p'
p1529
aS'libcryptoopenssl-OpenSSL_1_0_0q'
p1530
aS'libcryptoopenssl-OpenSSL_1_0_0r'
p1531
aS'libcryptoopenssl-OpenSSL_1_0_0s'
p1532
aS'libcryptoopenssl-OpenSSL_1_0_0l'
p1533
aS'libcryptoopenssl-OpenSSL_1_0_0m'
p1534
aS'libcryptoopenssl-OpenSSL_1_0_0n'
p1535
aS'libcryptoopenssl-OpenSSL_1_0_0o'
p1536
aS'libcryptoopenssl-OpenSSL_1_0_0h'
p1537
aS'libcryptoopenssl-OpenSSL_1_0_0i'
p1538
aS'libcryptoopenssl-OpenSSL_1_0_0j'
p1539
aS'libcryptoopenssl-OpenSSL_1_0_0k'
p1540
aS'libcryptoopenssl-OpenSSL_1_0_0d'
p1541
aS'libcryptoopenssl-OpenSSL_1_0_0e'
p1542
aS'libcryptoopenssl-OpenSSL_1_0_0f'
p1543
aS'libcryptoopenssl-OpenSSL_1_0_0g'
p1544
aS'libcryptoopenssl-OpenSSL_1_0_0a'
p1545
aS'libcryptoopenssl-OpenSSL_1_0_0b'
p1546
aS'libcryptoopenssl-OpenSSL_1_0_0c'
p1547
aS'libcryptoopenssl-OpenSSL_0_9_8t'
p1548
aS'libcryptoopenssl-OpenSSL_0_9_8u'
p1549
aS'libcryptoopenssl-OpenSSL_0_9_8v'
p1550
aS'libcryptoopenssl-OpenSSL_0_9_8w'
p1551
aS'libcryptoopenssl-OpenSSL_0_9_8p'
p1552
aS'libcryptoopenssl-OpenSSL_0_9_8q'
p1553
aS'libcryptoopenssl-OpenSSL_0_9_8r'
p1554
aS'libcryptoopenssl-OpenSSL_0_9_8s'
p1555
aS'libcryptoopenssl-OpenSSL_0_9_8x'
p1556
aS'libcryptoopenssl-OpenSSL_0_9_8y'
p1557
aS'libcryptoopenssl-OpenSSL_0_9_8d'
p1558
aS'libcryptoopenssl-OpenSSL_0_9_8e'
p1559
aS'libcryptoopenssl-OpenSSL_0_9_8f'
p1560
aS'libcryptoopenssl-OpenSSL_0_9_8g'
p1561
aS'libcryptoopenssl-OpenSSL_0_9_8a'
p1562
aS'libcryptoopenssl-OpenSSL_0_9_8b'
p1563
aS'libcryptoopenssl-OpenSSL_0_9_8c'
p1564
aS'libcryptoopenssl-OpenSSL_0_9_8l'
p1565
aS'libcryptoopenssl-OpenSSL_0_9_8m'
p1566
aS'libcryptoopenssl-OpenSSL_0_9_8n'
p1567
aS'libcryptoopenssl-OpenSSL_0_9_8o'
p1568
aS'libcryptoopenssl-OpenSSL_0_9_8h'
p1569
aS'libcryptoopenssl-OpenSSL_0_9_8i'
p1570
aS'libcryptoopenssl-OpenSSL_0_9_8j'
p1571
aS'libcryptoopenssl-OpenSSL_0_9_8k'
p1572
aS'libcryptoopenssl-OpenSSL_1_0_1t'
p1573
aS'libcryptoopenssl-OpenSSL_1_0_1s'
p1574
aS'libcryptoopenssl-OpenSSL_1_0_1r'
p1575
aS'libcryptoopenssl-OpenSSL_1_0_1q'
p1576
aS'libcryptoopenssl-OpenSSL_1_0_1p'
p1577
aS'libcryptoopenssl-OpenSSL_1_0_1o'
p1578
aS'libcryptoopenssl-OpenSSL_1_0_1n'
p1579
aS'libcryptoopenssl-OpenSSL_1_0_1m'
p1580
aS'libcryptoopenssl-OpenSSL_1_0_1l'
p1581
aS'libcryptoopenssl-OpenSSL_1_0_1k'
p1582
aS'libcryptoopenssl-OpenSSL_1_0_1j'
p1583
aS'libcryptoopenssl-OpenSSL_1_0_1i'
p1584
aS'libcryptoopenssl-OpenSSL_1_0_1h'
p1585
aS'libcryptoopenssl-OpenSSL_1_0_1g'
p1586
aS'libcryptoopenssl-OpenSSL_1_0_1f'
p1587
aS'libcryptoopenssl-OpenSSL_1_0_1e'
p1588
aS'libcryptoopenssl-OpenSSL_1_0_1d'
p1589
aS'libcryptoopenssl-OpenSSL_1_0_1c'
p1590
aS'libcryptoopenssl-OpenSSL_1_0_1b'
p1591
aS'libcryptoopenssl-OpenSSL_1_0_1a'
p1592
aS'libcryptoopenssl-OpenSSL_1_1_0'
p1593
aS'libcryptoopenssl-OpenSSL_1_0_2q'
p1594
aS'libcryptoopenssl-OpenSSL_1_0_2f'
p1595
aS'libcryptoopenssl-OpenSSL_1_0_2g'
p1596
aS'libcryptoopenssl-OpenSSL_1_0_2d'
p1597
aS'libcryptoopenssl-OpenSSL_1_0_2e'
p1598
aS'libcryptoopenssl-OpenSSL_1_0_2b'
p1599
aS'libcryptoopenssl-OpenSSL_1_0_2c'
p1600
aS'libcryptoopenssl-OpenSSL_1_0_2a'
p1601
aS'libcryptoopenssl-OpenSSL_1_0_2n'
p1602
aS'libcryptoopenssl-OpenSSL_1_0_2o'
p1603
aS'libcryptoopenssl-OpenSSL_1_0_2l'
p1604
aS'libcryptoopenssl-OpenSSL_1_0_2m'
p1605
aS'libcryptoopenssl-OpenSSL_1_0_2j'
p1606
aS'libcryptoopenssl-OpenSSL_1_0_2k'
p1607
aS'libcryptoopenssl-OpenSSL_1_0_2h'
p1608
aS'libcryptoopenssl-OpenSSL_1_0_2i'
p1609
aS'libcryptoopenssl-OpenSSL_0_9_7m'
p1610
aS'libcryptoopenssl-OpenSSL_0_9_7l'
p1611
aS'libcryptoopenssl-OpenSSL_0_9_7i'
p1612
aS'libcryptoopenssl-OpenSSL_0_9_7h'
p1613
aS'libcryptoopenssl-OpenSSL_0_9_7k'
p1614
aS'libcryptoopenssl-OpenSSL_0_9_7j'
p1615
aS'libcryptoopenssl-OpenSSL_0_9_7e'
p1616
aS'libcryptoopenssl-OpenSSL_0_9_7d'
p1617
aS'libcryptoopenssl-OpenSSL_0_9_7g'
p1618
aS'libcryptoopenssl-OpenSSL_0_9_7f'
p1619
aS'libcryptoopenssl-OpenSSL_0_9_7a'
p1620
aS'libcryptoopenssl-OpenSSL_0_9_7c'
p1621
aS'libcryptoopenssl-OpenSSL_0_9_7b'
p1622
aS'libcryptoopenssl-OpenSSL_0_9_8'
p1623
aS'libcryptoopenssl-OpenSSL_0_9_7'
p1624
atp1625
Rp1626
sS'ASN1_INTEGER_cmp'
p1627
g2
((lp1628
S'libcryptoopenssl-OpenSSL_0_9_8t'
p1629
aS'libcryptoopenssl-OpenSSL_0_9_8u'
p1630
aS'libcryptoopenssl-OpenSSL_0_9_8v'
p1631
aS'libcryptoopenssl-OpenSSL_0_9_8w'
p1632
aS'libcryptoopenssl-OpenSSL_0_9_8s'
p1633
aS'libcryptoopenssl-OpenSSL_0_9_8x'
p1634
atp1635
Rp1636
sS'X509_check_issued'
p1637
g2
((lp1638
S'libcryptoopenssl-OpenSSL_0_9_8t'
p1639
aS'libcryptoopenssl-OpenSSL_0_9_8u'
p1640
aS'libcryptoopenssl-OpenSSL_0_9_8v'
p1641
aS'libcryptoopenssl-OpenSSL_0_9_8w'
p1642
aS'libcryptoopenssl-OpenSSL_0_9_8s'
p1643
aS'libcryptoopenssl-OpenSSL_0_9_8x'
p1644
atp1645
Rp1646
sS'obj_name_hash'
p1647
g2
((lp1648
S'libcryptoopenssl-OpenSSL_0_9_8t'
p1649
aS'libcryptoopenssl-OpenSSL_0_9_8u'
p1650
aS'libcryptoopenssl-OpenSSL_0_9_8v'
p1651
aS'libcryptoopenssl-OpenSSL_0_9_8w'
p1652
aS'libcryptoopenssl-OpenSSL_0_9_8s'
p1653
aS'libcryptoopenssl-OpenSSL_0_9_8x'
p1654
atp1655
Rp1656
sS'cast5_ecb_cipher'
p1657
g2
((lp1658
S'libcryptoopenssl-OpenSSL_0_9_7m'
p1659
aS'libcryptoopenssl-OpenSSL_0_9_7l'
p1660
aS'libcryptoopenssl-OpenSSL_0_9_7i'
p1661
aS'libcryptoopenssl-OpenSSL_0_9_7h'
p1662
aS'libcryptoopenssl-OpenSSL_0_9_7k'
p1663
aS'libcryptoopenssl-OpenSSL_0_9_7j'
p1664
aS'libcryptoopenssl-OpenSSL_0_9_7e'
p1665
aS'libcryptoopenssl-OpenSSL_0_9_7d'
p1666
aS'libcryptoopenssl-OpenSSL_0_9_7g'
p1667
aS'libcryptoopenssl-OpenSSL_0_9_7f'
p1668
aS'libcryptoopenssl-OpenSSL_0_9_7a'
p1669
aS'libcryptoopenssl-OpenSSL_0_9_7c'
p1670
aS'libcryptoopenssl-OpenSSL_0_9_7b'
p1671
aS'libcryptoopenssl-OpenSSL_0_9_8t'
p1672
aS'libcryptoopenssl-OpenSSL_0_9_8u'
p1673
aS'libcryptoopenssl-OpenSSL_0_9_8v'
p1674
aS'libcryptoopenssl-OpenSSL_0_9_8w'
p1675
aS'libcryptoopenssl-OpenSSL_0_9_8p'
p1676
aS'libcryptoopenssl-OpenSSL_0_9_8q'
p1677
aS'libcryptoopenssl-OpenSSL_0_9_8r'
p1678
aS'libcryptoopenssl-OpenSSL_0_9_8s'
p1679
aS'libcryptoopenssl-OpenSSL_0_9_8x'
p1680
aS'libcryptoopenssl-OpenSSL_0_9_8y'
p1681
aS'libcryptoopenssl-OpenSSL_0_9_8d'
p1682
aS'libcryptoopenssl-OpenSSL_0_9_8e'
p1683
aS'libcryptoopenssl-OpenSSL_0_9_8f'
p1684
aS'libcryptoopenssl-OpenSSL_0_9_8g'
p1685
aS'libcryptoopenssl-OpenSSL_0_9_8a'
p1686
aS'libcryptoopenssl-OpenSSL_0_9_8b'
p1687
aS'libcryptoopenssl-OpenSSL_0_9_8c'
p1688
aS'libcryptoopenssl-OpenSSL_0_9_8l'
p1689
aS'libcryptoopenssl-OpenSSL_0_9_8m'
p1690
aS'libcryptoopenssl-OpenSSL_0_9_8n'
p1691
aS'libcryptoopenssl-OpenSSL_0_9_8o'
p1692
aS'libcryptoopenssl-OpenSSL_0_9_8h'
p1693
aS'libcryptoopenssl-OpenSSL_0_9_8i'
p1694
aS'libcryptoopenssl-OpenSSL_0_9_8j'
p1695
aS'libcryptoopenssl-OpenSSL_0_9_8k'
p1696
aS'libcryptoopenssl-OpenSSL_0_9_8'
p1697
aS'libcryptoopenssl-OpenSSL_0_9_7'
p1698
atp1699
Rp1700
sS'EVP_PKEY_size'
p1701
g2
((lp1702
S'libcryptoopenssl-OpenSSL_0_9_8t'
p1703
aS'libcryptoopenssl-OpenSSL_0_9_8u'
p1704
aS'libcryptoopenssl-OpenSSL_0_9_8v'
p1705
aS'libcryptoopenssl-OpenSSL_0_9_8w'
p1706
aS'libcryptoopenssl-OpenSSL_0_9_8p'
p1707
aS'libcryptoopenssl-OpenSSL_0_9_8q'
p1708
aS'libcryptoopenssl-OpenSSL_0_9_8r'
p1709
aS'libcryptoopenssl-OpenSSL_0_9_8s'
p1710
aS'libcryptoopenssl-OpenSSL_0_9_8x'
p1711
aS'libcryptoopenssl-OpenSSL_0_9_8y'
p1712
aS'libcryptoopenssl-OpenSSL_0_9_8e'
p1713
aS'libcryptoopenssl-OpenSSL_0_9_8f'
p1714
aS'libcryptoopenssl-OpenSSL_0_9_8g'
p1715
aS'libcryptoopenssl-OpenSSL_0_9_8l'
p1716
aS'libcryptoopenssl-OpenSSL_0_9_8m'
p1717
aS'libcryptoopenssl-OpenSSL_0_9_8n'
p1718
aS'libcryptoopenssl-OpenSSL_0_9_8o'
p1719
aS'libcryptoopenssl-OpenSSL_0_9_8h'
p1720
aS'libcryptoopenssl-OpenSSL_0_9_8i'
p1721
aS'libcryptoopenssl-OpenSSL_0_9_8j'
p1722
aS'libcryptoopenssl-OpenSSL_0_9_8k'
p1723
atp1724
Rp1725
sS'gf2m_Mdouble'
p1726
g2
((lp1727
tp1728
Rp1729
sS'RSA_eay_finish'
p1730
g2
((lp1731
tp1732
Rp1733
sS'OCSP_single_get0_status'
p1734
g2
((lp1735
S'libcryptoopenssl-OpenSSL_1_0_2e'
p1736
aS'libcryptoopenssl-OpenSSL_1_0_1j'
p1737
aS'libcryptoopenssl-OpenSSL_1_0_0e'
p1738
aS'libcryptoopenssl-OpenSSL_1_0_0n'
p1739
aS'libcryptoopenssl-OpenSSL_1_0_2q'
p1740
aS'libcryptoopenssl-OpenSSL_1_0_1'
p1741
aS'libcryptoopenssl-OpenSSL_1_0_0'
p1742
aS'libcryptoopenssl-OpenSSL_1_0_0l'
p1743
aS'libcryptoopenssl-OpenSSL_1_0_2b'
p1744
aS'libcryptoopenssl-OpenSSL_1_0_0m'
p1745
aS'libcryptoopenssl-OpenSSL_0_9_8e'
p1746
aS'libcryptoopenssl-OpenSSL_1_0_0t'
p1747
aS'libcryptoopenssl-OpenSSL_1_0_2i'
p1748
aS'libcryptoopenssl-OpenSSL_1_0_0p'
p1749
aS'libcryptoopenssl-OpenSSL_1_0_0q'
p1750
aS'libcryptoopenssl-OpenSSL_1_0_0r'
p1751
aS'libcryptoopenssl-OpenSSL_1_0_0s'
p1752
aS'libcryptoopenssl-OpenSSL_1_0_2f'
p1753
aS'libcryptoopenssl-OpenSSL_1_0_2g'
p1754
aS'libcryptoopenssl-OpenSSL_1_0_2d'
p1755
aS'libcryptoopenssl-OpenSSL_1_0_0o'
p1756
aS'libcryptoopenssl-OpenSSL_1_0_0h'
p1757
aS'libcryptoopenssl-OpenSSL_1_0_2c'
p1758
aS'libcryptoopenssl-OpenSSL_1_0_0j'
p1759
aS'libcryptoopenssl-OpenSSL_1_0_2a'
p1760
aS'libcryptoopenssl-OpenSSL_1_0_2n'
p1761
aS'libcryptoopenssl-OpenSSL_1_0_2o'
p1762
aS'libcryptoopenssl-OpenSSL_1_0_0f'
p1763
aS'libcryptoopenssl-OpenSSL_1_0_0g'
p1764
aS'libcryptoopenssl-OpenSSL_1_0_2j'
p1765
aS'libcryptoopenssl-OpenSSL_1_0_0a'
p1766
aS'libcryptoopenssl-OpenSSL_1_0_0b'
p1767
aS'libcryptoopenssl-OpenSSL_1_0_0c'
p1768
aS'libcryptoopenssl-OpenSSL_0_9_8t'
p1769
aS'libcryptoopenssl-OpenSSL_0_9_8u'
p1770
aS'libcryptoopenssl-OpenSSL_0_9_8v'
p1771
aS'libcryptoopenssl-OpenSSL_0_9_8w'
p1772
aS'libcryptoopenssl-OpenSSL_0_9_8p'
p1773
aS'libcryptoopenssl-OpenSSL_0_9_8q'
p1774
aS'libcryptoopenssl-OpenSSL_0_9_8r'
p1775
aS'libcryptoopenssl-OpenSSL_0_9_8s'
p1776
aS'libcryptoopenssl-OpenSSL_1_0_0k'
p1777
aS'libcryptoopenssl-OpenSSL_0_9_8x'
p1778
aS'libcryptoopenssl-OpenSSL_0_9_8y'
p1779
aS'libcryptoopenssl-OpenSSL_0_9_8d'
p1780
aS'libcryptoopenssl-OpenSSL_1_0_0d'
p1781
aS'libcryptoopenssl-OpenSSL_0_9_8f'
p1782
aS'libcryptoopenssl-OpenSSL_0_9_8g'
p1783
aS'libcryptoopenssl-OpenSSL_1_0_2l'
p1784
aS'libcryptoopenssl-OpenSSL_0_9_8a'
p1785
aS'libcryptoopenssl-OpenSSL_0_9_8b'
p1786
aS'libcryptoopenssl-OpenSSL_0_9_8c'
p1787
aS'libcryptoopenssl-OpenSSL_0_9_8l'
p1788
aS'libcryptoopenssl-OpenSSL_0_9_8m'
p1789
aS'libcryptoopenssl-OpenSSL_0_9_8n'
p1790
aS'libcryptoopenssl-OpenSSL_0_9_8o'
p1791
aS'libcryptoopenssl-OpenSSL_0_9_8h'
p1792
aS'libcryptoopenssl-OpenSSL_0_9_8i'
p1793
aS'libcryptoopenssl-OpenSSL_0_9_8j'
p1794
aS'libcryptoopenssl-OpenSSL_0_9_8k'
p1795
aS'libcryptoopenssl-OpenSSL_1_0_2k'
p1796
aS'libcryptoopenssl-OpenSSL_1_0_0i'
p1797
aS'libcryptoopenssl-OpenSSL_1_0_2m'
p1798
aS'libcryptoopenssl-OpenSSL_1_0_2'
p1799
aS'libcryptoopenssl-OpenSSL_0_9_8'
p1800
aS'libcryptoopenssl-OpenSSL_1_0_1t'
p1801
aS'libcryptoopenssl-OpenSSL_1_0_1s'
p1802
aS'libcryptoopenssl-OpenSSL_1_0_1r'
p1803
aS'libcryptoopenssl-OpenSSL_1_0_1q'
p1804
aS'libcryptoopenssl-OpenSSL_1_0_1p'
p1805
aS'libcryptoopenssl-OpenSSL_1_0_1o'
p1806
aS'libcryptoopenssl-OpenSSL_1_0_1n'
p1807
aS'libcryptoopenssl-OpenSSL_1_0_1m'
p1808
aS'libcryptoopenssl-OpenSSL_1_0_1l'
p1809
aS'libcryptoopenssl-OpenSSL_1_0_1k'
p1810
aS'libcryptoopenssl-OpenSSL_1_0_2h'
p1811
aS'libcryptoopenssl-OpenSSL_1_0_1i'
p1812
aS'libcryptoopenssl-OpenSSL_1_0_1h'
p1813
aS'libcryptoopenssl-OpenSSL_1_0_1g'
p1814
aS'libcryptoopenssl-OpenSSL_1_0_1f'
p1815
aS'libcryptoopenssl-OpenSSL_1_0_1e'
p1816
aS'libcryptoopenssl-OpenSSL_1_0_1d'
p1817
aS'libcryptoopenssl-OpenSSL_1_0_1c'
p1818
aS'libcryptoopenssl-OpenSSL_1_0_1b'
p1819
aS'libcryptoopenssl-OpenSSL_1_0_1a'
p1820
atp1821
Rp1822
sS'ssleay_rand_pseudo_bytes'
p1823
g2
((lp1824
S'libcryptoopenssl-OpenSSL_0_9_7m'
p1825
aS'libcryptoopenssl-OpenSSL_0_9_7l'
p1826
aS'libcryptoopenssl-OpenSSL_0_9_7i'
p1827
aS'libcryptoopenssl-OpenSSL_0_9_7h'
p1828
aS'libcryptoopenssl-OpenSSL_0_9_7k'
p1829
aS'libcryptoopenssl-OpenSSL_0_9_7j'
p1830
aS'libcryptoopenssl-OpenSSL_0_9_7e'
p1831
aS'libcryptoopenssl-OpenSSL_0_9_7d'
p1832
aS'libcryptoopenssl-OpenSSL_0_9_7g'
p1833
aS'libcryptoopenssl-OpenSSL_0_9_7f'
p1834
aS'libcryptoopenssl-OpenSSL_0_9_7a'
p1835
aS'libcryptoopenssl-OpenSSL_0_9_7c'
p1836
aS'libcryptoopenssl-OpenSSL_0_9_7b'
p1837
aS'libcryptoopenssl-OpenSSL_1_0_0t'
p1838
aS'libcryptoopenssl-OpenSSL_1_0_0p'
p1839
aS'libcryptoopenssl-OpenSSL_1_0_0q'
p1840
aS'libcryptoopenssl-OpenSSL_1_0_0r'
p1841
aS'libcryptoopenssl-OpenSSL_1_0_0s'
p1842
aS'libcryptoopenssl-OpenSSL_1_0_0l'
p1843
aS'libcryptoopenssl-OpenSSL_1_0_0m'
p1844
aS'libcryptoopenssl-OpenSSL_1_0_0n'
p1845
aS'libcryptoopenssl-OpenSSL_1_0_0o'
p1846
aS'libcryptoopenssl-OpenSSL_1_0_0h'
p1847
aS'libcryptoopenssl-OpenSSL_1_0_0i'
p1848
aS'libcryptoopenssl-OpenSSL_1_0_0j'
p1849
aS'libcryptoopenssl-OpenSSL_1_0_0k'
p1850
aS'libcryptoopenssl-OpenSSL_1_0_0d'
p1851
aS'libcryptoopenssl-OpenSSL_1_0_0e'
p1852
aS'libcryptoopenssl-OpenSSL_1_0_0f'
p1853
aS'libcryptoopenssl-OpenSSL_1_0_0g'
p1854
aS'libcryptoopenssl-OpenSSL_1_0_0a'
p1855
aS'libcryptoopenssl-OpenSSL_1_0_0b'
p1856
aS'libcryptoopenssl-OpenSSL_1_0_0c'
p1857
aS'libcryptoopenssl-OpenSSL_0_9_8t'
p1858
aS'libcryptoopenssl-OpenSSL_0_9_8u'
p1859
aS'libcryptoopenssl-OpenSSL_0_9_8v'
p1860
aS'libcryptoopenssl-OpenSSL_0_9_8w'
p1861
aS'libcryptoopenssl-OpenSSL_0_9_8p'
p1862
aS'libcryptoopenssl-OpenSSL_0_9_8q'
p1863
aS'libcryptoopenssl-OpenSSL_0_9_8r'
p1864
aS'libcryptoopenssl-OpenSSL_0_9_8s'
p1865
aS'libcryptoopenssl-OpenSSL_0_9_8x'
p1866
aS'libcryptoopenssl-OpenSSL_0_9_8y'
p1867
aS'libcryptoopenssl-OpenSSL_0_9_8d'
p1868
aS'libcryptoopenssl-OpenSSL_0_9_8e'
p1869
aS'libcryptoopenssl-OpenSSL_0_9_8f'
p1870
aS'libcryptoopenssl-OpenSSL_0_9_8g'
p1871
aS'libcryptoopenssl-OpenSSL_0_9_8a'
p1872
aS'libcryptoopenssl-OpenSSL_0_9_8b'
p1873
aS'libcryptoopenssl-OpenSSL_0_9_8c'
p1874
aS'libcryptoopenssl-OpenSSL_0_9_8l'
p1875
aS'libcryptoopenssl-OpenSSL_0_9_8m'
p1876
aS'libcryptoopenssl-OpenSSL_0_9_8n'
p1877
aS'libcryptoopenssl-OpenSSL_0_9_8o'
p1878
aS'libcryptoopenssl-OpenSSL_0_9_8h'
p1879
aS'libcryptoopenssl-OpenSSL_0_9_8i'
p1880
aS'libcryptoopenssl-OpenSSL_0_9_8j'
p1881
aS'libcryptoopenssl-OpenSSL_0_9_8k'
p1882
aS'libcryptoopenssl-OpenSSL_1_0_0'
p1883
aS'libcryptoopenssl-OpenSSL_0_9_8'
p1884
aS'libcryptoopenssl-OpenSSL_0_9_7'
p1885
atp1886
Rp1887
sS'ec_GF2m_simple_is_on_curve'
p1888
g2
((lp1889
tp1890
Rp1891
sS'X509_get0_pubkey_bitstr'
p1892
g2
((lp1893
S'libcryptoopenssl-OpenSSL_1_0_2e'
p1894
aS'libcryptoopenssl-OpenSSL_1_0_1j'
p1895
aS'libcryptoopenssl-OpenSSL_1_0_0e'
p1896
aS'libcryptoopenssl-OpenSSL_1_0_0n'
p1897
aS'libcryptoopenssl-OpenSSL_1_0_2q'
p1898
aS'libcryptoopenssl-OpenSSL_1_0_1'
p1899
aS'libcryptoopenssl-OpenSSL_1_0_0'
p1900
aS'libcryptoopenssl-OpenSSL_1_0_0l'
p1901
aS'libcryptoopenssl-OpenSSL_1_0_2b'
p1902
aS'libcryptoopenssl-OpenSSL_1_0_0m'
p1903
aS'libcryptoopenssl-OpenSSL_0_9_8e'
p1904
aS'libcryptoopenssl-OpenSSL_1_0_0t'
p1905
aS'libcryptoopenssl-OpenSSL_1_0_2i'
p1906
aS'libcryptoopenssl-OpenSSL_1_0_0p'
p1907
aS'libcryptoopenssl-OpenSSL_1_0_0q'
p1908
aS'libcryptoopenssl-OpenSSL_1_0_0r'
p1909
aS'libcryptoopenssl-OpenSSL_1_0_0s'
p1910
aS'libcryptoopenssl-OpenSSL_1_0_2f'
p1911
aS'libcryptoopenssl-OpenSSL_1_0_2g'
p1912
aS'libcryptoopenssl-OpenSSL_1_0_2d'
p1913
aS'libcryptoopenssl-OpenSSL_1_0_0o'
p1914
aS'libcryptoopenssl-OpenSSL_1_0_0h'
p1915
aS'libcryptoopenssl-OpenSSL_1_0_2c'
p1916
aS'libcryptoopenssl-OpenSSL_1_0_0j'
p1917
aS'libcryptoopenssl-OpenSSL_1_0_2a'
p1918
aS'libcryptoopenssl-OpenSSL_1_0_2n'
p1919
aS'libcryptoopenssl-OpenSSL_1_0_2o'
p1920
aS'libcryptoopenssl-OpenSSL_1_0_0f'
p1921
aS'libcryptoopenssl-OpenSSL_1_0_0g'
p1922
aS'libcryptoopenssl-OpenSSL_1_0_2j'
p1923
aS'libcryptoopenssl-OpenSSL_1_0_0a'
p1924
aS'libcryptoopenssl-OpenSSL_1_0_0b'
p1925
aS'libcryptoopenssl-OpenSSL_1_0_0c'
p1926
aS'libcryptoopenssl-OpenSSL_0_9_8t'
p1927
aS'libcryptoopenssl-OpenSSL_0_9_8u'
p1928
aS'libcryptoopenssl-OpenSSL_0_9_8v'
p1929
aS'libcryptoopenssl-OpenSSL_0_9_8w'
p1930
aS'libcryptoopenssl-OpenSSL_0_9_8p'
p1931
aS'libcryptoopenssl-OpenSSL_0_9_8q'
p1932
aS'libcryptoopenssl-OpenSSL_0_9_8r'
p1933
aS'libcryptoopenssl-OpenSSL_0_9_8s'
p1934
aS'libcryptoopenssl-OpenSSL_1_0_0k'
p1935
aS'libcryptoopenssl-OpenSSL_0_9_8x'
p1936
aS'libcryptoopenssl-OpenSSL_0_9_8y'
p1937
aS'libcryptoopenssl-OpenSSL_0_9_8d'
p1938
aS'libcryptoopenssl-OpenSSL_1_0_0d'
p1939
aS'libcryptoopenssl-OpenSSL_0_9_8f'
p1940
aS'libcryptoopenssl-OpenSSL_0_9_8g'
p1941
aS'libcryptoopenssl-OpenSSL_1_0_2l'
p1942
aS'libcryptoopenssl-OpenSSL_0_9_8a'
p1943
aS'libcryptoopenssl-OpenSSL_0_9_8b'
p1944
aS'libcryptoopenssl-OpenSSL_0_9_8c'
p1945
aS'libcryptoopenssl-OpenSSL_0_9_8l'
p1946
aS'libcryptoopenssl-OpenSSL_0_9_8m'
p1947
aS'libcryptoopenssl-OpenSSL_0_9_8n'
p1948
aS'libcryptoopenssl-OpenSSL_0_9_8o'
p1949
aS'libcryptoopenssl-OpenSSL_0_9_8h'
p1950
aS'libcryptoopenssl-OpenSSL_0_9_8i'
p1951
aS'libcryptoopenssl-OpenSSL_0_9_8j'
p1952
aS'libcryptoopenssl-OpenSSL_0_9_8k'
p1953
aS'libcryptoopenssl-OpenSSL_1_0_2k'
p1954
aS'libcryptoopenssl-OpenSSL_1_0_0i'
p1955
aS'libcryptoopenssl-OpenSSL_1_0_2m'
p1956
aS'libcryptoopenssl-OpenSSL_1_0_2'
p1957
aS'libcryptoopenssl-OpenSSL_0_9_8'
p1958
aS'libcryptoopenssl-OpenSSL_1_0_1t'
p1959
aS'libcryptoopenssl-OpenSSL_1_0_1s'
p1960
aS'libcryptoopenssl-OpenSSL_1_0_1r'
p1961
aS'libcryptoopenssl-OpenSSL_1_0_1q'
p1962
aS'libcryptoopenssl-OpenSSL_1_0_1p'
p1963
aS'libcryptoopenssl-OpenSSL_1_0_1o'
p1964
aS'libcryptoopenssl-OpenSSL_1_0_1n'
p1965
aS'libcryptoopenssl-OpenSSL_1_0_1m'
p1966
aS'libcryptoopenssl-OpenSSL_1_0_1l'
p1967
aS'libcryptoopenssl-OpenSSL_1_0_1k'
p1968
aS'libcryptoopenssl-OpenSSL_1_0_2h'
p1969
aS'libcryptoopenssl-OpenSSL_1_0_1i'
p1970
aS'libcryptoopenssl-OpenSSL_1_0_1h'
p1971
aS'libcryptoopenssl-OpenSSL_1_0_1g'
p1972
aS'libcryptoopenssl-OpenSSL_1_0_1f'
p1973
aS'libcryptoopenssl-OpenSSL_1_0_1e'
p1974
aS'libcryptoopenssl-OpenSSL_1_0_1d'
p1975
aS'libcryptoopenssl-OpenSSL_1_0_1c'
p1976
aS'libcryptoopenssl-OpenSSL_1_0_1b'
p1977
aS'libcryptoopenssl-OpenSSL_1_0_1a'
p1978
atp1979
Rp1980
sS'EC_POINT_get_affine_coordinates_GF2m'
p1981
g2
((lp1982
tp1983
Rp1984
sS'BN_mod_sqr'
p1985
g2
((lp1986
tp1987
Rp1988
sS'X509V3_EXT_add_nconf_sk'
p1989
g2
((lp1990
S'libcryptoopenssl-OpenSSL_0_9_8t'
p1991
aS'libcryptoopenssl-OpenSSL_0_9_8u'
p1992
aS'libcryptoopenssl-OpenSSL_0_9_8v'
p1993
aS'libcryptoopenssl-OpenSSL_0_9_8w'
p1994
aS'libcryptoopenssl-OpenSSL_0_9_8s'
p1995
aS'libcryptoopenssl-OpenSSL_0_9_8x'
p1996
atp1997
Rp1998
sS'X509_INFO_free'
p1999
g2
((lp2000
tp2001
Rp2002
sS'EVP_CIPHER_CTX_free'
p2003
g2
((lp2004
tp2005
Rp2006
sS'X509_STORE_load_locations'
p2007
g2
((lp2008
S'libcryptoopenssl-OpenSSL_1_0_2'
p2009
aS'libcryptoopenssl-OpenSSL_1_0_1'
p2010
aS'libcryptoopenssl-OpenSSL_1_0_0'
p2011
aS'libcryptoopenssl-OpenSSL_1_0_0t'
p2012
aS'libcryptoopenssl-OpenSSL_1_0_0p'
p2013
aS'libcryptoopenssl-OpenSSL_1_0_0q'
p2014
aS'libcryptoopenssl-OpenSSL_1_0_0r'
p2015
aS'libcryptoopenssl-OpenSSL_1_0_0s'
p2016
aS'libcryptoopenssl-OpenSSL_1_0_0l'
p2017
aS'libcryptoopenssl-OpenSSL_1_0_0m'
p2018
aS'libcryptoopenssl-OpenSSL_1_0_0n'
p2019
aS'libcryptoopenssl-OpenSSL_1_0_0o'
p2020
aS'libcryptoopenssl-OpenSSL_1_0_0h'
p2021
aS'libcryptoopenssl-OpenSSL_1_0_0i'
p2022
aS'libcryptoopenssl-OpenSSL_1_0_0j'
p2023
aS'libcryptoopenssl-OpenSSL_1_0_0k'
p2024
aS'libcryptoopenssl-OpenSSL_1_0_0d'
p2025
aS'libcryptoopenssl-OpenSSL_1_0_0e'
p2026
aS'libcryptoopenssl-OpenSSL_1_0_0f'
p2027
aS'libcryptoopenssl-OpenSSL_1_0_0g'
p2028
aS'libcryptoopenssl-OpenSSL_1_0_0a'
p2029
aS'libcryptoopenssl-OpenSSL_1_0_0b'
p2030
aS'libcryptoopenssl-OpenSSL_1_0_0c'
p2031
aS'libcryptoopenssl-OpenSSL_0_9_8t'
p2032
aS'libcryptoopenssl-OpenSSL_0_9_8u'
p2033
aS'libcryptoopenssl-OpenSSL_0_9_8v'
p2034
aS'libcryptoopenssl-OpenSSL_0_9_8w'
p2035
aS'libcryptoopenssl-OpenSSL_0_9_8p'
p2036
aS'libcryptoopenssl-OpenSSL_0_9_8q'
p2037
aS'libcryptoopenssl-OpenSSL_0_9_8r'
p2038
aS'libcryptoopenssl-OpenSSL_0_9_8s'
p2039
aS'libcryptoopenssl-OpenSSL_0_9_8x'
p2040
aS'libcryptoopenssl-OpenSSL_0_9_8y'
p2041
aS'libcryptoopenssl-OpenSSL_0_9_8d'
p2042
aS'libcryptoopenssl-OpenSSL_0_9_8e'
p2043
aS'libcryptoopenssl-OpenSSL_0_9_8f'
p2044
aS'libcryptoopenssl-OpenSSL_0_9_8g'
p2045
aS'libcryptoopenssl-OpenSSL_0_9_8a'
p2046
aS'libcryptoopenssl-OpenSSL_0_9_8b'
p2047
aS'libcryptoopenssl-OpenSSL_0_9_8c'
p2048
aS'libcryptoopenssl-OpenSSL_0_9_8l'
p2049
aS'libcryptoopenssl-OpenSSL_0_9_8m'
p2050
aS'libcryptoopenssl-OpenSSL_0_9_8n'
p2051
aS'libcryptoopenssl-OpenSSL_0_9_8o'
p2052
aS'libcryptoopenssl-OpenSSL_0_9_8h'
p2053
aS'libcryptoopenssl-OpenSSL_0_9_8i'
p2054
aS'libcryptoopenssl-OpenSSL_0_9_8j'
p2055
aS'libcryptoopenssl-OpenSSL_0_9_8k'
p2056
aS'libcryptoopenssl-OpenSSL_1_0_1t'
p2057
aS'libcryptoopenssl-OpenSSL_1_0_1s'
p2058
aS'libcryptoopenssl-OpenSSL_1_0_1r'
p2059
aS'libcryptoopenssl-OpenSSL_1_0_1q'
p2060
aS'libcryptoopenssl-OpenSSL_1_0_1p'
p2061
aS'libcryptoopenssl-OpenSSL_1_0_1o'
p2062
aS'libcryptoopenssl-OpenSSL_1_0_1n'
p2063
aS'libcryptoopenssl-OpenSSL_1_0_1m'
p2064
aS'libcryptoopenssl-OpenSSL_1_0_1l'
p2065
aS'libcryptoopenssl-OpenSSL_1_0_1k'
p2066
aS'libcryptoopenssl-OpenSSL_1_0_1j'
p2067
aS'libcryptoopenssl-OpenSSL_1_0_1i'
p2068
aS'libcryptoopenssl-OpenSSL_1_0_1h'
p2069
aS'libcryptoopenssl-OpenSSL_1_0_1g'
p2070
aS'libcryptoopenssl-OpenSSL_1_0_1f'
p2071
aS'libcryptoopenssl-OpenSSL_1_0_1e'
p2072
aS'libcryptoopenssl-OpenSSL_1_0_1d'
p2073
aS'libcryptoopenssl-OpenSSL_1_0_1c'
p2074
aS'libcryptoopenssl-OpenSSL_1_0_1b'
p2075
aS'libcryptoopenssl-OpenSSL_1_0_1a'
p2076
aS'libcryptoopenssl-OpenSSL_1_1_0'
p2077
aS'libcryptoopenssl-OpenSSL_1_0_2q'
p2078
aS'libcryptoopenssl-OpenSSL_1_0_2f'
p2079
aS'libcryptoopenssl-OpenSSL_1_0_2g'
p2080
aS'libcryptoopenssl-OpenSSL_1_0_2d'
p2081
aS'libcryptoopenssl-OpenSSL_1_0_2e'
p2082
aS'libcryptoopenssl-OpenSSL_1_0_2b'
p2083
aS'libcryptoopenssl-OpenSSL_1_0_2c'
p2084
aS'libcryptoopenssl-OpenSSL_1_0_2a'
p2085
aS'libcryptoopenssl-OpenSSL_1_0_2n'
p2086
aS'libcryptoopenssl-OpenSSL_1_0_2o'
p2087
aS'libcryptoopenssl-OpenSSL_1_0_2l'
p2088
aS'libcryptoopenssl-OpenSSL_1_0_2m'
p2089
aS'libcryptoopenssl-OpenSSL_1_0_2j'
p2090
aS'libcryptoopenssl-OpenSSL_1_0_2k'
p2091
aS'libcryptoopenssl-OpenSSL_1_0_2h'
p2092
aS'libcryptoopenssl-OpenSSL_1_0_2i'
p2093
aS'libcryptoopenssl-OpenSSL_0_9_7m'
p2094
aS'libcryptoopenssl-OpenSSL_0_9_7l'
p2095
aS'libcryptoopenssl-OpenSSL_0_9_7i'
p2096
aS'libcryptoopenssl-OpenSSL_0_9_7h'
p2097
aS'libcryptoopenssl-OpenSSL_0_9_7k'
p2098
aS'libcryptoopenssl-OpenSSL_0_9_7j'
p2099
aS'libcryptoopenssl-OpenSSL_0_9_7e'
p2100
aS'libcryptoopenssl-OpenSSL_0_9_7d'
p2101
aS'libcryptoopenssl-OpenSSL_0_9_7g'
p2102
aS'libcryptoopenssl-OpenSSL_0_9_7f'
p2103
aS'libcryptoopenssl-OpenSSL_0_9_7a'
p2104
aS'libcryptoopenssl-OpenSSL_0_9_7c'
p2105
aS'libcryptoopenssl-OpenSSL_0_9_7b'
p2106
aS'libcryptoopenssl-OpenSSL_1_1_0g'
p2107
aS'libcryptoopenssl-OpenSSL_1_1_0f'
p2108
aS'libcryptoopenssl-OpenSSL_1_1_0e'
p2109
aS'libcryptoopenssl-OpenSSL_1_1_0d'
p2110
aS'libcryptoopenssl-OpenSSL_1_1_0c'
p2111
aS'libcryptoopenssl-OpenSSL_1_1_0b'
p2112
aS'libcryptoopenssl-OpenSSL_1_1_0a'
p2113
aS'libcryptoopenssl-OpenSSL_1_1_0h'
p2114
aS'libcryptoopenssl-OpenSSL_0_9_8'
p2115
aS'libcryptoopenssl-OpenSSL_0_9_7'
p2116
atp2117
Rp2118
sS'BN_MONT_CTX_free'
p2119
g2
((lp2120
tp2121
Rp2122
sS'ec_GF2m_simple_mul'
p2123
g2
((lp2124
tp2125
Rp2126
sS'def_destroy'
p2127
g2
((lp2128
tp2129
Rp2130
sS'DES_ecb3_encrypt'
p2131
g2
((lp2132
S'libcryptoopenssl-OpenSSL_0_9_7m'
p2133
aS'libcryptoopenssl-OpenSSL_0_9_7l'
p2134
aS'libcryptoopenssl-OpenSSL_0_9_7i'
p2135
aS'libcryptoopenssl-OpenSSL_0_9_7h'
p2136
aS'libcryptoopenssl-OpenSSL_0_9_7k'
p2137
aS'libcryptoopenssl-OpenSSL_0_9_7j'
p2138
aS'libcryptoopenssl-OpenSSL_0_9_7e'
p2139
aS'libcryptoopenssl-OpenSSL_0_9_7d'
p2140
aS'libcryptoopenssl-OpenSSL_0_9_7g'
p2141
aS'libcryptoopenssl-OpenSSL_0_9_7f'
p2142
aS'libcryptoopenssl-OpenSSL_0_9_7a'
p2143
aS'libcryptoopenssl-OpenSSL_0_9_7c'
p2144
aS'libcryptoopenssl-OpenSSL_0_9_7b'
p2145
aS'libcryptoopenssl-OpenSSL_0_9_8t'
p2146
aS'libcryptoopenssl-OpenSSL_0_9_8u'
p2147
aS'libcryptoopenssl-OpenSSL_0_9_8v'
p2148
aS'libcryptoopenssl-OpenSSL_0_9_8w'
p2149
aS'libcryptoopenssl-OpenSSL_0_9_8p'
p2150
aS'libcryptoopenssl-OpenSSL_0_9_8q'
p2151
aS'libcryptoopenssl-OpenSSL_0_9_8r'
p2152
aS'libcryptoopenssl-OpenSSL_0_9_8s'
p2153
aS'libcryptoopenssl-OpenSSL_0_9_8x'
p2154
aS'libcryptoopenssl-OpenSSL_0_9_8y'
p2155
aS'libcryptoopenssl-OpenSSL_0_9_8d'
p2156
aS'libcryptoopenssl-OpenSSL_0_9_8e'
p2157
aS'libcryptoopenssl-OpenSSL_0_9_8f'
p2158
aS'libcryptoopenssl-OpenSSL_0_9_8g'
p2159
aS'libcryptoopenssl-OpenSSL_0_9_8a'
p2160
aS'libcryptoopenssl-OpenSSL_0_9_8b'
p2161
aS'libcryptoopenssl-OpenSSL_0_9_8c'
p2162
aS'libcryptoopenssl-OpenSSL_0_9_8l'
p2163
aS'libcryptoopenssl-OpenSSL_0_9_8m'
p2164
aS'libcryptoopenssl-OpenSSL_0_9_8n'
p2165
aS'libcryptoopenssl-OpenSSL_0_9_8o'
p2166
aS'libcryptoopenssl-OpenSSL_0_9_8h'
p2167
aS'libcryptoopenssl-OpenSSL_0_9_8i'
p2168
aS'libcryptoopenssl-OpenSSL_0_9_8j'
p2169
aS'libcryptoopenssl-OpenSSL_0_9_8k'
p2170
aS'libcryptoopenssl-OpenSSL_0_9_8'
p2171
aS'libcryptoopenssl-OpenSSL_0_9_7'
p2172
atp2173
Rp2174
sS'BN_sub'
p2175
g2
((lp2176
tp2177
Rp2178
sS'EC_KEY_free'
p2179
g2
((lp2180
tp2181
Rp2182
sS'tree_find_sk'
p2183
g2
((lp2184
S'libcryptoopenssl-OpenSSL_0_9_8t'
p2185
aS'libcryptoopenssl-OpenSSL_0_9_8u'
p2186
aS'libcryptoopenssl-OpenSSL_0_9_8v'
p2187
aS'libcryptoopenssl-OpenSSL_0_9_8w'
p2188
aS'libcryptoopenssl-OpenSSL_0_9_8s'
p2189
aS'libcryptoopenssl-OpenSSL_0_9_8x'
p2190
aS'libcryptoopenssl-OpenSSL_0_9_8y'
p2191
atp2192
Rp2193
sS'BN_MONT_CTX_set'
p2194
g2
((lp2195
tp2196
Rp2197
sS'BN_CTX_start'
p2198
g2
((lp2199
tp2200
Rp2201
sS'ec_GFp_simple_cmp'
p2202
g2
((lp2203
tp2204
Rp2205
sS'AES_ecb_encrypt'
p2206
g2
((lp2207
S'libcryptoopenssl-OpenSSL_0_9_7m'
p2208
aS'libcryptoopenssl-OpenSSL_0_9_7l'
p2209
aS'libcryptoopenssl-OpenSSL_0_9_7i'
p2210
aS'libcryptoopenssl-OpenSSL_0_9_7h'
p2211
aS'libcryptoopenssl-OpenSSL_0_9_7k'
p2212
aS'libcryptoopenssl-OpenSSL_0_9_7j'
p2213
aS'libcryptoopenssl-OpenSSL_0_9_7e'
p2214
aS'libcryptoopenssl-OpenSSL_0_9_7d'
p2215
aS'libcryptoopenssl-OpenSSL_0_9_7g'
p2216
aS'libcryptoopenssl-OpenSSL_0_9_7f'
p2217
aS'libcryptoopenssl-OpenSSL_0_9_7a'
p2218
aS'libcryptoopenssl-OpenSSL_0_9_7c'
p2219
aS'libcryptoopenssl-OpenSSL_0_9_7b'
p2220
aS'libcryptoopenssl-OpenSSL_0_9_8t'
p2221
aS'libcryptoopenssl-OpenSSL_0_9_8u'
p2222
aS'libcryptoopenssl-OpenSSL_0_9_8v'
p2223
aS'libcryptoopenssl-OpenSSL_0_9_8w'
p2224
aS'libcryptoopenssl-OpenSSL_0_9_8p'
p2225
aS'libcryptoopenssl-OpenSSL_0_9_8q'
p2226
aS'libcryptoopenssl-OpenSSL_0_9_8r'
p2227
aS'libcryptoopenssl-OpenSSL_0_9_8s'
p2228
aS'libcryptoopenssl-OpenSSL_0_9_8x'
p2229
aS'libcryptoopenssl-OpenSSL_0_9_8y'
p2230
aS'libcryptoopenssl-OpenSSL_0_9_8d'
p2231
aS'libcryptoopenssl-OpenSSL_0_9_8e'
p2232
aS'libcryptoopenssl-OpenSSL_0_9_8f'
p2233
aS'libcryptoopenssl-OpenSSL_0_9_8g'
p2234
aS'libcryptoopenssl-OpenSSL_0_9_8a'
p2235
aS'libcryptoopenssl-OpenSSL_0_9_8b'
p2236
aS'libcryptoopenssl-OpenSSL_0_9_8c'
p2237
aS'libcryptoopenssl-OpenSSL_0_9_8l'
p2238
aS'libcryptoopenssl-OpenSSL_0_9_8m'
p2239
aS'libcryptoopenssl-OpenSSL_0_9_8n'
p2240
aS'libcryptoopenssl-OpenSSL_0_9_8o'
p2241
aS'libcryptoopenssl-OpenSSL_0_9_8h'
p2242
aS'libcryptoopenssl-OpenSSL_0_9_8i'
p2243
aS'libcryptoopenssl-OpenSSL_0_9_8j'
p2244
aS'libcryptoopenssl-OpenSSL_0_9_8k'
p2245
aS'libcryptoopenssl-OpenSSL_0_9_8'
p2246
aS'libcryptoopenssl-OpenSSL_0_9_7'
p2247
atp2248
Rp2249
sS'BIO_write'
p2250
g2
((lp2251
S'libcryptoopenssl-OpenSSL_1_0_2e'
p2252
aS'libcryptoopenssl-OpenSSL_1_0_0n'
p2253
aS'libcryptoopenssl-OpenSSL_1_0_2q'
p2254
aS'libcryptoopenssl-OpenSSL_1_0_1'
p2255
aS'libcryptoopenssl-OpenSSL_1_0_0l'
p2256
aS'libcryptoopenssl-OpenSSL_1_0_2b'
p2257
aS'libcryptoopenssl-OpenSSL_1_0_0m'
p2258
aS'libcryptoopenssl-OpenSSL_1_0_0t'
p2259
aS'libcryptoopenssl-OpenSSL_1_0_2i'
p2260
aS'libcryptoopenssl-OpenSSL_1_0_0p'
p2261
aS'libcryptoopenssl-OpenSSL_1_0_0q'
p2262
aS'libcryptoopenssl-OpenSSL_1_0_0r'
p2263
aS'libcryptoopenssl-OpenSSL_1_0_0s'
p2264
aS'libcryptoopenssl-OpenSSL_1_0_2f'
p2265
aS'libcryptoopenssl-OpenSSL_1_0_2g'
p2266
aS'libcryptoopenssl-OpenSSL_1_0_2d'
p2267
aS'libcryptoopenssl-OpenSSL_1_0_0o'
p2268
aS'libcryptoopenssl-OpenSSL_1_0_0h'
p2269
aS'libcryptoopenssl-OpenSSL_1_0_2c'
p2270
aS'libcryptoopenssl-OpenSSL_1_0_0j'
p2271
aS'libcryptoopenssl-OpenSSL_1_0_2a'
p2272
aS'libcryptoopenssl-OpenSSL_1_0_2n'
p2273
aS'libcryptoopenssl-OpenSSL_1_0_2o'
p2274
aS'libcryptoopenssl-OpenSSL_1_0_0f'
p2275
aS'libcryptoopenssl-OpenSSL_1_0_0g'
p2276
aS'libcryptoopenssl-OpenSSL_1_0_2j'
p2277
aS'libcryptoopenssl-OpenSSL_1_0_2k'
p2278
aS'libcryptoopenssl-OpenSSL_1_0_2h'
p2279
aS'libcryptoopenssl-OpenSSL_1_0_0i'
p2280
aS'libcryptoopenssl-OpenSSL_0_9_8t'
p2281
aS'libcryptoopenssl-OpenSSL_0_9_8u'
p2282
aS'libcryptoopenssl-OpenSSL_0_9_8v'
p2283
aS'libcryptoopenssl-OpenSSL_0_9_8w'
p2284
aS'libcryptoopenssl-OpenSSL_0_9_8s'
p2285
aS'libcryptoopenssl-OpenSSL_1_0_0k'
p2286
aS'libcryptoopenssl-OpenSSL_0_9_8x'
p2287
aS'libcryptoopenssl-OpenSSL_0_9_8y'
p2288
aS'libcryptoopenssl-OpenSSL_1_0_2'
p2289
aS'libcryptoopenssl-OpenSSL_1_0_2l'
p2290
aS'libcryptoopenssl-OpenSSL_1_0_2m'
p2291
aS'libcryptoopenssl-OpenSSL_1_0_1t'
p2292
aS'libcryptoopenssl-OpenSSL_1_0_1s'
p2293
aS'libcryptoopenssl-OpenSSL_1_0_1r'
p2294
aS'libcryptoopenssl-OpenSSL_1_0_1q'
p2295
aS'libcryptoopenssl-OpenSSL_1_0_1p'
p2296
aS'libcryptoopenssl-OpenSSL_1_0_1o'
p2297
aS'libcryptoopenssl-OpenSSL_1_0_1n'
p2298
aS'libcryptoopenssl-OpenSSL_1_0_1m'
p2299
aS'libcryptoopenssl-OpenSSL_1_0_1l'
p2300
aS'libcryptoopenssl-OpenSSL_1_0_1k'
p2301
aS'libcryptoopenssl-OpenSSL_1_0_1j'
p2302
aS'libcryptoopenssl-OpenSSL_1_0_1i'
p2303
aS'libcryptoopenssl-OpenSSL_1_0_1h'
p2304
aS'libcryptoopenssl-OpenSSL_1_0_1g'
p2305
aS'libcryptoopenssl-OpenSSL_1_0_1f'
p2306
aS'libcryptoopenssl-OpenSSL_1_0_1e'
p2307
aS'libcryptoopenssl-OpenSSL_1_0_1d'
p2308
aS'libcryptoopenssl-OpenSSL_1_0_1c'
p2309
aS'libcryptoopenssl-OpenSSL_1_0_1b'
p2310
aS'libcryptoopenssl-OpenSSL_1_0_1a'
p2311
atp2312
Rp2313
sS'dh_finish'
p2314
g2
((lp2315
tp2316
Rp2317
sS'md2_block'
p2318
g2
((lp2319
S'libcryptoopenssl-OpenSSL_0_9_8t'
p2320
aS'libcryptoopenssl-OpenSSL_0_9_8u'
p2321
aS'libcryptoopenssl-OpenSSL_0_9_8v'
p2322
aS'libcryptoopenssl-OpenSSL_0_9_8w'
p2323
aS'libcryptoopenssl-OpenSSL_0_9_8p'
p2324
aS'libcryptoopenssl-OpenSSL_0_9_8q'
p2325
aS'libcryptoopenssl-OpenSSL_0_9_8r'
p2326
aS'libcryptoopenssl-OpenSSL_0_9_8s'
p2327
aS'libcryptoopenssl-OpenSSL_0_9_8x'
p2328
aS'libcryptoopenssl-OpenSSL_0_9_8y'
p2329
aS'libcryptoopenssl-OpenSSL_0_9_8d'
p2330
aS'libcryptoopenssl-OpenSSL_0_9_8f'
p2331
aS'libcryptoopenssl-OpenSSL_0_9_8g'
p2332
aS'libcryptoopenssl-OpenSSL_0_9_8a'
p2333
aS'libcryptoopenssl-OpenSSL_0_9_8b'
p2334
aS'libcryptoopenssl-OpenSSL_0_9_8l'
p2335
aS'libcryptoopenssl-OpenSSL_0_9_8m'
p2336
aS'libcryptoopenssl-OpenSSL_0_9_8n'
p2337
aS'libcryptoopenssl-OpenSSL_0_9_8o'
p2338
aS'libcryptoopenssl-OpenSSL_0_9_8h'
p2339
aS'libcryptoopenssl-OpenSSL_0_9_8i'
p2340
aS'libcryptoopenssl-OpenSSL_0_9_8j'
p2341
aS'libcryptoopenssl-OpenSSL_0_9_8k'
p2342
aS'libcryptoopenssl-OpenSSL_0_9_8'
p2343
atp2344
Rp2345
sS'EC_GROUP_get_order'
p2346
g2
((lp2347
tp2348
Rp2349
sS'BN_set_negative'
p2350
g2
((lp2351
tp2352
Rp2353
sS'ERR_peek_last_error'
p2354
g2
((lp2355
tp2356
Rp2357
sS'bn_mul_low_recursive'
p2358
g2
((lp2359
tp2360
Rp2361
sS'ec_GF2m_montgomery_point_multiply.part.0'
p2362
g2
((lp2363
tp2364
Rp2365
sS'BF_ecb_encrypt'
p2366
g2
((lp2367
S'libcryptoopenssl-OpenSSL_0_9_7m'
p2368
aS'libcryptoopenssl-OpenSSL_0_9_7l'
p2369
aS'libcryptoopenssl-OpenSSL_0_9_7i'
p2370
aS'libcryptoopenssl-OpenSSL_0_9_7h'
p2371
aS'libcryptoopenssl-OpenSSL_0_9_7k'
p2372
aS'libcryptoopenssl-OpenSSL_0_9_7j'
p2373
aS'libcryptoopenssl-OpenSSL_0_9_7e'
p2374
aS'libcryptoopenssl-OpenSSL_0_9_7d'
p2375
aS'libcryptoopenssl-OpenSSL_0_9_7g'
p2376
aS'libcryptoopenssl-OpenSSL_0_9_7f'
p2377
aS'libcryptoopenssl-OpenSSL_0_9_7a'
p2378
aS'libcryptoopenssl-OpenSSL_0_9_7c'
p2379
aS'libcryptoopenssl-OpenSSL_0_9_7b'
p2380
aS'libcryptoopenssl-OpenSSL_0_9_8t'
p2381
aS'libcryptoopenssl-OpenSSL_0_9_8u'
p2382
aS'libcryptoopenssl-OpenSSL_0_9_8v'
p2383
aS'libcryptoopenssl-OpenSSL_0_9_8w'
p2384
aS'libcryptoopenssl-OpenSSL_0_9_8p'
p2385
aS'libcryptoopenssl-OpenSSL_0_9_8q'
p2386
aS'libcryptoopenssl-OpenSSL_0_9_8r'
p2387
aS'libcryptoopenssl-OpenSSL_0_9_8s'
p2388
aS'libcryptoopenssl-OpenSSL_0_9_8x'
p2389
aS'libcryptoopenssl-OpenSSL_0_9_8y'
p2390
aS'libcryptoopenssl-OpenSSL_0_9_8d'
p2391
aS'libcryptoopenssl-OpenSSL_0_9_8e'
p2392
aS'libcryptoopenssl-OpenSSL_0_9_8f'
p2393
aS'libcryptoopenssl-OpenSSL_0_9_8g'
p2394
aS'libcryptoopenssl-OpenSSL_0_9_8a'
p2395
aS'libcryptoopenssl-OpenSSL_0_9_8b'
p2396
aS'libcryptoopenssl-OpenSSL_0_9_8c'
p2397
aS'libcryptoopenssl-OpenSSL_0_9_8l'
p2398
aS'libcryptoopenssl-OpenSSL_0_9_8m'
p2399
aS'libcryptoopenssl-OpenSSL_0_9_8n'
p2400
aS'libcryptoopenssl-OpenSSL_0_9_8o'
p2401
aS'libcryptoopenssl-OpenSSL_0_9_8h'
p2402
aS'libcryptoopenssl-OpenSSL_0_9_8i'
p2403
aS'libcryptoopenssl-OpenSSL_0_9_8j'
p2404
aS'libcryptoopenssl-OpenSSL_0_9_8k'
p2405
aS'libcryptoopenssl-OpenSSL_0_9_8'
p2406
aS'libcryptoopenssl-OpenSSL_0_9_7'
p2407
atp2408
Rp2409
sS'int_cleanup_cb_LHASH_DOALL'
p2410
g2
((lp2411
tp2412
Rp2413
sS'sk_free'
p2414
g2
((lp2415
tp2416
Rp2417
sS'X509_OBJECT_idx_by_subject'
p2418
g2
((lp2419
S'libcryptoopenssl-OpenSSL_0_9_7m'
p2420
aS'libcryptoopenssl-OpenSSL_0_9_7l'
p2421
aS'libcryptoopenssl-OpenSSL_0_9_7i'
p2422
aS'libcryptoopenssl-OpenSSL_0_9_7h'
p2423
aS'libcryptoopenssl-OpenSSL_0_9_7k'
p2424
aS'libcryptoopenssl-OpenSSL_0_9_7j'
p2425
aS'libcryptoopenssl-OpenSSL_0_9_7e'
p2426
aS'libcryptoopenssl-OpenSSL_0_9_7g'
p2427
aS'libcryptoopenssl-OpenSSL_0_9_7f'
p2428
aS'libcryptoopenssl-OpenSSL_0_9_8d'
p2429
aS'libcryptoopenssl-OpenSSL_0_9_8e'
p2430
aS'libcryptoopenssl-OpenSSL_0_9_8f'
p2431
aS'libcryptoopenssl-OpenSSL_0_9_8g'
p2432
aS'libcryptoopenssl-OpenSSL_0_9_8a'
p2433
aS'libcryptoopenssl-OpenSSL_0_9_8b'
p2434
aS'libcryptoopenssl-OpenSSL_0_9_8c'
p2435
aS'libcryptoopenssl-OpenSSL_0_9_8l'
p2436
aS'libcryptoopenssl-OpenSSL_0_9_8m'
p2437
aS'libcryptoopenssl-OpenSSL_0_9_8n'
p2438
aS'libcryptoopenssl-OpenSSL_0_9_8o'
p2439
aS'libcryptoopenssl-OpenSSL_0_9_8h'
p2440
aS'libcryptoopenssl-OpenSSL_0_9_8i'
p2441
aS'libcryptoopenssl-OpenSSL_0_9_8j'
p2442
aS'libcryptoopenssl-OpenSSL_0_9_8k'
p2443
aS'libcryptoopenssl-OpenSSL_0_9_8'
p2444
atp2445
Rp2446
sS'X509_certificate_type'
p2447
g2
((lp2448
S'libcryptoopenssl-OpenSSL_0_9_8t'
p2449
aS'libcryptoopenssl-OpenSSL_0_9_8u'
p2450
aS'libcryptoopenssl-OpenSSL_0_9_8v'
p2451
aS'libcryptoopenssl-OpenSSL_0_9_8w'
p2452
aS'libcryptoopenssl-OpenSSL_0_9_8p'
p2453
aS'libcryptoopenssl-OpenSSL_0_9_8q'
p2454
aS'libcryptoopenssl-OpenSSL_0_9_8r'
p2455
aS'libcryptoopenssl-OpenSSL_0_9_8s'
p2456
aS'libcryptoopenssl-OpenSSL_0_9_8x'
p2457
aS'libcryptoopenssl-OpenSSL_0_9_8y'
p2458
aS'libcryptoopenssl-OpenSSL_0_9_8e'
p2459
aS'libcryptoopenssl-OpenSSL_0_9_8f'
p2460
aS'libcryptoopenssl-OpenSSL_0_9_8g'
p2461
aS'libcryptoopenssl-OpenSSL_0_9_8l'
p2462
aS'libcryptoopenssl-OpenSSL_0_9_8m'
p2463
aS'libcryptoopenssl-OpenSSL_0_9_8n'
p2464
aS'libcryptoopenssl-OpenSSL_0_9_8o'
p2465
aS'libcryptoopenssl-OpenSSL_0_9_8h'
p2466
aS'libcryptoopenssl-OpenSSL_0_9_8i'
p2467
aS'libcryptoopenssl-OpenSSL_0_9_8j'
p2468
aS'libcryptoopenssl-OpenSSL_0_9_8k'
p2469
atp2470
Rp2471
sS'ssl3_get_message'
p2472
g2
((lp2473
tp2474
Rp2475
sS'sk_delete'
p2476
g2
((lp2477
S'libcryptoopenssl-OpenSSL_0_9_8t'
p2478
aS'libcryptoopenssl-OpenSSL_0_9_8u'
p2479
aS'libcryptoopenssl-OpenSSL_0_9_8v'
p2480
aS'libcryptoopenssl-OpenSSL_0_9_8w'
p2481
aS'libcryptoopenssl-OpenSSL_0_9_8s'
p2482
aS'libcryptoopenssl-OpenSSL_0_9_8x'
p2483
atp2484
Rp2485
sS'PEM_read_bio_ECPrivateKey'
p2486
g2
((lp2487
tp2488
Rp2489
sS'X509V3_add1_i2d'
p2490
g2
((lp2491
S'libcryptoopenssl-OpenSSL_0_9_8t'
p2492
aS'libcryptoopenssl-OpenSSL_0_9_8u'
p2493
aS'libcryptoopenssl-OpenSSL_0_9_8v'
p2494
aS'libcryptoopenssl-OpenSSL_0_9_8w'
p2495
aS'libcryptoopenssl-OpenSSL_0_9_8s'
p2496
aS'libcryptoopenssl-OpenSSL_0_9_8x'
p2497
aS'libcryptoopenssl-OpenSSL_0_9_8y'
p2498
atp2499
Rp2500
sS'BN_CTX_free'
p2501
g2
((lp2502
tp2503
Rp2504
sS'sha512_block_data_order'
p2505
g2
((lp2506
S'libcryptoopenssl-OpenSSL_0_9_8t'
p2507
aS'libcryptoopenssl-OpenSSL_0_9_8u'
p2508
aS'libcryptoopenssl-OpenSSL_0_9_8v'
p2509
aS'libcryptoopenssl-OpenSSL_0_9_8w'
p2510
aS'libcryptoopenssl-OpenSSL_0_9_8p'
p2511
aS'libcryptoopenssl-OpenSSL_0_9_8q'
p2512
aS'libcryptoopenssl-OpenSSL_0_9_8r'
p2513
aS'libcryptoopenssl-OpenSSL_0_9_8s'
p2514
aS'libcryptoopenssl-OpenSSL_0_9_8x'
p2515
aS'libcryptoopenssl-OpenSSL_0_9_8y'
p2516
aS'libcryptoopenssl-OpenSSL_0_9_8m'
p2517
aS'libcryptoopenssl-OpenSSL_0_9_8n'
p2518
aS'libcryptoopenssl-OpenSSL_0_9_8o'
p2519
atp2520
Rp2521
sS'UI_get0_output_string'
p2522
g2
((lp2523
S'libcryptoopenssl-OpenSSL_1_0_2'
p2524
aS'libcryptoopenssl-OpenSSL_1_0_1'
p2525
aS'libcryptoopenssl-OpenSSL_1_0_0'
p2526
aS'libcryptoopenssl-OpenSSL_1_0_0t'
p2527
aS'libcryptoopenssl-OpenSSL_1_0_0p'
p2528
aS'libcryptoopenssl-OpenSSL_1_0_0q'
p2529
aS'libcryptoopenssl-OpenSSL_1_0_0r'
p2530
aS'libcryptoopenssl-OpenSSL_1_0_0s'
p2531
aS'libcryptoopenssl-OpenSSL_1_0_0l'
p2532
aS'libcryptoopenssl-OpenSSL_1_0_0m'
p2533
aS'libcryptoopenssl-OpenSSL_1_0_0n'
p2534
aS'libcryptoopenssl-OpenSSL_1_0_0o'
p2535
aS'libcryptoopenssl-OpenSSL_1_0_0h'
p2536
aS'libcryptoopenssl-OpenSSL_1_0_0i'
p2537
aS'libcryptoopenssl-OpenSSL_1_0_0j'
p2538
aS'libcryptoopenssl-OpenSSL_1_0_0k'
p2539
aS'libcryptoopenssl-OpenSSL_1_0_0d'
p2540
aS'libcryptoopenssl-OpenSSL_1_0_0e'
p2541
aS'libcryptoopenssl-OpenSSL_1_0_0f'
p2542
aS'libcryptoopenssl-OpenSSL_1_0_0g'
p2543
aS'libcryptoopenssl-OpenSSL_1_0_0a'
p2544
aS'libcryptoopenssl-OpenSSL_1_0_0b'
p2545
aS'libcryptoopenssl-OpenSSL_1_0_0c'
p2546
aS'libcryptoopenssl-OpenSSL_0_9_8t'
p2547
aS'libcryptoopenssl-OpenSSL_0_9_8u'
p2548
aS'libcryptoopenssl-OpenSSL_0_9_8v'
p2549
aS'libcryptoopenssl-OpenSSL_0_9_8w'
p2550
aS'libcryptoopenssl-OpenSSL_0_9_8p'
p2551
aS'libcryptoopenssl-OpenSSL_0_9_8q'
p2552
aS'libcryptoopenssl-OpenSSL_0_9_8r'
p2553
aS'libcryptoopenssl-OpenSSL_0_9_8s'
p2554
aS'libcryptoopenssl-OpenSSL_0_9_8x'
p2555
aS'libcryptoopenssl-OpenSSL_0_9_8y'
p2556
aS'libcryptoopenssl-OpenSSL_0_9_8d'
p2557
aS'libcryptoopenssl-OpenSSL_0_9_8e'
p2558
aS'libcryptoopenssl-OpenSSL_0_9_8f'
p2559
aS'libcryptoopenssl-OpenSSL_0_9_8g'
p2560
aS'libcryptoopenssl-OpenSSL_0_9_8a'
p2561
aS'libcryptoopenssl-OpenSSL_0_9_8b'
p2562
aS'libcryptoopenssl-OpenSSL_0_9_8c'
p2563
aS'libcryptoopenssl-OpenSSL_0_9_8l'
p2564
aS'libcryptoopenssl-OpenSSL_0_9_8m'
p2565
aS'libcryptoopenssl-OpenSSL_0_9_8n'
p2566
aS'libcryptoopenssl-OpenSSL_0_9_8o'
p2567
aS'libcryptoopenssl-OpenSSL_0_9_8h'
p2568
aS'libcryptoopenssl-OpenSSL_0_9_8i'
p2569
aS'libcryptoopenssl-OpenSSL_0_9_8j'
p2570
aS'libcryptoopenssl-OpenSSL_0_9_8k'
p2571
aS'libcryptoopenssl-OpenSSL_1_0_1t'
p2572
aS'libcryptoopenssl-OpenSSL_1_0_1s'
p2573
aS'libcryptoopenssl-OpenSSL_1_0_1r'
p2574
aS'libcryptoopenssl-OpenSSL_1_0_1q'
p2575
aS'libcryptoopenssl-OpenSSL_1_0_1p'
p2576
aS'libcryptoopenssl-OpenSSL_1_0_1o'
p2577
aS'libcryptoopenssl-OpenSSL_1_0_1n'
p2578
aS'libcryptoopenssl-OpenSSL_1_0_1m'
p2579
aS'libcryptoopenssl-OpenSSL_1_0_1l'
p2580
aS'libcryptoopenssl-OpenSSL_1_0_1k'
p2581
aS'libcryptoopenssl-OpenSSL_1_0_1j'
p2582
aS'libcryptoopenssl-OpenSSL_1_0_1i'
p2583
aS'libcryptoopenssl-OpenSSL_1_0_1h'
p2584
aS'libcryptoopenssl-OpenSSL_1_0_1g'
p2585
aS'libcryptoopenssl-OpenSSL_1_0_1f'
p2586
aS'libcryptoopenssl-OpenSSL_1_0_1e'
p2587
aS'libcryptoopenssl-OpenSSL_1_0_1d'
p2588
aS'libcryptoopenssl-OpenSSL_1_0_1c'
p2589
aS'libcryptoopenssl-OpenSSL_1_0_1b'
p2590
aS'libcryptoopenssl-OpenSSL_1_0_1a'
p2591
aS'libcryptoopenssl-OpenSSL_1_1_0'
p2592
aS'libcryptoopenssl-OpenSSL_1_0_2q'
p2593
aS'libcryptoopenssl-OpenSSL_1_0_2f'
p2594
aS'libcryptoopenssl-OpenSSL_1_0_2g'
p2595
aS'libcryptoopenssl-OpenSSL_1_0_2d'
p2596
aS'libcryptoopenssl-OpenSSL_1_0_2e'
p2597
aS'libcryptoopenssl-OpenSSL_1_0_2b'
p2598
aS'libcryptoopenssl-OpenSSL_1_0_2c'
p2599
aS'libcryptoopenssl-OpenSSL_1_0_2a'
p2600
aS'libcryptoopenssl-OpenSSL_1_0_2n'
p2601
aS'libcryptoopenssl-OpenSSL_1_0_2o'
p2602
aS'libcryptoopenssl-OpenSSL_1_0_2l'
p2603
aS'libcryptoopenssl-OpenSSL_1_0_2m'
p2604
aS'libcryptoopenssl-OpenSSL_1_0_2j'
p2605
aS'libcryptoopenssl-OpenSSL_1_0_2k'
p2606
aS'libcryptoopenssl-OpenSSL_1_0_2h'
p2607
aS'libcryptoopenssl-OpenSSL_1_0_2i'
p2608
aS'libcryptoopenssl-OpenSSL_0_9_7m'
p2609
aS'libcryptoopenssl-OpenSSL_0_9_7l'
p2610
aS'libcryptoopenssl-OpenSSL_0_9_7i'
p2611
aS'libcryptoopenssl-OpenSSL_0_9_7h'
p2612
aS'libcryptoopenssl-OpenSSL_0_9_7k'
p2613
aS'libcryptoopenssl-OpenSSL_0_9_7j'
p2614
aS'libcryptoopenssl-OpenSSL_0_9_7e'
p2615
aS'libcryptoopenssl-OpenSSL_0_9_7d'
p2616
aS'libcryptoopenssl-OpenSSL_0_9_7g'
p2617
aS'libcryptoopenssl-OpenSSL_0_9_7f'
p2618
aS'libcryptoopenssl-OpenSSL_0_9_7a'
p2619
aS'libcryptoopenssl-OpenSSL_0_9_7c'
p2620
aS'libcryptoopenssl-OpenSSL_0_9_7b'
p2621
aS'libcryptoopenssl-OpenSSL_0_9_8'
p2622
aS'libcryptoopenssl-OpenSSL_0_9_7'
p2623
atp2624
Rp2625
sS'BN_lshift1'
p2626
g2
((lp2627
tp2628
Rp2629
sS'X509v3_get_ext_by_critical'
p2630
g2
((lp2631
S'libcryptoopenssl-OpenSSL_0_9_8t'
p2632
aS'libcryptoopenssl-OpenSSL_0_9_8u'
p2633
aS'libcryptoopenssl-OpenSSL_0_9_8v'
p2634
aS'libcryptoopenssl-OpenSSL_0_9_8w'
p2635
aS'libcryptoopenssl-OpenSSL_0_9_8s'
p2636
aS'libcryptoopenssl-OpenSSL_0_9_8x'
p2637
atp2638
Rp2639
sS'DSA_SIG_free'
p2640
g2
((lp2641
S'libcryptoopenssl-OpenSSL_1_0_2'
p2642
aS'libcryptoopenssl-OpenSSL_1_0_1'
p2643
aS'libcryptoopenssl-OpenSSL_1_0_2q'
p2644
aS'libcryptoopenssl-OpenSSL_1_0_2f'
p2645
aS'libcryptoopenssl-OpenSSL_1_0_2g'
p2646
aS'libcryptoopenssl-OpenSSL_1_0_2d'
p2647
aS'libcryptoopenssl-OpenSSL_1_0_2e'
p2648
aS'libcryptoopenssl-OpenSSL_1_0_2b'
p2649
aS'libcryptoopenssl-OpenSSL_1_0_2c'
p2650
aS'libcryptoopenssl-OpenSSL_1_0_2a'
p2651
aS'libcryptoopenssl-OpenSSL_1_0_2n'
p2652
aS'libcryptoopenssl-OpenSSL_1_0_2o'
p2653
aS'libcryptoopenssl-OpenSSL_1_0_2l'
p2654
aS'libcryptoopenssl-OpenSSL_1_0_2m'
p2655
aS'libcryptoopenssl-OpenSSL_1_0_2j'
p2656
aS'libcryptoopenssl-OpenSSL_1_0_2k'
p2657
aS'libcryptoopenssl-OpenSSL_1_0_2h'
p2658
aS'libcryptoopenssl-OpenSSL_1_0_2i'
p2659
aS'libcryptoopenssl-OpenSSL_0_9_8t'
p2660
aS'libcryptoopenssl-OpenSSL_0_9_8u'
p2661
aS'libcryptoopenssl-OpenSSL_0_9_8v'
p2662
aS'libcryptoopenssl-OpenSSL_0_9_8w'
p2663
aS'libcryptoopenssl-OpenSSL_0_9_8p'
p2664
aS'libcryptoopenssl-OpenSSL_0_9_8q'
p2665
aS'libcryptoopenssl-OpenSSL_0_9_8r'
p2666
aS'libcryptoopenssl-OpenSSL_0_9_8s'
p2667
aS'libcryptoopenssl-OpenSSL_0_9_8x'
p2668
aS'libcryptoopenssl-OpenSSL_0_9_8y'
p2669
aS'libcryptoopenssl-OpenSSL_0_9_8m'
p2670
aS'libcryptoopenssl-OpenSSL_0_9_8n'
p2671
aS'libcryptoopenssl-OpenSSL_0_9_8o'
p2672
aS'libcryptoopenssl-OpenSSL_1_0_1t'
p2673
aS'libcryptoopenssl-OpenSSL_1_0_1s'
p2674
aS'libcryptoopenssl-OpenSSL_1_0_1r'
p2675
aS'libcryptoopenssl-OpenSSL_1_0_1q'
p2676
aS'libcryptoopenssl-OpenSSL_1_0_1p'
p2677
aS'libcryptoopenssl-OpenSSL_1_0_1o'
p2678
aS'libcryptoopenssl-OpenSSL_1_0_1n'
p2679
aS'libcryptoopenssl-OpenSSL_1_0_1m'
p2680
aS'libcryptoopenssl-OpenSSL_1_0_1l'
p2681
aS'libcryptoopenssl-OpenSSL_1_0_1k'
p2682
aS'libcryptoopenssl-OpenSSL_1_0_1j'
p2683
aS'libcryptoopenssl-OpenSSL_1_0_1i'
p2684
aS'libcryptoopenssl-OpenSSL_1_0_1h'
p2685
aS'libcryptoopenssl-OpenSSL_1_0_1g'
p2686
aS'libcryptoopenssl-OpenSSL_1_0_1f'
p2687
aS'libcryptoopenssl-OpenSSL_1_0_1e'
p2688
aS'libcryptoopenssl-OpenSSL_1_0_1d'
p2689
aS'libcryptoopenssl-OpenSSL_1_0_1c'
p2690
aS'libcryptoopenssl-OpenSSL_1_0_1b'
p2691
aS'libcryptoopenssl-OpenSSL_1_0_1a'
p2692
atp2693
Rp2694
sS'X509_NAME_delete_entry'
p2695
g2
((lp2696
S'libcryptoopenssl-OpenSSL_0_9_8t'
p2697
aS'libcryptoopenssl-OpenSSL_0_9_8u'
p2698
aS'libcryptoopenssl-OpenSSL_0_9_8v'
p2699
aS'libcryptoopenssl-OpenSSL_0_9_8w'
p2700
aS'libcryptoopenssl-OpenSSL_0_9_8s'
p2701
aS'libcryptoopenssl-OpenSSL_0_9_8x'
p2702
atp2703
Rp2704
sS'ASN1_TIME_set'
p2705
g2
((lp2706
S'libcryptoopenssl-OpenSSL_0_9_7m'
p2707
aS'libcryptoopenssl-OpenSSL_0_9_7l'
p2708
aS'libcryptoopenssl-OpenSSL_0_9_7i'
p2709
aS'libcryptoopenssl-OpenSSL_0_9_7h'
p2710
aS'libcryptoopenssl-OpenSSL_0_9_7k'
p2711
aS'libcryptoopenssl-OpenSSL_0_9_7j'
p2712
aS'libcryptoopenssl-OpenSSL_0_9_7e'
p2713
aS'libcryptoopenssl-OpenSSL_0_9_7d'
p2714
aS'libcryptoopenssl-OpenSSL_0_9_7g'
p2715
aS'libcryptoopenssl-OpenSSL_0_9_7f'
p2716
aS'libcryptoopenssl-OpenSSL_0_9_7a'
p2717
aS'libcryptoopenssl-OpenSSL_0_9_7c'
p2718
aS'libcryptoopenssl-OpenSSL_0_9_7b'
p2719
aS'libcryptoopenssl-OpenSSL_0_9_8t'
p2720
aS'libcryptoopenssl-OpenSSL_0_9_8u'
p2721
aS'libcryptoopenssl-OpenSSL_0_9_8v'
p2722
aS'libcryptoopenssl-OpenSSL_0_9_8w'
p2723
aS'libcryptoopenssl-OpenSSL_0_9_8p'
p2724
aS'libcryptoopenssl-OpenSSL_0_9_8q'
p2725
aS'libcryptoopenssl-OpenSSL_0_9_8r'
p2726
aS'libcryptoopenssl-OpenSSL_0_9_8s'
p2727
aS'libcryptoopenssl-OpenSSL_0_9_8x'
p2728
aS'libcryptoopenssl-OpenSSL_0_9_8y'
p2729
aS'libcryptoopenssl-OpenSSL_0_9_8d'
p2730
aS'libcryptoopenssl-OpenSSL_0_9_8e'
p2731
aS'libcryptoopenssl-OpenSSL_0_9_8f'
p2732
aS'libcryptoopenssl-OpenSSL_0_9_8g'
p2733
aS'libcryptoopenssl-OpenSSL_0_9_8a'
p2734
aS'libcryptoopenssl-OpenSSL_0_9_8b'
p2735
aS'libcryptoopenssl-OpenSSL_0_9_8c'
p2736
aS'libcryptoopenssl-OpenSSL_0_9_8l'
p2737
aS'libcryptoopenssl-OpenSSL_0_9_8m'
p2738
aS'libcryptoopenssl-OpenSSL_0_9_8n'
p2739
aS'libcryptoopenssl-OpenSSL_0_9_8o'
p2740
aS'libcryptoopenssl-OpenSSL_0_9_8h'
p2741
aS'libcryptoopenssl-OpenSSL_0_9_8i'
p2742
aS'libcryptoopenssl-OpenSSL_0_9_8j'
p2743
aS'libcryptoopenssl-OpenSSL_0_9_8k'
p2744
aS'libcryptoopenssl-OpenSSL_0_9_8'
p2745
atp2746
Rp2747
sS'ASN1_ENUMERATED_get'
p2748
g2
((lp2749
S'libcryptoopenssl-OpenSSL_1_0_2e'
p2750
aS'libcryptoopenssl-OpenSSL_1_0_1j'
p2751
aS'libcryptoopenssl-OpenSSL_1_0_0e'
p2752
aS'libcryptoopenssl-OpenSSL_1_0_0n'
p2753
aS'libcryptoopenssl-OpenSSL_1_0_2q'
p2754
aS'libcryptoopenssl-OpenSSL_1_0_1'
p2755
aS'libcryptoopenssl-OpenSSL_1_0_0'
p2756
aS'libcryptoopenssl-OpenSSL_1_0_0l'
p2757
aS'libcryptoopenssl-OpenSSL_1_0_2b'
p2758
aS'libcryptoopenssl-OpenSSL_1_0_0m'
p2759
aS'libcryptoopenssl-OpenSSL_0_9_8e'
p2760
aS'libcryptoopenssl-OpenSSL_1_0_0t'
p2761
aS'libcryptoopenssl-OpenSSL_1_0_2i'
p2762
aS'libcryptoopenssl-OpenSSL_1_0_0p'
p2763
aS'libcryptoopenssl-OpenSSL_1_0_0q'
p2764
aS'libcryptoopenssl-OpenSSL_1_0_0r'
p2765
aS'libcryptoopenssl-OpenSSL_1_0_0s'
p2766
aS'libcryptoopenssl-OpenSSL_1_0_2f'
p2767
aS'libcryptoopenssl-OpenSSL_1_0_2g'
p2768
aS'libcryptoopenssl-OpenSSL_1_0_2d'
p2769
aS'libcryptoopenssl-OpenSSL_1_0_0o'
p2770
aS'libcryptoopenssl-OpenSSL_1_0_0h'
p2771
aS'libcryptoopenssl-OpenSSL_1_0_2c'
p2772
aS'libcryptoopenssl-OpenSSL_1_0_0j'
p2773
aS'libcryptoopenssl-OpenSSL_1_0_2a'
p2774
aS'libcryptoopenssl-OpenSSL_1_0_2n'
p2775
aS'libcryptoopenssl-OpenSSL_1_0_2o'
p2776
aS'libcryptoopenssl-OpenSSL_1_0_0f'
p2777
aS'libcryptoopenssl-OpenSSL_1_0_0g'
p2778
aS'libcryptoopenssl-OpenSSL_1_0_2j'
p2779
aS'libcryptoopenssl-OpenSSL_1_0_0a'
p2780
aS'libcryptoopenssl-OpenSSL_1_0_0b'
p2781
aS'libcryptoopenssl-OpenSSL_1_0_0c'
p2782
aS'libcryptoopenssl-OpenSSL_0_9_8t'
p2783
aS'libcryptoopenssl-OpenSSL_0_9_8u'
p2784
aS'libcryptoopenssl-OpenSSL_0_9_8v'
p2785
aS'libcryptoopenssl-OpenSSL_0_9_8w'
p2786
aS'libcryptoopenssl-OpenSSL_0_9_8p'
p2787
aS'libcryptoopenssl-OpenSSL_0_9_8q'
p2788
aS'libcryptoopenssl-OpenSSL_0_9_8r'
p2789
aS'libcryptoopenssl-OpenSSL_0_9_8s'
p2790
aS'libcryptoopenssl-OpenSSL_1_0_0k'
p2791
aS'libcryptoopenssl-OpenSSL_0_9_8x'
p2792
aS'libcryptoopenssl-OpenSSL_0_9_8y'
p2793
aS'libcryptoopenssl-OpenSSL_0_9_8d'
p2794
aS'libcryptoopenssl-OpenSSL_1_0_0d'
p2795
aS'libcryptoopenssl-OpenSSL_0_9_8f'
p2796
aS'libcryptoopenssl-OpenSSL_0_9_8g'
p2797
aS'libcryptoopenssl-OpenSSL_1_0_2l'
p2798
aS'libcryptoopenssl-OpenSSL_0_9_8a'
p2799
aS'libcryptoopenssl-OpenSSL_0_9_8b'
p2800
aS'libcryptoopenssl-OpenSSL_0_9_8c'
p2801
aS'libcryptoopenssl-OpenSSL_0_9_8l'
p2802
aS'libcryptoopenssl-OpenSSL_0_9_8m'
p2803
aS'libcryptoopenssl-OpenSSL_0_9_8n'
p2804
aS'libcryptoopenssl-OpenSSL_0_9_8o'
p2805
aS'libcryptoopenssl-OpenSSL_0_9_8h'
p2806
aS'libcryptoopenssl-OpenSSL_0_9_8i'
p2807
aS'libcryptoopenssl-OpenSSL_0_9_8j'
p2808
aS'libcryptoopenssl-OpenSSL_0_9_8k'
p2809
aS'libcryptoopenssl-OpenSSL_1_0_2k'
p2810
aS'libcryptoopenssl-OpenSSL_1_0_0i'
p2811
aS'libcryptoopenssl-OpenSSL_1_0_2m'
p2812
aS'libcryptoopenssl-OpenSSL_1_0_2'
p2813
aS'libcryptoopenssl-OpenSSL_0_9_8'
p2814
aS'libcryptoopenssl-OpenSSL_1_0_1t'
p2815
aS'libcryptoopenssl-OpenSSL_1_0_1s'
p2816
aS'libcryptoopenssl-OpenSSL_1_0_1r'
p2817
aS'libcryptoopenssl-OpenSSL_1_0_1q'
p2818
aS'libcryptoopenssl-OpenSSL_1_0_1p'
p2819
aS'libcryptoopenssl-OpenSSL_1_0_1o'
p2820
aS'libcryptoopenssl-OpenSSL_1_0_1n'
p2821
aS'libcryptoopenssl-OpenSSL_1_0_1m'
p2822
aS'libcryptoopenssl-OpenSSL_1_0_1l'
p2823
aS'libcryptoopenssl-OpenSSL_1_0_1k'
p2824
aS'libcryptoopenssl-OpenSSL_1_0_2h'
p2825
aS'libcryptoopenssl-OpenSSL_1_0_1i'
p2826
aS'libcryptoopenssl-OpenSSL_1_0_1h'
p2827
aS'libcryptoopenssl-OpenSSL_1_0_1g'
p2828
aS'libcryptoopenssl-OpenSSL_1_0_1f'
p2829
aS'libcryptoopenssl-OpenSSL_1_0_1e'
p2830
aS'libcryptoopenssl-OpenSSL_1_0_1d'
p2831
aS'libcryptoopenssl-OpenSSL_1_0_1c'
p2832
aS'libcryptoopenssl-OpenSSL_1_0_1b'
p2833
aS'libcryptoopenssl-OpenSSL_1_0_1a'
p2834
atp2835
Rp2836
sS'i2d_ASN1_BOOLEAN'
p2837
g2
((lp2838
tp2839
Rp2840
sS'X509_VERIFY_PARAM_set1_name'
p2841
g2
((lp2842
tp2843
Rp2844
sS'bn_cmp_words'
p2845
g2
((lp2846
tp2847
Rp2848
sS'aes_192_ecb_cipher'
p2849
g2
((lp2850
S'libcryptoopenssl-OpenSSL_0_9_7m'
p2851
aS'libcryptoopenssl-OpenSSL_0_9_7l'
p2852
aS'libcryptoopenssl-OpenSSL_0_9_7i'
p2853
aS'libcryptoopenssl-OpenSSL_0_9_7h'
p2854
aS'libcryptoopenssl-OpenSSL_0_9_7k'
p2855
aS'libcryptoopenssl-OpenSSL_0_9_7j'
p2856
aS'libcryptoopenssl-OpenSSL_0_9_7e'
p2857
aS'libcryptoopenssl-OpenSSL_0_9_7d'
p2858
aS'libcryptoopenssl-OpenSSL_0_9_7g'
p2859
aS'libcryptoopenssl-OpenSSL_0_9_7f'
p2860
aS'libcryptoopenssl-OpenSSL_0_9_7a'
p2861
aS'libcryptoopenssl-OpenSSL_0_9_7c'
p2862
aS'libcryptoopenssl-OpenSSL_0_9_7b'
p2863
aS'libcryptoopenssl-OpenSSL_0_9_8t'
p2864
aS'libcryptoopenssl-OpenSSL_0_9_8u'
p2865
aS'libcryptoopenssl-OpenSSL_0_9_8v'
p2866
aS'libcryptoopenssl-OpenSSL_0_9_8w'
p2867
aS'libcryptoopenssl-OpenSSL_0_9_8p'
p2868
aS'libcryptoopenssl-OpenSSL_0_9_8q'
p2869
aS'libcryptoopenssl-OpenSSL_0_9_8r'
p2870
aS'libcryptoopenssl-OpenSSL_0_9_8s'
p2871
aS'libcryptoopenssl-OpenSSL_0_9_8x'
p2872
aS'libcryptoopenssl-OpenSSL_0_9_8y'
p2873
aS'libcryptoopenssl-OpenSSL_0_9_8d'
p2874
aS'libcryptoopenssl-OpenSSL_0_9_8e'
p2875
aS'libcryptoopenssl-OpenSSL_0_9_8f'
p2876
aS'libcryptoopenssl-OpenSSL_0_9_8g'
p2877
aS'libcryptoopenssl-OpenSSL_0_9_8a'
p2878
aS'libcryptoopenssl-OpenSSL_0_9_8b'
p2879
aS'libcryptoopenssl-OpenSSL_0_9_8c'
p2880
aS'libcryptoopenssl-OpenSSL_0_9_8l'
p2881
aS'libcryptoopenssl-OpenSSL_0_9_8m'
p2882
aS'libcryptoopenssl-OpenSSL_0_9_8n'
p2883
aS'libcryptoopenssl-OpenSSL_0_9_8o'
p2884
aS'libcryptoopenssl-OpenSSL_0_9_8h'
p2885
aS'libcryptoopenssl-OpenSSL_0_9_8i'
p2886
aS'libcryptoopenssl-OpenSSL_0_9_8j'
p2887
aS'libcryptoopenssl-OpenSSL_0_9_8k'
p2888
aS'libcryptoopenssl-OpenSSL_0_9_8'
p2889
aS'libcryptoopenssl-OpenSSL_0_9_7'
p2890
atp2891
Rp2892
sS'X509_pubkey_digest'
p2893
g2
((lp2894
S'libcryptoopenssl-OpenSSL_1_0_2e'
p2895
aS'libcryptoopenssl-OpenSSL_1_0_1j'
p2896
aS'libcryptoopenssl-OpenSSL_1_0_0e'
p2897
aS'libcryptoopenssl-OpenSSL_1_0_0n'
p2898
aS'libcryptoopenssl-OpenSSL_1_0_2q'
p2899
aS'libcryptoopenssl-OpenSSL_1_0_1'
p2900
aS'libcryptoopenssl-OpenSSL_1_0_0'
p2901
aS'libcryptoopenssl-OpenSSL_1_0_0l'
p2902
aS'libcryptoopenssl-OpenSSL_1_0_2b'
p2903
aS'libcryptoopenssl-OpenSSL_1_0_0m'
p2904
aS'libcryptoopenssl-OpenSSL_0_9_8e'
p2905
aS'libcryptoopenssl-OpenSSL_1_0_0t'
p2906
aS'libcryptoopenssl-OpenSSL_1_0_2i'
p2907
aS'libcryptoopenssl-OpenSSL_1_0_0p'
p2908
aS'libcryptoopenssl-OpenSSL_1_0_0q'
p2909
aS'libcryptoopenssl-OpenSSL_1_0_0r'
p2910
aS'libcryptoopenssl-OpenSSL_1_0_0s'
p2911
aS'libcryptoopenssl-OpenSSL_1_0_2f'
p2912
aS'libcryptoopenssl-OpenSSL_1_0_2g'
p2913
aS'libcryptoopenssl-OpenSSL_1_0_2d'
p2914
aS'libcryptoopenssl-OpenSSL_1_0_0o'
p2915
aS'libcryptoopenssl-OpenSSL_1_0_0h'
p2916
aS'libcryptoopenssl-OpenSSL_1_0_2c'
p2917
aS'libcryptoopenssl-OpenSSL_1_0_0j'
p2918
aS'libcryptoopenssl-OpenSSL_1_0_2a'
p2919
aS'libcryptoopenssl-OpenSSL_1_0_2n'
p2920
aS'libcryptoopenssl-OpenSSL_1_0_2o'
p2921
aS'libcryptoopenssl-OpenSSL_1_0_0f'
p2922
aS'libcryptoopenssl-OpenSSL_1_0_0g'
p2923
aS'libcryptoopenssl-OpenSSL_1_0_2j'
p2924
aS'libcryptoopenssl-OpenSSL_1_0_0a'
p2925
aS'libcryptoopenssl-OpenSSL_1_0_0b'
p2926
aS'libcryptoopenssl-OpenSSL_1_0_0c'
p2927
aS'libcryptoopenssl-OpenSSL_0_9_8t'
p2928
aS'libcryptoopenssl-OpenSSL_0_9_8u'
p2929
aS'libcryptoopenssl-OpenSSL_0_9_8v'
p2930
aS'libcryptoopenssl-OpenSSL_0_9_8w'
p2931
aS'libcryptoopenssl-OpenSSL_0_9_8p'
p2932
aS'libcryptoopenssl-OpenSSL_0_9_8q'
p2933
aS'libcryptoopenssl-OpenSSL_0_9_8r'
p2934
aS'libcryptoopenssl-OpenSSL_0_9_8s'
p2935
aS'libcryptoopenssl-OpenSSL_1_0_0k'
p2936
aS'libcryptoopenssl-OpenSSL_0_9_8x'
p2937
aS'libcryptoopenssl-OpenSSL_0_9_8y'
p2938
aS'libcryptoopenssl-OpenSSL_0_9_8d'
p2939
aS'libcryptoopenssl-OpenSSL_1_0_0d'
p2940
aS'libcryptoopenssl-OpenSSL_0_9_8f'
p2941
aS'libcryptoopenssl-OpenSSL_0_9_8g'
p2942
aS'libcryptoopenssl-OpenSSL_1_0_2l'
p2943
aS'libcryptoopenssl-OpenSSL_0_9_8a'
p2944
aS'libcryptoopenssl-OpenSSL_0_9_8b'
p2945
aS'libcryptoopenssl-OpenSSL_0_9_8c'
p2946
aS'libcryptoopenssl-OpenSSL_0_9_8l'
p2947
aS'libcryptoopenssl-OpenSSL_0_9_8m'
p2948
aS'libcryptoopenssl-OpenSSL_0_9_8n'
p2949
aS'libcryptoopenssl-OpenSSL_0_9_8o'
p2950
aS'libcryptoopenssl-OpenSSL_0_9_8h'
p2951
aS'libcryptoopenssl-OpenSSL_0_9_8i'
p2952
aS'libcryptoopenssl-OpenSSL_0_9_8j'
p2953
aS'libcryptoopenssl-OpenSSL_0_9_8k'
p2954
aS'libcryptoopenssl-OpenSSL_1_0_2k'
p2955
aS'libcryptoopenssl-OpenSSL_1_0_0i'
p2956
aS'libcryptoopenssl-OpenSSL_1_0_2m'
p2957
aS'libcryptoopenssl-OpenSSL_1_0_2'
p2958
aS'libcryptoopenssl-OpenSSL_0_9_8'
p2959
aS'libcryptoopenssl-OpenSSL_1_0_1t'
p2960
aS'libcryptoopenssl-OpenSSL_1_0_1s'
p2961
aS'libcryptoopenssl-OpenSSL_1_0_1r'
p2962
aS'libcryptoopenssl-OpenSSL_1_0_1q'
p2963
aS'libcryptoopenssl-OpenSSL_1_0_1p'
p2964
aS'libcryptoopenssl-OpenSSL_1_0_1o'
p2965
aS'libcryptoopenssl-OpenSSL_1_0_1n'
p2966
aS'libcryptoopenssl-OpenSSL_1_0_1m'
p2967
aS'libcryptoopenssl-OpenSSL_1_0_1l'
p2968
aS'libcryptoopenssl-OpenSSL_1_0_1k'
p2969
aS'libcryptoopenssl-OpenSSL_1_0_2h'
p2970
aS'libcryptoopenssl-OpenSSL_1_0_1i'
p2971
aS'libcryptoopenssl-OpenSSL_1_0_1h'
p2972
aS'libcryptoopenssl-OpenSSL_1_0_1g'
p2973
aS'libcryptoopenssl-OpenSSL_1_0_1f'
p2974
aS'libcryptoopenssl-OpenSSL_1_0_1e'
p2975
aS'libcryptoopenssl-OpenSSL_1_0_1d'
p2976
aS'libcryptoopenssl-OpenSSL_1_0_1c'
p2977
aS'libcryptoopenssl-OpenSSL_1_0_1b'
p2978
aS'libcryptoopenssl-OpenSSL_1_0_1a'
p2979
atp2980
Rp2981
sS'BN_sub_word'
p2982
g2
((lp2983
tp2984
Rp2985
sS'EC_POINT_free'
p2986
g2
((lp2987
tp2988
Rp2989
sS'lh_free'
p2990
g2
((lp2991
tp2992
Rp2993
sS'BN_mod_lshift_quick'
p2994
g2
((lp2995
tp2996
Rp2997
sS'bn_sub_words'
p2998
g2
((lp2999
tp3000
Rp3001
sS'ripemd160_block_data_order'
p3002
g2
((lp3003
S'libcryptoopenssl-OpenSSL_1_0_2e'
p3004
aS'libcryptoopenssl-OpenSSL_1_1_0'
p3005
aS'libcryptoopenssl-OpenSSL_1_0_0l'
p3006
aS'libcryptoopenssl-OpenSSL_1_0_1j'
p3007
aS'libcryptoopenssl-OpenSSL_1_0_0n'
p3008
aS'libcryptoopenssl-OpenSSL_1_1_0h'
p3009
aS'libcryptoopenssl-OpenSSL_1_0_2q'
p3010
aS'libcryptoopenssl-OpenSSL_1_0_1'
p3011
aS'libcryptoopenssl-OpenSSL_0_9_8q'
p3012
aS'libcryptoopenssl-OpenSSL_1_1_0g'
p3013
aS'libcryptoopenssl-OpenSSL_1_0_2b'
p3014
aS'libcryptoopenssl-OpenSSL_1_0_0m'
p3015
aS'libcryptoopenssl-OpenSSL_1_0_0t'
p3016
aS'libcryptoopenssl-OpenSSL_1_0_2i'
p3017
aS'libcryptoopenssl-OpenSSL_1_0_0p'
p3018
aS'libcryptoopenssl-OpenSSL_1_1_0e'
p3019
aS'libcryptoopenssl-OpenSSL_1_0_0r'
p3020
aS'libcryptoopenssl-OpenSSL_1_0_0s'
p3021
aS'libcryptoopenssl-OpenSSL_1_0_2f'
p3022
aS'libcryptoopenssl-OpenSSL_1_0_2g'
p3023
aS'libcryptoopenssl-OpenSSL_1_0_2d'
p3024
aS'libcryptoopenssl-OpenSSL_1_0_0o'
p3025
aS'libcryptoopenssl-OpenSSL_1_1_0c'
p3026
aS'libcryptoopenssl-OpenSSL_1_1_0b'
p3027
aS'libcryptoopenssl-OpenSSL_1_1_0a'
p3028
aS'libcryptoopenssl-OpenSSL_1_0_2a'
p3029
aS'libcryptoopenssl-OpenSSL_1_0_2n'
p3030
aS'libcryptoopenssl-OpenSSL_1_0_2o'
p3031
aS'libcryptoopenssl-OpenSSL_1_0_0f'
p3032
aS'libcryptoopenssl-OpenSSL_1_0_0g'
p3033
aS'libcryptoopenssl-OpenSSL_1_0_2j'
p3034
aS'libcryptoopenssl-OpenSSL_1_0_0a'
p3035
aS'libcryptoopenssl-OpenSSL_1_0_0b'
p3036
aS'libcryptoopenssl-OpenSSL_1_0_2c'
p3037
aS'libcryptoopenssl-OpenSSL_0_9_8t'
p3038
aS'libcryptoopenssl-OpenSSL_0_9_8u'
p3039
aS'libcryptoopenssl-OpenSSL_0_9_8v'
p3040
aS'libcryptoopenssl-OpenSSL_0_9_8w'
p3041
aS'libcryptoopenssl-OpenSSL_0_9_8p'
p3042
aS'libcryptoopenssl-OpenSSL_1_0_0j'
p3043
aS'libcryptoopenssl-OpenSSL_0_9_8r'
p3044
aS'libcryptoopenssl-OpenSSL_0_9_8s'
p3045
aS'libcryptoopenssl-OpenSSL_1_0_2k'
p3046
aS'libcryptoopenssl-OpenSSL_1_0_0c'
p3047
aS'libcryptoopenssl-OpenSSL_1_0_0k'
p3048
aS'libcryptoopenssl-OpenSSL_0_9_8x'
p3049
aS'libcryptoopenssl-OpenSSL_0_9_8y'
p3050
aS'libcryptoopenssl-OpenSSL_1_0_0d'
p3051
aS'libcryptoopenssl-OpenSSL_1_0_2l'
p3052
aS'libcryptoopenssl-OpenSSL_1_0_0e'
p3053
aS'libcryptoopenssl-OpenSSL_0_9_8m'
p3054
aS'libcryptoopenssl-OpenSSL_0_9_8n'
p3055
aS'libcryptoopenssl-OpenSSL_0_9_8o'
p3056
aS'libcryptoopenssl-OpenSSL_1_0_2'
p3057
aS'libcryptoopenssl-OpenSSL_1_1_0d'
p3058
aS'libcryptoopenssl-OpenSSL_1_0_0'
p3059
aS'libcryptoopenssl-OpenSSL_1_0_0i'
p3060
aS'libcryptoopenssl-OpenSSL_1_0_2m'
p3061
aS'libcryptoopenssl-OpenSSL_1_1_0f'
p3062
aS'libcryptoopenssl-OpenSSL_1_0_0q'
p3063
aS'libcryptoopenssl-OpenSSL_1_0_1t'
p3064
aS'libcryptoopenssl-OpenSSL_1_0_1s'
p3065
aS'libcryptoopenssl-OpenSSL_1_0_1r'
p3066
aS'libcryptoopenssl-OpenSSL_1_0_1q'
p3067
aS'libcryptoopenssl-OpenSSL_1_0_1p'
p3068
aS'libcryptoopenssl-OpenSSL_1_0_1o'
p3069
aS'libcryptoopenssl-OpenSSL_1_0_1n'
p3070
aS'libcryptoopenssl-OpenSSL_1_0_1m'
p3071
aS'libcryptoopenssl-OpenSSL_1_0_1l'
p3072
aS'libcryptoopenssl-OpenSSL_1_0_1k'
p3073
aS'libcryptoopenssl-OpenSSL_1_0_2h'
p3074
aS'libcryptoopenssl-OpenSSL_1_0_1i'
p3075
aS'libcryptoopenssl-OpenSSL_1_0_1h'
p3076
aS'libcryptoopenssl-OpenSSL_1_0_1g'
p3077
aS'libcryptoopenssl-OpenSSL_1_0_1f'
p3078
aS'libcryptoopenssl-OpenSSL_1_0_1e'
p3079
aS'libcryptoopenssl-OpenSSL_1_0_1d'
p3080
aS'libcryptoopenssl-OpenSSL_1_0_1c'
p3081
aS'libcryptoopenssl-OpenSSL_1_0_1b'
p3082
aS'libcryptoopenssl-OpenSSL_1_0_1a'
p3083
aS'libcryptoopenssl-OpenSSL_1_0_0h'
p3084
atp3085
Rp3086
sS'BN_add'
p3087
g2
((lp3088
tp3089
Rp3090
sS'CRYPTO_free'
p3091
g2
((lp3092
tp3093
Rp3094
sS'MD5_Update'
p3095
g2
((lp3096
S'libcryptoopenssl-OpenSSL_0_9_8t'
p3097
aS'libcryptoopenssl-OpenSSL_0_9_8u'
p3098
aS'libcryptoopenssl-OpenSSL_0_9_8v'
p3099
aS'libcryptoopenssl-OpenSSL_0_9_8w'
p3100
aS'libcryptoopenssl-OpenSSL_0_9_8p'
p3101
aS'libcryptoopenssl-OpenSSL_0_9_8q'
p3102
aS'libcryptoopenssl-OpenSSL_0_9_8r'
p3103
aS'libcryptoopenssl-OpenSSL_0_9_8s'
p3104
aS'libcryptoopenssl-OpenSSL_0_9_8x'
p3105
aS'libcryptoopenssl-OpenSSL_0_9_8y'
p3106
aS'libcryptoopenssl-OpenSSL_0_9_8m'
p3107
aS'libcryptoopenssl-OpenSSL_0_9_8n'
p3108
aS'libcryptoopenssl-OpenSSL_0_9_8o'
p3109
atp3110
Rp3111
sS'_CONF_add_string'
p3112
g2
((lp3113
tp3114
Rp3115
sS'ASN1_item_d2i_bio'
p3116
g2
((lp3117
tp3118
Rp3119
sS'BUF_strlcpy'
p3120
g2
((lp3121
tp3122
Rp3123
sS'ssl3_get_server_done'
p3124
g2
((lp3125
tp3126
Rp3127
sS'EC_POINT_is_at_infinity'
p3128
g2
((lp3129
tp3130
Rp3131
sS'i2c_ASN1_BIT_STRING'
p3132
g2
((lp3133
S'libcryptoopenssl-OpenSSL_1_0_1'
p3134
aS'libcryptoopenssl-OpenSSL_1_0_0'
p3135
aS'libcryptoopenssl-OpenSSL_1_0_0h'
p3136
aS'libcryptoopenssl-OpenSSL_1_0_0i'
p3137
aS'libcryptoopenssl-OpenSSL_1_0_0j'
p3138
aS'libcryptoopenssl-OpenSSL_1_0_0k'
p3139
aS'libcryptoopenssl-OpenSSL_1_0_0d'
p3140
aS'libcryptoopenssl-OpenSSL_1_0_0e'
p3141
aS'libcryptoopenssl-OpenSSL_1_0_0f'
p3142
aS'libcryptoopenssl-OpenSSL_1_0_0g'
p3143
aS'libcryptoopenssl-OpenSSL_1_0_0a'
p3144
aS'libcryptoopenssl-OpenSSL_1_0_0b'
p3145
aS'libcryptoopenssl-OpenSSL_1_0_0c'
p3146
aS'libcryptoopenssl-OpenSSL_0_9_8t'
p3147
aS'libcryptoopenssl-OpenSSL_0_9_8u'
p3148
aS'libcryptoopenssl-OpenSSL_0_9_8v'
p3149
aS'libcryptoopenssl-OpenSSL_0_9_8w'
p3150
aS'libcryptoopenssl-OpenSSL_0_9_8p'
p3151
aS'libcryptoopenssl-OpenSSL_0_9_8q'
p3152
aS'libcryptoopenssl-OpenSSL_0_9_8r'
p3153
aS'libcryptoopenssl-OpenSSL_0_9_8s'
p3154
aS'libcryptoopenssl-OpenSSL_0_9_8x'
p3155
aS'libcryptoopenssl-OpenSSL_0_9_8y'
p3156
aS'libcryptoopenssl-OpenSSL_0_9_8d'
p3157
aS'libcryptoopenssl-OpenSSL_0_9_8e'
p3158
aS'libcryptoopenssl-OpenSSL_0_9_8f'
p3159
aS'libcryptoopenssl-OpenSSL_0_9_8g'
p3160
aS'libcryptoopenssl-OpenSSL_0_9_8b'
p3161
aS'libcryptoopenssl-OpenSSL_0_9_8c'
p3162
aS'libcryptoopenssl-OpenSSL_0_9_8l'
p3163
aS'libcryptoopenssl-OpenSSL_0_9_8m'
p3164
aS'libcryptoopenssl-OpenSSL_0_9_8n'
p3165
aS'libcryptoopenssl-OpenSSL_0_9_8o'
p3166
aS'libcryptoopenssl-OpenSSL_0_9_8h'
p3167
aS'libcryptoopenssl-OpenSSL_0_9_8i'
p3168
aS'libcryptoopenssl-OpenSSL_0_9_8j'
p3169
aS'libcryptoopenssl-OpenSSL_0_9_8k'
p3170
aS'libcryptoopenssl-OpenSSL_1_0_1e'
p3171
aS'libcryptoopenssl-OpenSSL_1_0_1d'
p3172
aS'libcryptoopenssl-OpenSSL_1_0_1c'
p3173
aS'libcryptoopenssl-OpenSSL_1_0_1b'
p3174
aS'libcryptoopenssl-OpenSSL_1_0_1a'
p3175
atp3176
Rp3177
sS'BN_mod_exp_mont'
p3178
g2
((lp3179
tp3180
Rp3181
sS'ASN1_item_digest'
p3182
g2
((lp3183
tp3184
Rp3185
sS'UI_get_string_type'
p3186
g2
((lp3187
S'libcryptoopenssl-OpenSSL_1_0_2'
p3188
aS'libcryptoopenssl-OpenSSL_1_0_1'
p3189
aS'libcryptoopenssl-OpenSSL_1_0_0'
p3190
aS'libcryptoopenssl-OpenSSL_1_0_0t'
p3191
aS'libcryptoopenssl-OpenSSL_1_0_0p'
p3192
aS'libcryptoopenssl-OpenSSL_1_0_0q'
p3193
aS'libcryptoopenssl-OpenSSL_1_0_0r'
p3194
aS'libcryptoopenssl-OpenSSL_1_0_0s'
p3195
aS'libcryptoopenssl-OpenSSL_1_0_0l'
p3196
aS'libcryptoopenssl-OpenSSL_1_0_0m'
p3197
aS'libcryptoopenssl-OpenSSL_1_0_0n'
p3198
aS'libcryptoopenssl-OpenSSL_1_0_0o'
p3199
aS'libcryptoopenssl-OpenSSL_1_0_0h'
p3200
aS'libcryptoopenssl-OpenSSL_1_0_0i'
p3201
aS'libcryptoopenssl-OpenSSL_1_0_0j'
p3202
aS'libcryptoopenssl-OpenSSL_1_0_0k'
p3203
aS'libcryptoopenssl-OpenSSL_1_0_0d'
p3204
aS'libcryptoopenssl-OpenSSL_1_0_0e'
p3205
aS'libcryptoopenssl-OpenSSL_1_0_0f'
p3206
aS'libcryptoopenssl-OpenSSL_1_0_0g'
p3207
aS'libcryptoopenssl-OpenSSL_1_0_0a'
p3208
aS'libcryptoopenssl-OpenSSL_1_0_0b'
p3209
aS'libcryptoopenssl-OpenSSL_1_0_0c'
p3210
aS'libcryptoopenssl-OpenSSL_0_9_8t'
p3211
aS'libcryptoopenssl-OpenSSL_0_9_8u'
p3212
aS'libcryptoopenssl-OpenSSL_0_9_8v'
p3213
aS'libcryptoopenssl-OpenSSL_0_9_8w'
p3214
aS'libcryptoopenssl-OpenSSL_0_9_8p'
p3215
aS'libcryptoopenssl-OpenSSL_0_9_8q'
p3216
aS'libcryptoopenssl-OpenSSL_0_9_8r'
p3217
aS'libcryptoopenssl-OpenSSL_0_9_8s'
p3218
aS'libcryptoopenssl-OpenSSL_0_9_8x'
p3219
aS'libcryptoopenssl-OpenSSL_0_9_8y'
p3220
aS'libcryptoopenssl-OpenSSL_0_9_8d'
p3221
aS'libcryptoopenssl-OpenSSL_0_9_8e'
p3222
aS'libcryptoopenssl-OpenSSL_0_9_8f'
p3223
aS'libcryptoopenssl-OpenSSL_0_9_8g'
p3224
aS'libcryptoopenssl-OpenSSL_0_9_8a'
p3225
aS'libcryptoopenssl-OpenSSL_0_9_8b'
p3226
aS'libcryptoopenssl-OpenSSL_0_9_8c'
p3227
aS'libcryptoopenssl-OpenSSL_0_9_8l'
p3228
aS'libcryptoopenssl-OpenSSL_0_9_8m'
p3229
aS'libcryptoopenssl-OpenSSL_0_9_8n'
p3230
aS'libcryptoopenssl-OpenSSL_0_9_8o'
p3231
aS'libcryptoopenssl-OpenSSL_0_9_8h'
p3232
aS'libcryptoopenssl-OpenSSL_0_9_8i'
p3233
aS'libcryptoopenssl-OpenSSL_0_9_8j'
p3234
aS'libcryptoopenssl-OpenSSL_0_9_8k'
p3235
aS'libcryptoopenssl-OpenSSL_1_0_1t'
p3236
aS'libcryptoopenssl-OpenSSL_1_0_1s'
p3237
aS'libcryptoopenssl-OpenSSL_1_0_1r'
p3238
aS'libcryptoopenssl-OpenSSL_1_0_1q'
p3239
aS'libcryptoopenssl-OpenSSL_1_0_1p'
p3240
aS'libcryptoopenssl-OpenSSL_1_0_1o'
p3241
aS'libcryptoopenssl-OpenSSL_1_0_1n'
p3242
aS'libcryptoopenssl-OpenSSL_1_0_1m'
p3243
aS'libcryptoopenssl-OpenSSL_1_0_1l'
p3244
aS'libcryptoopenssl-OpenSSL_1_0_1k'
p3245
aS'libcryptoopenssl-OpenSSL_1_0_1j'
p3246
aS'libcryptoopenssl-OpenSSL_1_0_1i'
p3247
aS'libcryptoopenssl-OpenSSL_1_0_1h'
p3248
aS'libcryptoopenssl-OpenSSL_1_0_1g'
p3249
aS'libcryptoopenssl-OpenSSL_1_0_1f'
p3250
aS'libcryptoopenssl-OpenSSL_1_0_1e'
p3251
aS'libcryptoopenssl-OpenSSL_1_0_1d'
p3252
aS'libcryptoopenssl-OpenSSL_1_0_1c'
p3253
aS'libcryptoopenssl-OpenSSL_1_0_1b'
p3254
aS'libcryptoopenssl-OpenSSL_1_0_1a'
p3255
aS'libcryptoopenssl-OpenSSL_1_1_0'
p3256
aS'libcryptoopenssl-OpenSSL_1_0_2q'
p3257
aS'libcryptoopenssl-OpenSSL_1_0_2f'
p3258
aS'libcryptoopenssl-OpenSSL_1_0_2g'
p3259
aS'libcryptoopenssl-OpenSSL_1_0_2d'
p3260
aS'libcryptoopenssl-OpenSSL_1_0_2e'
p3261
aS'libcryptoopenssl-OpenSSL_1_0_2b'
p3262
aS'libcryptoopenssl-OpenSSL_1_0_2c'
p3263
aS'libcryptoopenssl-OpenSSL_1_0_2a'
p3264
aS'libcryptoopenssl-OpenSSL_1_0_2n'
p3265
aS'libcryptoopenssl-OpenSSL_1_0_2o'
p3266
aS'libcryptoopenssl-OpenSSL_1_0_2l'
p3267
aS'libcryptoopenssl-OpenSSL_1_0_2m'
p3268
aS'libcryptoopenssl-OpenSSL_1_0_2j'
p3269
aS'libcryptoopenssl-OpenSSL_1_0_2k'
p3270
aS'libcryptoopenssl-OpenSSL_1_0_2h'
p3271
aS'libcryptoopenssl-OpenSSL_1_0_2i'
p3272
aS'libcryptoopenssl-OpenSSL_0_9_7m'
p3273
aS'libcryptoopenssl-OpenSSL_0_9_7l'
p3274
aS'libcryptoopenssl-OpenSSL_0_9_7i'
p3275
aS'libcryptoopenssl-OpenSSL_0_9_7h'
p3276
aS'libcryptoopenssl-OpenSSL_0_9_7k'
p3277
aS'libcryptoopenssl-OpenSSL_0_9_7j'
p3278
aS'libcryptoopenssl-OpenSSL_0_9_7e'
p3279
aS'libcryptoopenssl-OpenSSL_0_9_7d'
p3280
aS'libcryptoopenssl-OpenSSL_0_9_7g'
p3281
aS'libcryptoopenssl-OpenSSL_0_9_7f'
p3282
aS'libcryptoopenssl-OpenSSL_0_9_7a'
p3283
aS'libcryptoopenssl-OpenSSL_0_9_7c'
p3284
aS'libcryptoopenssl-OpenSSL_0_9_7b'
p3285
aS'libcryptoopenssl-OpenSSL_0_9_8'
p3286
aS'libcryptoopenssl-OpenSSL_0_9_7'
p3287
atp3288
Rp3289
sS'dtls1_clear'
p3290
g2
((lp3291
S'libsslopenssl-OpenSSL_1_0_1'
p3292
aS'libsslopenssl-OpenSSL_1_0_1e'
p3293
aS'libsslopenssl-OpenSSL_1_0_1g'
p3294
aS'libsslopenssl-OpenSSL_1_0_1f'
p3295
aS'libsslopenssl-OpenSSL_1_0_0f'
p3296
aS'libsslopenssl-OpenSSL_1_0_1d'
p3297
aS'libsslopenssl-OpenSSL_1_0_1c'
p3298
aS'libsslopenssl-OpenSSL_1_0_1b'
p3299
aS'libsslopenssl-OpenSSL_1_0_1a'
p3300
aS'libsslopenssl-OpenSSL_1_0_0l'
p3301
aS'libsslopenssl-OpenSSL_1_0_0g'
p3302
aS'libsslopenssl-OpenSSL_1_0_0k'
p3303
atp3304
Rp3305
sS'PKCS7_SIGNER_INFO_set'
p3306
g2
((lp3307
S'libcryptoopenssl-OpenSSL_0_9_8t'
p3308
aS'libcryptoopenssl-OpenSSL_0_9_8u'
p3309
aS'libcryptoopenssl-OpenSSL_0_9_8v'
p3310
aS'libcryptoopenssl-OpenSSL_0_9_8w'
p3311
aS'libcryptoopenssl-OpenSSL_0_9_8p'
p3312
aS'libcryptoopenssl-OpenSSL_0_9_8q'
p3313
aS'libcryptoopenssl-OpenSSL_0_9_8r'
p3314
aS'libcryptoopenssl-OpenSSL_0_9_8s'
p3315
aS'libcryptoopenssl-OpenSSL_0_9_8x'
p3316
aS'libcryptoopenssl-OpenSSL_0_9_8y'
p3317
aS'libcryptoopenssl-OpenSSL_0_9_8e'
p3318
aS'libcryptoopenssl-OpenSSL_0_9_8f'
p3319
aS'libcryptoopenssl-OpenSSL_0_9_8g'
p3320
aS'libcryptoopenssl-OpenSSL_0_9_8l'
p3321
aS'libcryptoopenssl-OpenSSL_0_9_8m'
p3322
aS'libcryptoopenssl-OpenSSL_0_9_8n'
p3323
aS'libcryptoopenssl-OpenSSL_0_9_8o'
p3324
aS'libcryptoopenssl-OpenSSL_0_9_8h'
p3325
aS'libcryptoopenssl-OpenSSL_0_9_8i'
p3326
aS'libcryptoopenssl-OpenSSL_0_9_8j'
p3327
aS'libcryptoopenssl-OpenSSL_0_9_8k'
p3328
atp3329
Rp3330
sS'obj_name_cmp'
p3331
g2
((lp3332
S'libcryptoopenssl-OpenSSL_0_9_8t'
p3333
aS'libcryptoopenssl-OpenSSL_0_9_8u'
p3334
aS'libcryptoopenssl-OpenSSL_0_9_8v'
p3335
aS'libcryptoopenssl-OpenSSL_0_9_8w'
p3336
aS'libcryptoopenssl-OpenSSL_0_9_8s'
p3337
aS'libcryptoopenssl-OpenSSL_0_9_8x'
p3338
atp3339
Rp3340
sS'BN_ucmp'
p3341
g2
((lp3342
tp3343
Rp3344
sS'BN_mod_mul_montgomery'
p3345
g2
((lp3346
tp3347
Rp3348
sS'_x86_64_AES_encrypt'
p3349
g2
((lp3350
S'libcryptoopenssl-OpenSSL_0_9_8t'
p3351
aS'libcryptoopenssl-OpenSSL_0_9_8u'
p3352
aS'libcryptoopenssl-OpenSSL_0_9_8v'
p3353
aS'libcryptoopenssl-OpenSSL_0_9_8w'
p3354
aS'libcryptoopenssl-OpenSSL_0_9_8p'
p3355
aS'libcryptoopenssl-OpenSSL_0_9_8q'
p3356
aS'libcryptoopenssl-OpenSSL_0_9_8r'
p3357
aS'libcryptoopenssl-OpenSSL_0_9_8s'
p3358
aS'libcryptoopenssl-OpenSSL_0_9_8x'
p3359
aS'libcryptoopenssl-OpenSSL_0_9_8y'
p3360
aS'libcryptoopenssl-OpenSSL_0_9_8m'
p3361
aS'libcryptoopenssl-OpenSSL_0_9_8n'
p3362
aS'libcryptoopenssl-OpenSSL_0_9_8o'
p3363
atp3364
Rp3365
sS'idea_ofb64_encrypt'
p3366
g2
((lp3367
S'libcryptoopenssl-OpenSSL_0_9_7m'
p3368
aS'libcryptoopenssl-OpenSSL_0_9_7l'
p3369
aS'libcryptoopenssl-OpenSSL_0_9_7i'
p3370
aS'libcryptoopenssl-OpenSSL_0_9_7h'
p3371
aS'libcryptoopenssl-OpenSSL_0_9_7k'
p3372
aS'libcryptoopenssl-OpenSSL_0_9_7j'
p3373
aS'libcryptoopenssl-OpenSSL_0_9_7e'
p3374
aS'libcryptoopenssl-OpenSSL_0_9_7d'
p3375
aS'libcryptoopenssl-OpenSSL_0_9_7g'
p3376
aS'libcryptoopenssl-OpenSSL_0_9_7f'
p3377
aS'libcryptoopenssl-OpenSSL_0_9_7a'
p3378
aS'libcryptoopenssl-OpenSSL_0_9_7c'
p3379
aS'libcryptoopenssl-OpenSSL_0_9_7b'
p3380
aS'libcryptoopenssl-OpenSSL_0_9_8t'
p3381
aS'libcryptoopenssl-OpenSSL_0_9_8u'
p3382
aS'libcryptoopenssl-OpenSSL_0_9_8v'
p3383
aS'libcryptoopenssl-OpenSSL_0_9_8w'
p3384
aS'libcryptoopenssl-OpenSSL_0_9_8p'
p3385
aS'libcryptoopenssl-OpenSSL_0_9_8q'
p3386
aS'libcryptoopenssl-OpenSSL_0_9_8r'
p3387
aS'libcryptoopenssl-OpenSSL_0_9_8s'
p3388
aS'libcryptoopenssl-OpenSSL_0_9_8x'
p3389
aS'libcryptoopenssl-OpenSSL_0_9_8y'
p3390
aS'libcryptoopenssl-OpenSSL_0_9_8d'
p3391
aS'libcryptoopenssl-OpenSSL_0_9_8e'
p3392
aS'libcryptoopenssl-OpenSSL_0_9_8f'
p3393
aS'libcryptoopenssl-OpenSSL_0_9_8g'
p3394
aS'libcryptoopenssl-OpenSSL_0_9_8a'
p3395
aS'libcryptoopenssl-OpenSSL_0_9_8b'
p3396
aS'libcryptoopenssl-OpenSSL_0_9_8c'
p3397
aS'libcryptoopenssl-OpenSSL_0_9_8l'
p3398
aS'libcryptoopenssl-OpenSSL_0_9_8m'
p3399
aS'libcryptoopenssl-OpenSSL_0_9_8n'
p3400
aS'libcryptoopenssl-OpenSSL_0_9_8o'
p3401
aS'libcryptoopenssl-OpenSSL_0_9_8h'
p3402
aS'libcryptoopenssl-OpenSSL_0_9_8i'
p3403
aS'libcryptoopenssl-OpenSSL_0_9_8j'
p3404
aS'libcryptoopenssl-OpenSSL_0_9_8k'
p3405
aS'libcryptoopenssl-OpenSSL_0_9_8'
p3406
aS'libcryptoopenssl-OpenSSL_0_9_7'
p3407
atp3408
Rp3409
sS'RC2_ecb_encrypt'
p3410
g2
((lp3411
S'libcryptoopenssl-OpenSSL_0_9_7m'
p3412
aS'libcryptoopenssl-OpenSSL_0_9_7l'
p3413
aS'libcryptoopenssl-OpenSSL_0_9_7i'
p3414
aS'libcryptoopenssl-OpenSSL_0_9_7h'
p3415
aS'libcryptoopenssl-OpenSSL_0_9_7k'
p3416
aS'libcryptoopenssl-OpenSSL_0_9_7j'
p3417
aS'libcryptoopenssl-OpenSSL_0_9_7e'
p3418
aS'libcryptoopenssl-OpenSSL_0_9_7d'
p3419
aS'libcryptoopenssl-OpenSSL_0_9_7g'
p3420
aS'libcryptoopenssl-OpenSSL_0_9_7f'
p3421
aS'libcryptoopenssl-OpenSSL_0_9_7a'
p3422
aS'libcryptoopenssl-OpenSSL_0_9_7c'
p3423
aS'libcryptoopenssl-OpenSSL_0_9_7b'
p3424
aS'libcryptoopenssl-OpenSSL_0_9_8t'
p3425
aS'libcryptoopenssl-OpenSSL_0_9_8u'
p3426
aS'libcryptoopenssl-OpenSSL_0_9_8v'
p3427
aS'libcryptoopenssl-OpenSSL_0_9_8w'
p3428
aS'libcryptoopenssl-OpenSSL_0_9_8p'
p3429
aS'libcryptoopenssl-OpenSSL_0_9_8q'
p3430
aS'libcryptoopenssl-OpenSSL_0_9_8r'
p3431
aS'libcryptoopenssl-OpenSSL_0_9_8s'
p3432
aS'libcryptoopenssl-OpenSSL_0_9_8x'
p3433
aS'libcryptoopenssl-OpenSSL_0_9_8y'
p3434
aS'libcryptoopenssl-OpenSSL_0_9_8d'
p3435
aS'libcryptoopenssl-OpenSSL_0_9_8e'
p3436
aS'libcryptoopenssl-OpenSSL_0_9_8f'
p3437
aS'libcryptoopenssl-OpenSSL_0_9_8g'
p3438
aS'libcryptoopenssl-OpenSSL_0_9_8a'
p3439
aS'libcryptoopenssl-OpenSSL_0_9_8b'
p3440
aS'libcryptoopenssl-OpenSSL_0_9_8c'
p3441
aS'libcryptoopenssl-OpenSSL_0_9_8l'
p3442
aS'libcryptoopenssl-OpenSSL_0_9_8m'
p3443
aS'libcryptoopenssl-OpenSSL_0_9_8n'
p3444
aS'libcryptoopenssl-OpenSSL_0_9_8o'
p3445
aS'libcryptoopenssl-OpenSSL_0_9_8h'
p3446
aS'libcryptoopenssl-OpenSSL_0_9_8i'
p3447
aS'libcryptoopenssl-OpenSSL_0_9_8j'
p3448
aS'libcryptoopenssl-OpenSSL_0_9_8k'
p3449
aS'libcryptoopenssl-OpenSSL_0_9_8'
p3450
aS'libcryptoopenssl-OpenSSL_0_9_7'
p3451
atp3452
Rp3453
sS'_x86_64_AES_set_encrypt_key'
p3454
g2
((lp3455
S'libcryptoopenssl-OpenSSL_0_9_8t'
p3456
aS'libcryptoopenssl-OpenSSL_0_9_8u'
p3457
aS'libcryptoopenssl-OpenSSL_0_9_8v'
p3458
aS'libcryptoopenssl-OpenSSL_0_9_8w'
p3459
aS'libcryptoopenssl-OpenSSL_0_9_8p'
p3460
aS'libcryptoopenssl-OpenSSL_0_9_8q'
p3461
aS'libcryptoopenssl-OpenSSL_0_9_8r'
p3462
aS'libcryptoopenssl-OpenSSL_0_9_8s'
p3463
aS'libcryptoopenssl-OpenSSL_0_9_8x'
p3464
aS'libcryptoopenssl-OpenSSL_0_9_8y'
p3465
aS'libcryptoopenssl-OpenSSL_0_9_8o'
p3466
atp3467
Rp3468
sS'BN_BLINDING_free'
p3469
g2
((lp3470
tp3471
Rp3472
sS'ec_GFp_simple_set_compressed_coordinates'
p3473
g2
((lp3474
tp3475
Rp3476
sS'bn_sqr_recursive'
p3477
g2
((lp3478
tp3479
Rp3480
sS'BN_CTX_new'
p3481
g2
((lp3482
tp3483
Rp3484
sS'X509_NAME_get_entry'
p3485
g2
((lp3486
S'libcryptoopenssl-OpenSSL_0_9_8t'
p3487
aS'libcryptoopenssl-OpenSSL_0_9_8u'
p3488
aS'libcryptoopenssl-OpenSSL_0_9_8v'
p3489
aS'libcryptoopenssl-OpenSSL_0_9_8w'
p3490
aS'libcryptoopenssl-OpenSSL_0_9_8s'
p3491
aS'libcryptoopenssl-OpenSSL_0_9_8x'
p3492
aS'libcryptoopenssl-OpenSSL_0_9_8y'
p3493
atp3494
Rp3495
sS'buffer_ctrl'
p3496
g2
((lp3497
S'libcryptoopenssl-OpenSSL_1_0_2e'
p3498
aS'libcryptoopenssl-OpenSSL_1_0_0n'
p3499
aS'libcryptoopenssl-OpenSSL_1_0_2q'
p3500
aS'libcryptoopenssl-OpenSSL_1_0_1'
p3501
aS'libcryptoopenssl-OpenSSL_1_0_0l'
p3502
aS'libcryptoopenssl-OpenSSL_1_0_2b'
p3503
aS'libcryptoopenssl-OpenSSL_1_0_0m'
p3504
aS'libcryptoopenssl-OpenSSL_1_0_0t'
p3505
aS'libcryptoopenssl-OpenSSL_1_0_2i'
p3506
aS'libcryptoopenssl-OpenSSL_1_0_0p'
p3507
aS'libcryptoopenssl-OpenSSL_1_0_0q'
p3508
aS'libcryptoopenssl-OpenSSL_1_0_0r'
p3509
aS'libcryptoopenssl-OpenSSL_1_0_0s'
p3510
aS'libcryptoopenssl-OpenSSL_1_0_2f'
p3511
aS'libcryptoopenssl-OpenSSL_1_0_2g'
p3512
aS'libcryptoopenssl-OpenSSL_1_0_2d'
p3513
aS'libcryptoopenssl-OpenSSL_1_0_0o'
p3514
aS'libcryptoopenssl-OpenSSL_1_0_0h'
p3515
aS'libcryptoopenssl-OpenSSL_1_0_2c'
p3516
aS'libcryptoopenssl-OpenSSL_1_0_0j'
p3517
aS'libcryptoopenssl-OpenSSL_1_0_2a'
p3518
aS'libcryptoopenssl-OpenSSL_1_0_2n'
p3519
aS'libcryptoopenssl-OpenSSL_1_0_2o'
p3520
aS'libcryptoopenssl-OpenSSL_1_0_0f'
p3521
aS'libcryptoopenssl-OpenSSL_1_0_0g'
p3522
aS'libcryptoopenssl-OpenSSL_1_0_2j'
p3523
aS'libcryptoopenssl-OpenSSL_1_0_2k'
p3524
aS'libcryptoopenssl-OpenSSL_1_0_2h'
p3525
aS'libcryptoopenssl-OpenSSL_1_0_0i'
p3526
aS'libcryptoopenssl-OpenSSL_0_9_8t'
p3527
aS'libcryptoopenssl-OpenSSL_0_9_8u'
p3528
aS'libcryptoopenssl-OpenSSL_0_9_8v'
p3529
aS'libcryptoopenssl-OpenSSL_0_9_8w'
p3530
aS'libcryptoopenssl-OpenSSL_0_9_8s'
p3531
aS'libcryptoopenssl-OpenSSL_1_0_0k'
p3532
aS'libcryptoopenssl-OpenSSL_0_9_8x'
p3533
aS'libcryptoopenssl-OpenSSL_0_9_8y'
p3534
aS'libcryptoopenssl-OpenSSL_1_0_2'
p3535
aS'libcryptoopenssl-OpenSSL_1_0_2l'
p3536
aS'libcryptoopenssl-OpenSSL_1_0_2m'
p3537
aS'libcryptoopenssl-OpenSSL_1_0_1t'
p3538
aS'libcryptoopenssl-OpenSSL_1_0_1s'
p3539
aS'libcryptoopenssl-OpenSSL_1_0_1r'
p3540
aS'libcryptoopenssl-OpenSSL_1_0_1q'
p3541
aS'libcryptoopenssl-OpenSSL_1_0_1p'
p3542
aS'libcryptoopenssl-OpenSSL_1_0_1o'
p3543
aS'libcryptoopenssl-OpenSSL_1_0_1n'
p3544
aS'libcryptoopenssl-OpenSSL_1_0_1m'
p3545
aS'libcryptoopenssl-OpenSSL_1_0_1l'
p3546
aS'libcryptoopenssl-OpenSSL_1_0_1k'
p3547
aS'libcryptoopenssl-OpenSSL_1_0_1j'
p3548
aS'libcryptoopenssl-OpenSSL_1_0_1i'
p3549
aS'libcryptoopenssl-OpenSSL_1_0_1h'
p3550
aS'libcryptoopenssl-OpenSSL_1_0_1g'
p3551
aS'libcryptoopenssl-OpenSSL_1_0_1f'
p3552
aS'libcryptoopenssl-OpenSSL_1_0_1e'
p3553
aS'libcryptoopenssl-OpenSSL_1_0_1d'
p3554
aS'libcryptoopenssl-OpenSSL_1_0_1c'
p3555
aS'libcryptoopenssl-OpenSSL_1_0_1b'
p3556
aS'libcryptoopenssl-OpenSSL_1_0_1a'
p3557
atp3558
Rp3559
sS'def_load_bio'
p3560
g2
((lp3561
tp3562
Rp3563
sS'BN_CTX_get'
p3564
g2
((lp3565
tp3566
Rp3567
sS'bf_ecb_cipher'
p3568
g2
((lp3569
S'libcryptoopenssl-OpenSSL_0_9_7m'
p3570
aS'libcryptoopenssl-OpenSSL_0_9_7l'
p3571
aS'libcryptoopenssl-OpenSSL_0_9_7i'
p3572
aS'libcryptoopenssl-OpenSSL_0_9_7h'
p3573
aS'libcryptoopenssl-OpenSSL_0_9_7k'
p3574
aS'libcryptoopenssl-OpenSSL_0_9_7j'
p3575
aS'libcryptoopenssl-OpenSSL_0_9_7e'
p3576
aS'libcryptoopenssl-OpenSSL_0_9_7d'
p3577
aS'libcryptoopenssl-OpenSSL_0_9_7g'
p3578
aS'libcryptoopenssl-OpenSSL_0_9_7f'
p3579
aS'libcryptoopenssl-OpenSSL_0_9_7a'
p3580
aS'libcryptoopenssl-OpenSSL_0_9_7c'
p3581
aS'libcryptoopenssl-OpenSSL_0_9_7b'
p3582
aS'libcryptoopenssl-OpenSSL_0_9_8t'
p3583
aS'libcryptoopenssl-OpenSSL_0_9_8u'
p3584
aS'libcryptoopenssl-OpenSSL_0_9_8v'
p3585
aS'libcryptoopenssl-OpenSSL_0_9_8w'
p3586
aS'libcryptoopenssl-OpenSSL_0_9_8p'
p3587
aS'libcryptoopenssl-OpenSSL_0_9_8q'
p3588
aS'libcryptoopenssl-OpenSSL_0_9_8r'
p3589
aS'libcryptoopenssl-OpenSSL_0_9_8s'
p3590
aS'libcryptoopenssl-OpenSSL_0_9_8x'
p3591
aS'libcryptoopenssl-OpenSSL_0_9_8y'
p3592
aS'libcryptoopenssl-OpenSSL_0_9_8d'
p3593
aS'libcryptoopenssl-OpenSSL_0_9_8e'
p3594
aS'libcryptoopenssl-OpenSSL_0_9_8f'
p3595
aS'libcryptoopenssl-OpenSSL_0_9_8g'
p3596
aS'libcryptoopenssl-OpenSSL_0_9_8a'
p3597
aS'libcryptoopenssl-OpenSSL_0_9_8b'
p3598
aS'libcryptoopenssl-OpenSSL_0_9_8c'
p3599
aS'libcryptoopenssl-OpenSSL_0_9_8l'
p3600
aS'libcryptoopenssl-OpenSSL_0_9_8m'
p3601
aS'libcryptoopenssl-OpenSSL_0_9_8n'
p3602
aS'libcryptoopenssl-OpenSSL_0_9_8o'
p3603
aS'libcryptoopenssl-OpenSSL_0_9_8h'
p3604
aS'libcryptoopenssl-OpenSSL_0_9_8i'
p3605
aS'libcryptoopenssl-OpenSSL_0_9_8j'
p3606
aS'libcryptoopenssl-OpenSSL_0_9_8k'
p3607
aS'libcryptoopenssl-OpenSSL_0_9_8'
p3608
aS'libcryptoopenssl-OpenSSL_0_9_7'
p3609
atp3610
Rp3611
sS'PEM_read_ECPrivateKey'
p3612
g2
((lp3613
tp3614
Rp3615
sS'lh_strhash'
p3616
g2
((lp3617
S'libcryptoopenssl-OpenSSL_0_9_8t'
p3618
aS'libcryptoopenssl-OpenSSL_0_9_8u'
p3619
aS'libcryptoopenssl-OpenSSL_0_9_8v'
p3620
aS'libcryptoopenssl-OpenSSL_0_9_8w'
p3621
aS'libcryptoopenssl-OpenSSL_0_9_8s'
p3622
aS'libcryptoopenssl-OpenSSL_0_9_8x'
p3623
atp3624
Rp3625
sS'X509V3_conf_free'
p3626
g2
((lp3627
tp3628
Rp3629
sS'ASN1_STRING_set0'
p3630
g2
((lp3631
tp3632
Rp3633
sS'BN_mul'
p3634
g2
((lp3635
tp3636
Rp3637
sS'bn_mul_normal'
p3638
g2
((lp3639
tp3640
Rp3641
sS'xptable_free'
p3642
g2
((lp3643
tp3644
Rp3645
sS'ec_GFp_simple_group_check_discriminant'
p3646
g2
((lp3647
tp3648
Rp3649
sS'd2i_ocsp_nonce'
p3650
g2
((lp3651
tp3652
Rp3653
sS'BN_mul_word'
p3654
g2
((lp3655
tp3656
Rp3657
sS'idea_ecb_encrypt'
p3658
g2
((lp3659
S'libcryptoopenssl-OpenSSL_0_9_7m'
p3660
aS'libcryptoopenssl-OpenSSL_0_9_7l'
p3661
aS'libcryptoopenssl-OpenSSL_0_9_7i'
p3662
aS'libcryptoopenssl-OpenSSL_0_9_7h'
p3663
aS'libcryptoopenssl-OpenSSL_0_9_7k'
p3664
aS'libcryptoopenssl-OpenSSL_0_9_7j'
p3665
aS'libcryptoopenssl-OpenSSL_0_9_7e'
p3666
aS'libcryptoopenssl-OpenSSL_0_9_7d'
p3667
aS'libcryptoopenssl-OpenSSL_0_9_7g'
p3668
aS'libcryptoopenssl-OpenSSL_0_9_7f'
p3669
aS'libcryptoopenssl-OpenSSL_0_9_7a'
p3670
aS'libcryptoopenssl-OpenSSL_0_9_7c'
p3671
aS'libcryptoopenssl-OpenSSL_0_9_7b'
p3672
aS'libcryptoopenssl-OpenSSL_0_9_8t'
p3673
aS'libcryptoopenssl-OpenSSL_0_9_8u'
p3674
aS'libcryptoopenssl-OpenSSL_0_9_8v'
p3675
aS'libcryptoopenssl-OpenSSL_0_9_8w'
p3676
aS'libcryptoopenssl-OpenSSL_0_9_8p'
p3677
aS'libcryptoopenssl-OpenSSL_0_9_8q'
p3678
aS'libcryptoopenssl-OpenSSL_0_9_8r'
p3679
aS'libcryptoopenssl-OpenSSL_0_9_8s'
p3680
aS'libcryptoopenssl-OpenSSL_0_9_8x'
p3681
aS'libcryptoopenssl-OpenSSL_0_9_8y'
p3682
aS'libcryptoopenssl-OpenSSL_0_9_8d'
p3683
aS'libcryptoopenssl-OpenSSL_0_9_8e'
p3684
aS'libcryptoopenssl-OpenSSL_0_9_8f'
p3685
aS'libcryptoopenssl-OpenSSL_0_9_8g'
p3686
aS'libcryptoopenssl-OpenSSL_0_9_8a'
p3687
aS'libcryptoopenssl-OpenSSL_0_9_8b'
p3688
aS'libcryptoopenssl-OpenSSL_0_9_8c'
p3689
aS'libcryptoopenssl-OpenSSL_0_9_8l'
p3690
aS'libcryptoopenssl-OpenSSL_0_9_8m'
p3691
aS'libcryptoopenssl-OpenSSL_0_9_8n'
p3692
aS'libcryptoopenssl-OpenSSL_0_9_8o'
p3693
aS'libcryptoopenssl-OpenSSL_0_9_8h'
p3694
aS'libcryptoopenssl-OpenSSL_0_9_8i'
p3695
aS'libcryptoopenssl-OpenSSL_0_9_8j'
p3696
aS'libcryptoopenssl-OpenSSL_0_9_8k'
p3697
aS'libcryptoopenssl-OpenSSL_0_9_8'
p3698
aS'libcryptoopenssl-OpenSSL_0_9_7'
p3699
atp3700
Rp3701
sS'idea_encrypt'
p3702
g2
((lp3703
S'libcryptoopenssl-OpenSSL_0_9_7m'
p3704
aS'libcryptoopenssl-OpenSSL_0_9_7l'
p3705
aS'libcryptoopenssl-OpenSSL_0_9_7i'
p3706
aS'libcryptoopenssl-OpenSSL_0_9_7h'
p3707
aS'libcryptoopenssl-OpenSSL_0_9_7k'
p3708
aS'libcryptoopenssl-OpenSSL_0_9_7j'
p3709
aS'libcryptoopenssl-OpenSSL_0_9_7e'
p3710
aS'libcryptoopenssl-OpenSSL_0_9_7d'
p3711
aS'libcryptoopenssl-OpenSSL_0_9_7g'
p3712
aS'libcryptoopenssl-OpenSSL_0_9_7f'
p3713
aS'libcryptoopenssl-OpenSSL_0_9_7a'
p3714
aS'libcryptoopenssl-OpenSSL_0_9_7c'
p3715
aS'libcryptoopenssl-OpenSSL_0_9_7b'
p3716
aS'libcryptoopenssl-OpenSSL_0_9_8t'
p3717
aS'libcryptoopenssl-OpenSSL_0_9_8u'
p3718
aS'libcryptoopenssl-OpenSSL_0_9_8v'
p3719
aS'libcryptoopenssl-OpenSSL_0_9_8w'
p3720
aS'libcryptoopenssl-OpenSSL_0_9_8p'
p3721
aS'libcryptoopenssl-OpenSSL_0_9_8q'
p3722
aS'libcryptoopenssl-OpenSSL_0_9_8r'
p3723
aS'libcryptoopenssl-OpenSSL_0_9_8s'
p3724
aS'libcryptoopenssl-OpenSSL_0_9_8x'
p3725
aS'libcryptoopenssl-OpenSSL_0_9_8y'
p3726
aS'libcryptoopenssl-OpenSSL_0_9_8d'
p3727
aS'libcryptoopenssl-OpenSSL_0_9_8e'
p3728
aS'libcryptoopenssl-OpenSSL_0_9_8f'
p3729
aS'libcryptoopenssl-OpenSSL_0_9_8g'
p3730
aS'libcryptoopenssl-OpenSSL_0_9_8a'
p3731
aS'libcryptoopenssl-OpenSSL_0_9_8b'
p3732
aS'libcryptoopenssl-OpenSSL_0_9_8c'
p3733
aS'libcryptoopenssl-OpenSSL_0_9_8l'
p3734
aS'libcryptoopenssl-OpenSSL_0_9_8m'
p3735
aS'libcryptoopenssl-OpenSSL_0_9_8n'
p3736
aS'libcryptoopenssl-OpenSSL_0_9_8o'
p3737
aS'libcryptoopenssl-OpenSSL_0_9_8h'
p3738
aS'libcryptoopenssl-OpenSSL_0_9_8i'
p3739
aS'libcryptoopenssl-OpenSSL_0_9_8j'
p3740
aS'libcryptoopenssl-OpenSSL_0_9_8k'
p3741
aS'libcryptoopenssl-OpenSSL_0_9_8'
p3742
aS'libcryptoopenssl-OpenSSL_0_9_7'
p3743
atp3744
Rp3745
sS'ssl_check_serverhello_tlsext'
p3746
g2
((lp3747
tp3748
Rp3749
sS'ASN1_put_object'
p3750
g2
((lp3751
tp3752
Rp3753
sS'BN_exp'
p3754
g2
((lp3755
tp3756
Rp3757
sS'asn1_ex_i2c'
p3758
g2
((lp3759
S'libcryptoopenssl-OpenSSL_1_0_1'
p3760
aS'libcryptoopenssl-OpenSSL_1_0_0'
p3761
aS'libcryptoopenssl-OpenSSL_1_0_0h'
p3762
aS'libcryptoopenssl-OpenSSL_1_0_0i'
p3763
aS'libcryptoopenssl-OpenSSL_1_0_0j'
p3764
aS'libcryptoopenssl-OpenSSL_1_0_0k'
p3765
aS'libcryptoopenssl-OpenSSL_1_0_0d'
p3766
aS'libcryptoopenssl-OpenSSL_1_0_0e'
p3767
aS'libcryptoopenssl-OpenSSL_1_0_0f'
p3768
aS'libcryptoopenssl-OpenSSL_1_0_0g'
p3769
aS'libcryptoopenssl-OpenSSL_1_0_0a'
p3770
aS'libcryptoopenssl-OpenSSL_1_0_0b'
p3771
aS'libcryptoopenssl-OpenSSL_1_0_0c'
p3772
aS'libcryptoopenssl-OpenSSL_0_9_8t'
p3773
aS'libcryptoopenssl-OpenSSL_0_9_8u'
p3774
aS'libcryptoopenssl-OpenSSL_0_9_8v'
p3775
aS'libcryptoopenssl-OpenSSL_0_9_8w'
p3776
aS'libcryptoopenssl-OpenSSL_0_9_8p'
p3777
aS'libcryptoopenssl-OpenSSL_0_9_8q'
p3778
aS'libcryptoopenssl-OpenSSL_0_9_8r'
p3779
aS'libcryptoopenssl-OpenSSL_0_9_8s'
p3780
aS'libcryptoopenssl-OpenSSL_0_9_8x'
p3781
aS'libcryptoopenssl-OpenSSL_0_9_8y'
p3782
aS'libcryptoopenssl-OpenSSL_0_9_8d'
p3783
aS'libcryptoopenssl-OpenSSL_0_9_8e'
p3784
aS'libcryptoopenssl-OpenSSL_0_9_8f'
p3785
aS'libcryptoopenssl-OpenSSL_0_9_8g'
p3786
aS'libcryptoopenssl-OpenSSL_0_9_8b'
p3787
aS'libcryptoopenssl-OpenSSL_0_9_8c'
p3788
aS'libcryptoopenssl-OpenSSL_0_9_8l'
p3789
aS'libcryptoopenssl-OpenSSL_0_9_8m'
p3790
aS'libcryptoopenssl-OpenSSL_0_9_8n'
p3791
aS'libcryptoopenssl-OpenSSL_0_9_8o'
p3792
aS'libcryptoopenssl-OpenSSL_0_9_8h'
p3793
aS'libcryptoopenssl-OpenSSL_0_9_8i'
p3794
aS'libcryptoopenssl-OpenSSL_0_9_8j'
p3795
aS'libcryptoopenssl-OpenSSL_0_9_8k'
p3796
aS'libcryptoopenssl-OpenSSL_1_0_1e'
p3797
aS'libcryptoopenssl-OpenSSL_1_0_1d'
p3798
aS'libcryptoopenssl-OpenSSL_1_0_1c'
p3799
aS'libcryptoopenssl-OpenSSL_1_0_1b'
p3800
aS'libcryptoopenssl-OpenSSL_1_0_1a'
p3801
atp3802
Rp3803
sS'sk_num'
p3804
g2
((lp3805
S'libcryptoopenssl-OpenSSL_0_9_8t'
p3806
aS'libcryptoopenssl-OpenSSL_0_9_8u'
p3807
aS'libcryptoopenssl-OpenSSL_0_9_8v'
p3808
aS'libcryptoopenssl-OpenSSL_0_9_8w'
p3809
aS'libcryptoopenssl-OpenSSL_0_9_8s'
p3810
aS'libcryptoopenssl-OpenSSL_0_9_8x'
p3811
atp3812
Rp3813
sS'free_dir'
p3814
g2
((lp3815
tp3816
Rp3817
sS'DSA_size'
p3818
g2
((lp3819
tp3820
Rp3821
sS'BN_GF2m_poly2arr'
p3822
g2
((lp3823
tp3824
Rp3825
sS'BN_cmp'
p3826
g2
((lp3827
tp3828
Rp3829
sS'obj_trust'
p3830
g2
((lp3831
S'libcryptoopenssl-OpenSSL_0_9_8t'
p3832
aS'libcryptoopenssl-OpenSSL_0_9_8u'
p3833
aS'libcryptoopenssl-OpenSSL_0_9_8v'
p3834
aS'libcryptoopenssl-OpenSSL_0_9_8w'
p3835
aS'libcryptoopenssl-OpenSSL_0_9_8s'
p3836
aS'libcryptoopenssl-OpenSSL_0_9_8x'
p3837
atp3838
Rp3839
sS'BN_num_bits_word'
p3840
g2
((lp3841
tp3842
Rp3843
sS'BN_rshift'
p3844
g2
((lp3845
tp3846
Rp3847
sS'i2s_ASN1_ENUMERATED_TABLE'
p3848
g2
((lp3849
S'libcryptoopenssl-OpenSSL_1_0_2e'
p3850
aS'libcryptoopenssl-OpenSSL_1_0_1j'
p3851
aS'libcryptoopenssl-OpenSSL_1_0_0e'
p3852
aS'libcryptoopenssl-OpenSSL_1_0_0n'
p3853
aS'libcryptoopenssl-OpenSSL_1_0_2q'
p3854
aS'libcryptoopenssl-OpenSSL_1_0_1'
p3855
aS'libcryptoopenssl-OpenSSL_1_0_0'
p3856
aS'libcryptoopenssl-OpenSSL_1_0_0l'
p3857
aS'libcryptoopenssl-OpenSSL_1_0_2b'
p3858
aS'libcryptoopenssl-OpenSSL_1_0_0m'
p3859
aS'libcryptoopenssl-OpenSSL_0_9_8e'
p3860
aS'libcryptoopenssl-OpenSSL_1_0_0t'
p3861
aS'libcryptoopenssl-OpenSSL_1_0_2i'
p3862
aS'libcryptoopenssl-OpenSSL_1_0_0p'
p3863
aS'libcryptoopenssl-OpenSSL_1_0_0q'
p3864
aS'libcryptoopenssl-OpenSSL_1_0_0r'
p3865
aS'libcryptoopenssl-OpenSSL_1_0_0s'
p3866
aS'libcryptoopenssl-OpenSSL_1_0_2f'
p3867
aS'libcryptoopenssl-OpenSSL_1_0_2g'
p3868
aS'libcryptoopenssl-OpenSSL_1_0_2d'
p3869
aS'libcryptoopenssl-OpenSSL_1_0_0o'
p3870
aS'libcryptoopenssl-OpenSSL_1_0_0h'
p3871
aS'libcryptoopenssl-OpenSSL_1_0_2c'
p3872
aS'libcryptoopenssl-OpenSSL_1_0_0j'
p3873
aS'libcryptoopenssl-OpenSSL_1_0_2a'
p3874
aS'libcryptoopenssl-OpenSSL_1_0_2n'
p3875
aS'libcryptoopenssl-OpenSSL_1_0_2o'
p3876
aS'libcryptoopenssl-OpenSSL_1_0_0f'
p3877
aS'libcryptoopenssl-OpenSSL_1_0_0g'
p3878
aS'libcryptoopenssl-OpenSSL_1_0_2j'
p3879
aS'libcryptoopenssl-OpenSSL_1_0_0a'
p3880
aS'libcryptoopenssl-OpenSSL_1_0_0b'
p3881
aS'libcryptoopenssl-OpenSSL_1_0_0c'
p3882
aS'libcryptoopenssl-OpenSSL_0_9_8t'
p3883
aS'libcryptoopenssl-OpenSSL_0_9_8u'
p3884
aS'libcryptoopenssl-OpenSSL_0_9_8v'
p3885
aS'libcryptoopenssl-OpenSSL_0_9_8w'
p3886
aS'libcryptoopenssl-OpenSSL_0_9_8p'
p3887
aS'libcryptoopenssl-OpenSSL_0_9_8q'
p3888
aS'libcryptoopenssl-OpenSSL_0_9_8r'
p3889
aS'libcryptoopenssl-OpenSSL_0_9_8s'
p3890
aS'libcryptoopenssl-OpenSSL_1_0_0k'
p3891
aS'libcryptoopenssl-OpenSSL_0_9_8x'
p3892
aS'libcryptoopenssl-OpenSSL_0_9_8y'
p3893
aS'libcryptoopenssl-OpenSSL_0_9_8d'
p3894
aS'libcryptoopenssl-OpenSSL_1_0_0d'
p3895
aS'libcryptoopenssl-OpenSSL_0_9_8f'
p3896
aS'libcryptoopenssl-OpenSSL_0_9_8g'
p3897
aS'libcryptoopenssl-OpenSSL_1_0_2l'
p3898
aS'libcryptoopenssl-OpenSSL_0_9_8a'
p3899
aS'libcryptoopenssl-OpenSSL_0_9_8b'
p3900
aS'libcryptoopenssl-OpenSSL_0_9_8c'
p3901
aS'libcryptoopenssl-OpenSSL_0_9_8l'
p3902
aS'libcryptoopenssl-OpenSSL_0_9_8m'
p3903
aS'libcryptoopenssl-OpenSSL_0_9_8n'
p3904
aS'libcryptoopenssl-OpenSSL_0_9_8o'
p3905
aS'libcryptoopenssl-OpenSSL_0_9_8h'
p3906
aS'libcryptoopenssl-OpenSSL_0_9_8i'
p3907
aS'libcryptoopenssl-OpenSSL_0_9_8j'
p3908
aS'libcryptoopenssl-OpenSSL_0_9_8k'
p3909
aS'libcryptoopenssl-OpenSSL_1_0_2k'
p3910
aS'libcryptoopenssl-OpenSSL_1_0_0i'
p3911
aS'libcryptoopenssl-OpenSSL_1_0_2m'
p3912
aS'libcryptoopenssl-OpenSSL_1_0_2'
p3913
aS'libcryptoopenssl-OpenSSL_0_9_8'
p3914
aS'libcryptoopenssl-OpenSSL_1_0_1t'
p3915
aS'libcryptoopenssl-OpenSSL_1_0_1s'
p3916
aS'libcryptoopenssl-OpenSSL_1_0_1r'
p3917
aS'libcryptoopenssl-OpenSSL_1_0_1q'
p3918
aS'libcryptoopenssl-OpenSSL_1_0_1p'
p3919
aS'libcryptoopenssl-OpenSSL_1_0_1o'
p3920
aS'libcryptoopenssl-OpenSSL_1_0_1n'
p3921
aS'libcryptoopenssl-OpenSSL_1_0_1m'
p3922
aS'libcryptoopenssl-OpenSSL_1_0_1l'
p3923
aS'libcryptoopenssl-OpenSSL_1_0_1k'
p3924
aS'libcryptoopenssl-OpenSSL_1_0_2h'
p3925
aS'libcryptoopenssl-OpenSSL_1_0_1i'
p3926
aS'libcryptoopenssl-OpenSSL_1_0_1h'
p3927
aS'libcryptoopenssl-OpenSSL_1_0_1g'
p3928
aS'libcryptoopenssl-OpenSSL_1_0_1f'
p3929
aS'libcryptoopenssl-OpenSSL_1_0_1e'
p3930
aS'libcryptoopenssl-OpenSSL_1_0_1d'
p3931
aS'libcryptoopenssl-OpenSSL_1_0_1c'
p3932
aS'libcryptoopenssl-OpenSSL_1_0_1b'
p3933
aS'libcryptoopenssl-OpenSSL_1_0_1a'
p3934
atp3935
Rp3936
sS'BN_CTX_end'
p3937
g2
((lp3938
tp3939
Rp3940
sS'ec_GFp_simple_dbl'
p3941
g2
((lp3942
tp3943
Rp3944
sS'i2v_GENERAL_NAMES'
p3945
g2
((lp3946
S'libcryptoopenssl-OpenSSL_0_9_8t'
p3947
aS'libcryptoopenssl-OpenSSL_0_9_8u'
p3948
aS'libcryptoopenssl-OpenSSL_0_9_8v'
p3949
aS'libcryptoopenssl-OpenSSL_0_9_8w'
p3950
aS'libcryptoopenssl-OpenSSL_0_9_8s'
p3951
aS'libcryptoopenssl-OpenSSL_0_9_8x'
p3952
atp3953
Rp3954
sS'ASN1_object_size'
p3955
g2
((lp3956
tp3957
Rp3958
sS'aes_256_ecb_cipher'
p3959
g2
((lp3960
S'libcryptoopenssl-OpenSSL_0_9_7m'
p3961
aS'libcryptoopenssl-OpenSSL_0_9_7l'
p3962
aS'libcryptoopenssl-OpenSSL_0_9_7i'
p3963
aS'libcryptoopenssl-OpenSSL_0_9_7h'
p3964
aS'libcryptoopenssl-OpenSSL_0_9_7k'
p3965
aS'libcryptoopenssl-OpenSSL_0_9_7j'
p3966
aS'libcryptoopenssl-OpenSSL_0_9_7e'
p3967
aS'libcryptoopenssl-OpenSSL_0_9_7d'
p3968
aS'libcryptoopenssl-OpenSSL_0_9_7g'
p3969
aS'libcryptoopenssl-OpenSSL_0_9_7f'
p3970
aS'libcryptoopenssl-OpenSSL_0_9_7a'
p3971
aS'libcryptoopenssl-OpenSSL_0_9_7c'
p3972
aS'libcryptoopenssl-OpenSSL_0_9_7b'
p3973
aS'libcryptoopenssl-OpenSSL_0_9_8t'
p3974
aS'libcryptoopenssl-OpenSSL_0_9_8u'
p3975
aS'libcryptoopenssl-OpenSSL_0_9_8v'
p3976
aS'libcryptoopenssl-OpenSSL_0_9_8w'
p3977
aS'libcryptoopenssl-OpenSSL_0_9_8p'
p3978
aS'libcryptoopenssl-OpenSSL_0_9_8q'
p3979
aS'libcryptoopenssl-OpenSSL_0_9_8r'
p3980
aS'libcryptoopenssl-OpenSSL_0_9_8s'
p3981
aS'libcryptoopenssl-OpenSSL_0_9_8x'
p3982
aS'libcryptoopenssl-OpenSSL_0_9_8y'
p3983
aS'libcryptoopenssl-OpenSSL_0_9_8d'
p3984
aS'libcryptoopenssl-OpenSSL_0_9_8e'
p3985
aS'libcryptoopenssl-OpenSSL_0_9_8f'
p3986
aS'libcryptoopenssl-OpenSSL_0_9_8g'
p3987
aS'libcryptoopenssl-OpenSSL_0_9_8a'
p3988
aS'libcryptoopenssl-OpenSSL_0_9_8b'
p3989
aS'libcryptoopenssl-OpenSSL_0_9_8c'
p3990
aS'libcryptoopenssl-OpenSSL_0_9_8l'
p3991
aS'libcryptoopenssl-OpenSSL_0_9_8m'
p3992
aS'libcryptoopenssl-OpenSSL_0_9_8n'
p3993
aS'libcryptoopenssl-OpenSSL_0_9_8o'
p3994
aS'libcryptoopenssl-OpenSSL_0_9_8h'
p3995
aS'libcryptoopenssl-OpenSSL_0_9_8i'
p3996
aS'libcryptoopenssl-OpenSSL_0_9_8j'
p3997
aS'libcryptoopenssl-OpenSSL_0_9_8k'
p3998
aS'libcryptoopenssl-OpenSSL_0_9_8'
p3999
aS'libcryptoopenssl-OpenSSL_0_9_7'
p4000
atp4001
Rp4002
sS'X509_NAME_add_entry'
p4003
g2
((lp4004
S'libcryptoopenssl-OpenSSL_0_9_8t'
p4005
aS'libcryptoopenssl-OpenSSL_0_9_8u'
p4006
aS'libcryptoopenssl-OpenSSL_0_9_8v'
p4007
aS'libcryptoopenssl-OpenSSL_0_9_8w'
p4008
aS'libcryptoopenssl-OpenSSL_0_9_8s'
p4009
aS'libcryptoopenssl-OpenSSL_0_9_8x'
p4010
atp4011
Rp4012
sS'bn_mul_low_normal'
p4013
g2
((lp4014
tp4015
Rp4016
sS'BN_mod_word'
p4017
g2
((lp4018
tp4019
Rp4020
sS'ASN1_STRING_free'
p4021
g2
((lp4022
tp4023
Rp4024
sS'RC2_encrypt'
p4025
g2
((lp4026
S'libcryptoopenssl-OpenSSL_0_9_7m'
p4027
aS'libcryptoopenssl-OpenSSL_0_9_7l'
p4028
aS'libcryptoopenssl-OpenSSL_0_9_7i'
p4029
aS'libcryptoopenssl-OpenSSL_0_9_7h'
p4030
aS'libcryptoopenssl-OpenSSL_0_9_7k'
p4031
aS'libcryptoopenssl-OpenSSL_0_9_7j'
p4032
aS'libcryptoopenssl-OpenSSL_0_9_7e'
p4033
aS'libcryptoopenssl-OpenSSL_0_9_7d'
p4034
aS'libcryptoopenssl-OpenSSL_0_9_7g'
p4035
aS'libcryptoopenssl-OpenSSL_0_9_7f'
p4036
aS'libcryptoopenssl-OpenSSL_0_9_7a'
p4037
aS'libcryptoopenssl-OpenSSL_0_9_7c'
p4038
aS'libcryptoopenssl-OpenSSL_0_9_7b'
p4039
aS'libcryptoopenssl-OpenSSL_0_9_8t'
p4040
aS'libcryptoopenssl-OpenSSL_0_9_8u'
p4041
aS'libcryptoopenssl-OpenSSL_0_9_8v'
p4042
aS'libcryptoopenssl-OpenSSL_0_9_8w'
p4043
aS'libcryptoopenssl-OpenSSL_0_9_8p'
p4044
aS'libcryptoopenssl-OpenSSL_0_9_8q'
p4045
aS'libcryptoopenssl-OpenSSL_0_9_8r'
p4046
aS'libcryptoopenssl-OpenSSL_0_9_8s'
p4047
aS'libcryptoopenssl-OpenSSL_0_9_8x'
p4048
aS'libcryptoopenssl-OpenSSL_0_9_8y'
p4049
aS'libcryptoopenssl-OpenSSL_0_9_8d'
p4050
aS'libcryptoopenssl-OpenSSL_0_9_8e'
p4051
aS'libcryptoopenssl-OpenSSL_0_9_8f'
p4052
aS'libcryptoopenssl-OpenSSL_0_9_8g'
p4053
aS'libcryptoopenssl-OpenSSL_0_9_8a'
p4054
aS'libcryptoopenssl-OpenSSL_0_9_8b'
p4055
aS'libcryptoopenssl-OpenSSL_0_9_8c'
p4056
aS'libcryptoopenssl-OpenSSL_0_9_8l'
p4057
aS'libcryptoopenssl-OpenSSL_0_9_8m'
p4058
aS'libcryptoopenssl-OpenSSL_0_9_8n'
p4059
aS'libcryptoopenssl-OpenSSL_0_9_8o'
p4060
aS'libcryptoopenssl-OpenSSL_0_9_8h'
p4061
aS'libcryptoopenssl-OpenSSL_0_9_8i'
p4062
aS'libcryptoopenssl-OpenSSL_0_9_8j'
p4063
aS'libcryptoopenssl-OpenSSL_0_9_8k'
p4064
aS'libcryptoopenssl-OpenSSL_0_9_8'
p4065
aS'libcryptoopenssl-OpenSSL_0_9_7'
p4066
atp4067
Rp4068
sS'sha_block_data_order'
p4069
g2
((lp4070
S'libcryptoopenssl-OpenSSL_1_0_2e'
p4071
aS'libcryptoopenssl-OpenSSL_1_0_1j'
p4072
aS'libcryptoopenssl-OpenSSL_1_0_0n'
p4073
aS'libcryptoopenssl-OpenSSL_1_0_2q'
p4074
aS'libcryptoopenssl-OpenSSL_1_0_1'
p4075
aS'libcryptoopenssl-OpenSSL_1_0_0'
p4076
aS'libcryptoopenssl-OpenSSL_1_0_0l'
p4077
aS'libcryptoopenssl-OpenSSL_1_0_2b'
p4078
aS'libcryptoopenssl-OpenSSL_1_0_0m'
p4079
aS'libcryptoopenssl-OpenSSL_1_0_0t'
p4080
aS'libcryptoopenssl-OpenSSL_1_0_2i'
p4081
aS'libcryptoopenssl-OpenSSL_1_0_0p'
p4082
aS'libcryptoopenssl-OpenSSL_1_0_0q'
p4083
aS'libcryptoopenssl-OpenSSL_1_0_0r'
p4084
aS'libcryptoopenssl-OpenSSL_1_0_0s'
p4085
aS'libcryptoopenssl-OpenSSL_1_0_2f'
p4086
aS'libcryptoopenssl-OpenSSL_1_0_2g'
p4087
aS'libcryptoopenssl-OpenSSL_1_0_2d'
p4088
aS'libcryptoopenssl-OpenSSL_1_0_0o'
p4089
aS'libcryptoopenssl-OpenSSL_1_0_0h'
p4090
aS'libcryptoopenssl-OpenSSL_1_0_2c'
p4091
aS'libcryptoopenssl-OpenSSL_1_0_0j'
p4092
aS'libcryptoopenssl-OpenSSL_1_0_2a'
p4093
aS'libcryptoopenssl-OpenSSL_1_0_2n'
p4094
aS'libcryptoopenssl-OpenSSL_1_0_2o'
p4095
aS'libcryptoopenssl-OpenSSL_1_0_0f'
p4096
aS'libcryptoopenssl-OpenSSL_1_0_0g'
p4097
aS'libcryptoopenssl-OpenSSL_1_0_2j'
p4098
aS'libcryptoopenssl-OpenSSL_1_0_0a'
p4099
aS'libcryptoopenssl-OpenSSL_1_0_0b'
p4100
aS'libcryptoopenssl-OpenSSL_1_0_0c'
p4101
aS'libcryptoopenssl-OpenSSL_0_9_8t'
p4102
aS'libcryptoopenssl-OpenSSL_0_9_8u'
p4103
aS'libcryptoopenssl-OpenSSL_0_9_8v'
p4104
aS'libcryptoopenssl-OpenSSL_0_9_8w'
p4105
aS'libcryptoopenssl-OpenSSL_0_9_8p'
p4106
aS'libcryptoopenssl-OpenSSL_0_9_8q'
p4107
aS'libcryptoopenssl-OpenSSL_0_9_8r'
p4108
aS'libcryptoopenssl-OpenSSL_0_9_8s'
p4109
aS'libcryptoopenssl-OpenSSL_1_0_0k'
p4110
aS'libcryptoopenssl-OpenSSL_0_9_8x'
p4111
aS'libcryptoopenssl-OpenSSL_0_9_8y'
p4112
aS'libcryptoopenssl-OpenSSL_1_0_0d'
p4113
aS'libcryptoopenssl-OpenSSL_1_0_0e'
p4114
aS'libcryptoopenssl-OpenSSL_0_9_8m'
p4115
aS'libcryptoopenssl-OpenSSL_0_9_8n'
p4116
aS'libcryptoopenssl-OpenSSL_0_9_8o'
p4117
aS'libcryptoopenssl-OpenSSL_1_0_2'
p4118
aS'libcryptoopenssl-OpenSSL_1_0_2l'
p4119
aS'libcryptoopenssl-OpenSSL_1_0_2k'
p4120
aS'libcryptoopenssl-OpenSSL_1_0_0i'
p4121
aS'libcryptoopenssl-OpenSSL_1_0_2m'
p4122
aS'libcryptoopenssl-OpenSSL_1_0_1t'
p4123
aS'libcryptoopenssl-OpenSSL_1_0_1s'
p4124
aS'libcryptoopenssl-OpenSSL_1_0_1r'
p4125
aS'libcryptoopenssl-OpenSSL_1_0_1q'
p4126
aS'libcryptoopenssl-OpenSSL_1_0_1p'
p4127
aS'libcryptoopenssl-OpenSSL_1_0_1o'
p4128
aS'libcryptoopenssl-OpenSSL_1_0_1n'
p4129
aS'libcryptoopenssl-OpenSSL_1_0_1m'
p4130
aS'libcryptoopenssl-OpenSSL_1_0_1l'
p4131
aS'libcryptoopenssl-OpenSSL_1_0_1k'
p4132
aS'libcryptoopenssl-OpenSSL_1_0_2h'
p4133
aS'libcryptoopenssl-OpenSSL_1_0_1i'
p4134
aS'libcryptoopenssl-OpenSSL_1_0_1h'
p4135
aS'libcryptoopenssl-OpenSSL_1_0_1g'
p4136
aS'libcryptoopenssl-OpenSSL_1_0_1f'
p4137
aS'libcryptoopenssl-OpenSSL_1_0_1e'
p4138
aS'libcryptoopenssl-OpenSSL_1_0_1d'
p4139
aS'libcryptoopenssl-OpenSSL_1_0_1c'
p4140
aS'libcryptoopenssl-OpenSSL_1_0_1b'
p4141
aS'libcryptoopenssl-OpenSSL_1_0_1a'
p4142
atp4143
Rp4144
sS'ec_GF2m_simple_group_set_curve'
p4145
g2
((lp4146
tp4147
Rp4148
sS'UI_process'
p4149
g2
((lp4150
S'libcryptoopenssl-OpenSSL_0_9_8t'
p4151
aS'libcryptoopenssl-OpenSSL_0_9_8u'
p4152
aS'libcryptoopenssl-OpenSSL_0_9_8v'
p4153
aS'libcryptoopenssl-OpenSSL_0_9_8w'
p4154
aS'libcryptoopenssl-OpenSSL_0_9_8s'
p4155
aS'libcryptoopenssl-OpenSSL_0_9_8x'
p4156
aS'libcryptoopenssl-OpenSSL_0_9_8y'
p4157
atp4158
Rp4159
sS'BN_mod_exp_mont_word'
p4160
g2
((lp4161
tp4162
Rp4163
sS'X509_NAME_get_index_by_OBJ'
p4164
g2
((lp4165
S'libcryptoopenssl-OpenSSL_0_9_8t'
p4166
aS'libcryptoopenssl-OpenSSL_0_9_8u'
p4167
aS'libcryptoopenssl-OpenSSL_0_9_8v'
p4168
aS'libcryptoopenssl-OpenSSL_0_9_8w'
p4169
aS'libcryptoopenssl-OpenSSL_0_9_8s'
p4170
aS'libcryptoopenssl-OpenSSL_0_9_8x'
p4171
atp4172
Rp4173
sS'BN_clear_free'
p4174
g2
((lp4175
tp4176
Rp4177
sS'BN_free'
p4178
g2
((lp4179
tp4180
Rp4181
sS'CRYPTO_malloc'
p4182
g2
((lp4183
tp4184
Rp4185
sS'dsa_finish'
p4186
g2
((lp4187
tp4188
Rp4189
sS'sha256_block_data_order'
p4190
g2
((lp4191
S'libcryptoopenssl-OpenSSL_0_9_8t'
p4192
aS'libcryptoopenssl-OpenSSL_0_9_8u'
p4193
aS'libcryptoopenssl-OpenSSL_0_9_8v'
p4194
aS'libcryptoopenssl-OpenSSL_0_9_8w'
p4195
aS'libcryptoopenssl-OpenSSL_0_9_8p'
p4196
aS'libcryptoopenssl-OpenSSL_0_9_8q'
p4197
aS'libcryptoopenssl-OpenSSL_0_9_8r'
p4198
aS'libcryptoopenssl-OpenSSL_0_9_8s'
p4199
aS'libcryptoopenssl-OpenSSL_0_9_8x'
p4200
aS'libcryptoopenssl-OpenSSL_0_9_8y'
p4201
aS'libcryptoopenssl-OpenSSL_0_9_8m'
p4202
aS'libcryptoopenssl-OpenSSL_0_9_8n'
p4203
aS'libcryptoopenssl-OpenSSL_0_9_8o'
p4204
atp4205
Rp4206
sS'add_hash'
p4207
g2
((lp4208
S'libcryptoopenssl-OpenSSL_0_9_8t'
p4209
aS'libcryptoopenssl-OpenSSL_0_9_8u'
p4210
aS'libcryptoopenssl-OpenSSL_0_9_8v'
p4211
aS'libcryptoopenssl-OpenSSL_0_9_8w'
p4212
aS'libcryptoopenssl-OpenSSL_0_9_8s'
p4213
aS'libcryptoopenssl-OpenSSL_0_9_8x'
p4214
aS'libcryptoopenssl-OpenSSL_0_9_8y'
p4215
atp4216
Rp4217
sS'ec_GF2m_simple_group_copy'
p4218
g2
((lp4219
tp4220
Rp4221
sS'aes_128_ecb_cipher'
p4222
g2
((lp4223
S'libcryptoopenssl-OpenSSL_0_9_7m'
p4224
aS'libcryptoopenssl-OpenSSL_0_9_7l'
p4225
aS'libcryptoopenssl-OpenSSL_0_9_7i'
p4226
aS'libcryptoopenssl-OpenSSL_0_9_7h'
p4227
aS'libcryptoopenssl-OpenSSL_0_9_7k'
p4228
aS'libcryptoopenssl-OpenSSL_0_9_7j'
p4229
aS'libcryptoopenssl-OpenSSL_0_9_7e'
p4230
aS'libcryptoopenssl-OpenSSL_0_9_7d'
p4231
aS'libcryptoopenssl-OpenSSL_0_9_7g'
p4232
aS'libcryptoopenssl-OpenSSL_0_9_7f'
p4233
aS'libcryptoopenssl-OpenSSL_0_9_7a'
p4234
aS'libcryptoopenssl-OpenSSL_0_9_7c'
p4235
aS'libcryptoopenssl-OpenSSL_0_9_7b'
p4236
aS'libcryptoopenssl-OpenSSL_0_9_8t'
p4237
aS'libcryptoopenssl-OpenSSL_0_9_8u'
p4238
aS'libcryptoopenssl-OpenSSL_0_9_8v'
p4239
aS'libcryptoopenssl-OpenSSL_0_9_8w'
p4240
aS'libcryptoopenssl-OpenSSL_0_9_8p'
p4241
aS'libcryptoopenssl-OpenSSL_0_9_8q'
p4242
aS'libcryptoopenssl-OpenSSL_0_9_8r'
p4243
aS'libcryptoopenssl-OpenSSL_0_9_8s'
p4244
aS'libcryptoopenssl-OpenSSL_0_9_8x'
p4245
aS'libcryptoopenssl-OpenSSL_0_9_8y'
p4246
aS'libcryptoopenssl-OpenSSL_0_9_8d'
p4247
aS'libcryptoopenssl-OpenSSL_0_9_8e'
p4248
aS'libcryptoopenssl-OpenSSL_0_9_8f'
p4249
aS'libcryptoopenssl-OpenSSL_0_9_8g'
p4250
aS'libcryptoopenssl-OpenSSL_0_9_8a'
p4251
aS'libcryptoopenssl-OpenSSL_0_9_8b'
p4252
aS'libcryptoopenssl-OpenSSL_0_9_8c'
p4253
aS'libcryptoopenssl-OpenSSL_0_9_8l'
p4254
aS'libcryptoopenssl-OpenSSL_0_9_8m'
p4255
aS'libcryptoopenssl-OpenSSL_0_9_8n'
p4256
aS'libcryptoopenssl-OpenSSL_0_9_8o'
p4257
aS'libcryptoopenssl-OpenSSL_0_9_8h'
p4258
aS'libcryptoopenssl-OpenSSL_0_9_8i'
p4259
aS'libcryptoopenssl-OpenSSL_0_9_8j'
p4260
aS'libcryptoopenssl-OpenSSL_0_9_8k'
p4261
aS'libcryptoopenssl-OpenSSL_0_9_8'
p4262
aS'libcryptoopenssl-OpenSSL_0_9_7'
p4263
atp4264
Rp4265
sS'buffer_free'
p4266
g2
((lp4267
tp4268
Rp4269
sS'X509_STORE_set_default_paths'
p4270
g2
((lp4271
S'libcryptoopenssl-OpenSSL_1_0_2'
p4272
aS'libcryptoopenssl-OpenSSL_1_0_1'
p4273
aS'libcryptoopenssl-OpenSSL_1_0_0'
p4274
aS'libcryptoopenssl-OpenSSL_1_0_0t'
p4275
aS'libcryptoopenssl-OpenSSL_1_0_0p'
p4276
aS'libcryptoopenssl-OpenSSL_1_0_0q'
p4277
aS'libcryptoopenssl-OpenSSL_1_0_0r'
p4278
aS'libcryptoopenssl-OpenSSL_1_0_0s'
p4279
aS'libcryptoopenssl-OpenSSL_1_0_0l'
p4280
aS'libcryptoopenssl-OpenSSL_1_0_0m'
p4281
aS'libcryptoopenssl-OpenSSL_1_0_0n'
p4282
aS'libcryptoopenssl-OpenSSL_1_0_0o'
p4283
aS'libcryptoopenssl-OpenSSL_1_0_0h'
p4284
aS'libcryptoopenssl-OpenSSL_1_0_0i'
p4285
aS'libcryptoopenssl-OpenSSL_1_0_0j'
p4286
aS'libcryptoopenssl-OpenSSL_1_0_0k'
p4287
aS'libcryptoopenssl-OpenSSL_1_0_0d'
p4288
aS'libcryptoopenssl-OpenSSL_1_0_0e'
p4289
aS'libcryptoopenssl-OpenSSL_1_0_0f'
p4290
aS'libcryptoopenssl-OpenSSL_1_0_0g'
p4291
aS'libcryptoopenssl-OpenSSL_1_0_0a'
p4292
aS'libcryptoopenssl-OpenSSL_1_0_0b'
p4293
aS'libcryptoopenssl-OpenSSL_1_0_0c'
p4294
aS'libcryptoopenssl-OpenSSL_0_9_8t'
p4295
aS'libcryptoopenssl-OpenSSL_0_9_8u'
p4296
aS'libcryptoopenssl-OpenSSL_0_9_8v'
p4297
aS'libcryptoopenssl-OpenSSL_0_9_8w'
p4298
aS'libcryptoopenssl-OpenSSL_0_9_8p'
p4299
aS'libcryptoopenssl-OpenSSL_0_9_8q'
p4300
aS'libcryptoopenssl-OpenSSL_0_9_8r'
p4301
aS'libcryptoopenssl-OpenSSL_0_9_8s'
p4302
aS'libcryptoopenssl-OpenSSL_0_9_8x'
p4303
aS'libcryptoopenssl-OpenSSL_0_9_8y'
p4304
aS'libcryptoopenssl-OpenSSL_0_9_8d'
p4305
aS'libcryptoopenssl-OpenSSL_0_9_8e'
p4306
aS'libcryptoopenssl-OpenSSL_0_9_8f'
p4307
aS'libcryptoopenssl-OpenSSL_0_9_8g'
p4308
aS'libcryptoopenssl-OpenSSL_0_9_8a'
p4309
aS'libcryptoopenssl-OpenSSL_0_9_8b'
p4310
aS'libcryptoopenssl-OpenSSL_0_9_8c'
p4311
aS'libcryptoopenssl-OpenSSL_0_9_8l'
p4312
aS'libcryptoopenssl-OpenSSL_0_9_8m'
p4313
aS'libcryptoopenssl-OpenSSL_0_9_8n'
p4314
aS'libcryptoopenssl-OpenSSL_0_9_8o'
p4315
aS'libcryptoopenssl-OpenSSL_0_9_8h'
p4316
aS'libcryptoopenssl-OpenSSL_0_9_8i'
p4317
aS'libcryptoopenssl-OpenSSL_0_9_8j'
p4318
aS'libcryptoopenssl-OpenSSL_0_9_8k'
p4319
aS'libcryptoopenssl-OpenSSL_1_0_1t'
p4320
aS'libcryptoopenssl-OpenSSL_1_0_1s'
p4321
aS'libcryptoopenssl-OpenSSL_1_0_1r'
p4322
aS'libcryptoopenssl-OpenSSL_1_0_1q'
p4323
aS'libcryptoopenssl-OpenSSL_1_0_1p'
p4324
aS'libcryptoopenssl-OpenSSL_1_0_1o'
p4325
aS'libcryptoopenssl-OpenSSL_1_0_1n'
p4326
aS'libcryptoopenssl-OpenSSL_1_0_1m'
p4327
aS'libcryptoopenssl-OpenSSL_1_0_1l'
p4328
aS'libcryptoopenssl-OpenSSL_1_0_1k'
p4329
aS'libcryptoopenssl-OpenSSL_1_0_1j'
p4330
aS'libcryptoopenssl-OpenSSL_1_0_1i'
p4331
aS'libcryptoopenssl-OpenSSL_1_0_1h'
p4332
aS'libcryptoopenssl-OpenSSL_1_0_1g'
p4333
aS'libcryptoopenssl-OpenSSL_1_0_1f'
p4334
aS'libcryptoopenssl-OpenSSL_1_0_1e'
p4335
aS'libcryptoopenssl-OpenSSL_1_0_1d'
p4336
aS'libcryptoopenssl-OpenSSL_1_0_1c'
p4337
aS'libcryptoopenssl-OpenSSL_1_0_1b'
p4338
aS'libcryptoopenssl-OpenSSL_1_0_1a'
p4339
aS'libcryptoopenssl-OpenSSL_1_1_0'
p4340
aS'libcryptoopenssl-OpenSSL_1_0_2q'
p4341
aS'libcryptoopenssl-OpenSSL_1_0_2f'
p4342
aS'libcryptoopenssl-OpenSSL_1_0_2g'
p4343
aS'libcryptoopenssl-OpenSSL_1_0_2d'
p4344
aS'libcryptoopenssl-OpenSSL_1_0_2e'
p4345
aS'libcryptoopenssl-OpenSSL_1_0_2b'
p4346
aS'libcryptoopenssl-OpenSSL_1_0_2c'
p4347
aS'libcryptoopenssl-OpenSSL_1_0_2a'
p4348
aS'libcryptoopenssl-OpenSSL_1_0_2n'
p4349
aS'libcryptoopenssl-OpenSSL_1_0_2o'
p4350
aS'libcryptoopenssl-OpenSSL_1_0_2l'
p4351
aS'libcryptoopenssl-OpenSSL_1_0_2m'
p4352
aS'libcryptoopenssl-OpenSSL_1_0_2j'
p4353
aS'libcryptoopenssl-OpenSSL_1_0_2k'
p4354
aS'libcryptoopenssl-OpenSSL_1_0_2h'
p4355
aS'libcryptoopenssl-OpenSSL_1_0_2i'
p4356
aS'libcryptoopenssl-OpenSSL_0_9_7m'
p4357
aS'libcryptoopenssl-OpenSSL_0_9_7l'
p4358
aS'libcryptoopenssl-OpenSSL_0_9_7i'
p4359
aS'libcryptoopenssl-OpenSSL_0_9_7h'
p4360
aS'libcryptoopenssl-OpenSSL_0_9_7k'
p4361
aS'libcryptoopenssl-OpenSSL_0_9_7j'
p4362
aS'libcryptoopenssl-OpenSSL_0_9_7e'
p4363
aS'libcryptoopenssl-OpenSSL_0_9_7d'
p4364
aS'libcryptoopenssl-OpenSSL_0_9_7g'
p4365
aS'libcryptoopenssl-OpenSSL_0_9_7f'
p4366
aS'libcryptoopenssl-OpenSSL_0_9_7a'
p4367
aS'libcryptoopenssl-OpenSSL_0_9_7c'
p4368
aS'libcryptoopenssl-OpenSSL_0_9_7b'
p4369
aS'libcryptoopenssl-OpenSSL_1_1_0g'
p4370
aS'libcryptoopenssl-OpenSSL_1_1_0f'
p4371
aS'libcryptoopenssl-OpenSSL_1_1_0e'
p4372
aS'libcryptoopenssl-OpenSSL_1_1_0d'
p4373
aS'libcryptoopenssl-OpenSSL_1_1_0c'
p4374
aS'libcryptoopenssl-OpenSSL_1_1_0b'
p4375
aS'libcryptoopenssl-OpenSSL_1_1_0a'
p4376
aS'libcryptoopenssl-OpenSSL_1_1_0h'
p4377
aS'libcryptoopenssl-OpenSSL_0_9_8'
p4378
aS'libcryptoopenssl-OpenSSL_0_9_7'
p4379
atp4380
Rp4381
sS'SHA384_Update'
p4382
g2
((lp4383
S'libcryptoopenssl-OpenSSL_0_9_8t'
p4384
aS'libcryptoopenssl-OpenSSL_0_9_8u'
p4385
aS'libcryptoopenssl-OpenSSL_0_9_8v'
p4386
aS'libcryptoopenssl-OpenSSL_0_9_8w'
p4387
aS'libcryptoopenssl-OpenSSL_0_9_8p'
p4388
aS'libcryptoopenssl-OpenSSL_0_9_8q'
p4389
aS'libcryptoopenssl-OpenSSL_0_9_8r'
p4390
aS'libcryptoopenssl-OpenSSL_0_9_8s'
p4391
aS'libcryptoopenssl-OpenSSL_0_9_8x'
p4392
aS'libcryptoopenssl-OpenSSL_0_9_8y'
p4393
aS'libcryptoopenssl-OpenSSL_0_9_8m'
p4394
aS'libcryptoopenssl-OpenSSL_0_9_8n'
p4395
aS'libcryptoopenssl-OpenSSL_0_9_8o'
p4396
atp4397
Rp4398
sS'SXNET_get_id_INTEGER'
p4399
g2
((lp4400
S'libcryptoopenssl-OpenSSL_0_9_8t'
p4401
aS'libcryptoopenssl-OpenSSL_0_9_8u'
p4402
aS'libcryptoopenssl-OpenSSL_0_9_8v'
p4403
aS'libcryptoopenssl-OpenSSL_0_9_8w'
p4404
aS'libcryptoopenssl-OpenSSL_0_9_8s'
p4405
aS'libcryptoopenssl-OpenSSL_0_9_8x'
p4406
atp4407
Rp4408
sS'dtls1_clear_queues.isra.1'
p4409
g2
((lp4410
S'libsslopenssl-OpenSSL_1_0_1'
p4411
aS'libsslopenssl-OpenSSL_1_0_1e'
p4412
aS'libsslopenssl-OpenSSL_1_0_1g'
p4413
aS'libsslopenssl-OpenSSL_1_0_1f'
p4414
aS'libsslopenssl-OpenSSL_1_0_0f'
p4415
aS'libsslopenssl-OpenSSL_1_0_1d'
p4416
aS'libsslopenssl-OpenSSL_1_0_1c'
p4417
aS'libsslopenssl-OpenSSL_1_0_1b'
p4418
aS'libsslopenssl-OpenSSL_1_0_1a'
p4419
aS'libsslopenssl-OpenSSL_1_0_0l'
p4420
aS'libsslopenssl-OpenSSL_1_0_0g'
p4421
aS'libsslopenssl-OpenSSL_1_0_0k'
p4422
atp4423
Rp4424
sS'X509_PKEY_free'
p4425
g2
((lp4426
tp4427
Rp4428
sS'CAST_ecb_encrypt'
p4429
g2
((lp4430
S'libcryptoopenssl-OpenSSL_0_9_7m'
p4431
aS'libcryptoopenssl-OpenSSL_0_9_7l'
p4432
aS'libcryptoopenssl-OpenSSL_0_9_7i'
p4433
aS'libcryptoopenssl-OpenSSL_0_9_7h'
p4434
aS'libcryptoopenssl-OpenSSL_0_9_7k'
p4435
aS'libcryptoopenssl-OpenSSL_0_9_7j'
p4436
aS'libcryptoopenssl-OpenSSL_0_9_7e'
p4437
aS'libcryptoopenssl-OpenSSL_0_9_7d'
p4438
aS'libcryptoopenssl-OpenSSL_0_9_7g'
p4439
aS'libcryptoopenssl-OpenSSL_0_9_7f'
p4440
aS'libcryptoopenssl-OpenSSL_0_9_7a'
p4441
aS'libcryptoopenssl-OpenSSL_0_9_7c'
p4442
aS'libcryptoopenssl-OpenSSL_0_9_7b'
p4443
aS'libcryptoopenssl-OpenSSL_0_9_8t'
p4444
aS'libcryptoopenssl-OpenSSL_0_9_8u'
p4445
aS'libcryptoopenssl-OpenSSL_0_9_8v'
p4446
aS'libcryptoopenssl-OpenSSL_0_9_8w'
p4447
aS'libcryptoopenssl-OpenSSL_0_9_8p'
p4448
aS'libcryptoopenssl-OpenSSL_0_9_8q'
p4449
aS'libcryptoopenssl-OpenSSL_0_9_8r'
p4450
aS'libcryptoopenssl-OpenSSL_0_9_8s'
p4451
aS'libcryptoopenssl-OpenSSL_0_9_8x'
p4452
aS'libcryptoopenssl-OpenSSL_0_9_8y'
p4453
aS'libcryptoopenssl-OpenSSL_0_9_8d'
p4454
aS'libcryptoopenssl-OpenSSL_0_9_8e'
p4455
aS'libcryptoopenssl-OpenSSL_0_9_8f'
p4456
aS'libcryptoopenssl-OpenSSL_0_9_8g'
p4457
aS'libcryptoopenssl-OpenSSL_0_9_8a'
p4458
aS'libcryptoopenssl-OpenSSL_0_9_8b'
p4459
aS'libcryptoopenssl-OpenSSL_0_9_8c'
p4460
aS'libcryptoopenssl-OpenSSL_0_9_8l'
p4461
aS'libcryptoopenssl-OpenSSL_0_9_8m'
p4462
aS'libcryptoopenssl-OpenSSL_0_9_8n'
p4463
aS'libcryptoopenssl-OpenSSL_0_9_8o'
p4464
aS'libcryptoopenssl-OpenSSL_0_9_8h'
p4465
aS'libcryptoopenssl-OpenSSL_0_9_8i'
p4466
aS'libcryptoopenssl-OpenSSL_0_9_8j'
p4467
aS'libcryptoopenssl-OpenSSL_0_9_8k'
p4468
aS'libcryptoopenssl-OpenSSL_0_9_8'
p4469
aS'libcryptoopenssl-OpenSSL_0_9_7'
p4470
atp4471
Rp4472
sS'EVP_PKEY_type'
p4473
g2
((lp4474
S'libcryptoopenssl-OpenSSL_0_9_8t'
p4475
aS'libcryptoopenssl-OpenSSL_0_9_8u'
p4476
aS'libcryptoopenssl-OpenSSL_0_9_8v'
p4477
aS'libcryptoopenssl-OpenSSL_0_9_8w'
p4478
aS'libcryptoopenssl-OpenSSL_0_9_8p'
p4479
aS'libcryptoopenssl-OpenSSL_0_9_8q'
p4480
aS'libcryptoopenssl-OpenSSL_0_9_8r'
p4481
aS'libcryptoopenssl-OpenSSL_0_9_8s'
p4482
aS'libcryptoopenssl-OpenSSL_0_9_8x'
p4483
aS'libcryptoopenssl-OpenSSL_0_9_8y'
p4484
aS'libcryptoopenssl-OpenSSL_0_9_8e'
p4485
aS'libcryptoopenssl-OpenSSL_0_9_8f'
p4486
aS'libcryptoopenssl-OpenSSL_0_9_8g'
p4487
aS'libcryptoopenssl-OpenSSL_0_9_8l'
p4488
aS'libcryptoopenssl-OpenSSL_0_9_8m'
p4489
aS'libcryptoopenssl-OpenSSL_0_9_8n'
p4490
aS'libcryptoopenssl-OpenSSL_0_9_8o'
p4491
aS'libcryptoopenssl-OpenSSL_0_9_8h'
p4492
aS'libcryptoopenssl-OpenSSL_0_9_8i'
p4493
aS'libcryptoopenssl-OpenSSL_0_9_8j'
p4494
aS'libcryptoopenssl-OpenSSL_0_9_8k'
p4495
atp4496
Rp4497
sS'RIPEMD160_Update'
p4498
g2
((lp4499
S'libcryptoopenssl-OpenSSL_1_0_2e'
p4500
aS'libcryptoopenssl-OpenSSL_1_1_0'
p4501
aS'libcryptoopenssl-OpenSSL_1_0_0l'
p4502
aS'libcryptoopenssl-OpenSSL_1_0_1j'
p4503
aS'libcryptoopenssl-OpenSSL_1_0_0n'
p4504
aS'libcryptoopenssl-OpenSSL_1_1_0h'
p4505
aS'libcryptoopenssl-OpenSSL_1_0_2q'
p4506
aS'libcryptoopenssl-OpenSSL_1_0_1'
p4507
aS'libcryptoopenssl-OpenSSL_0_9_8q'
p4508
aS'libcryptoopenssl-OpenSSL_1_1_0g'
p4509
aS'libcryptoopenssl-OpenSSL_1_0_2b'
p4510
aS'libcryptoopenssl-OpenSSL_1_0_0m'
p4511
aS'libcryptoopenssl-OpenSSL_1_0_0t'
p4512
aS'libcryptoopenssl-OpenSSL_1_0_2i'
p4513
aS'libcryptoopenssl-OpenSSL_1_0_0p'
p4514
aS'libcryptoopenssl-OpenSSL_1_1_0e'
p4515
aS'libcryptoopenssl-OpenSSL_1_0_0r'
p4516
aS'libcryptoopenssl-OpenSSL_1_0_0s'
p4517
aS'libcryptoopenssl-OpenSSL_1_0_2f'
p4518
aS'libcryptoopenssl-OpenSSL_1_0_2g'
p4519
aS'libcryptoopenssl-OpenSSL_1_0_2d'
p4520
aS'libcryptoopenssl-OpenSSL_1_0_0o'
p4521
aS'libcryptoopenssl-OpenSSL_1_1_0c'
p4522
aS'libcryptoopenssl-OpenSSL_1_1_0b'
p4523
aS'libcryptoopenssl-OpenSSL_1_1_0a'
p4524
aS'libcryptoopenssl-OpenSSL_1_0_2a'
p4525
aS'libcryptoopenssl-OpenSSL_1_0_2n'
p4526
aS'libcryptoopenssl-OpenSSL_1_0_2o'
p4527
aS'libcryptoopenssl-OpenSSL_1_0_0f'
p4528
aS'libcryptoopenssl-OpenSSL_1_0_0g'
p4529
aS'libcryptoopenssl-OpenSSL_1_0_2j'
p4530
aS'libcryptoopenssl-OpenSSL_1_0_0a'
p4531
aS'libcryptoopenssl-OpenSSL_1_0_0b'
p4532
aS'libcryptoopenssl-OpenSSL_1_0_2c'
p4533
aS'libcryptoopenssl-OpenSSL_0_9_8t'
p4534
aS'libcryptoopenssl-OpenSSL_0_9_8u'
p4535
aS'libcryptoopenssl-OpenSSL_0_9_8v'
p4536
aS'libcryptoopenssl-OpenSSL_0_9_8w'
p4537
aS'libcryptoopenssl-OpenSSL_0_9_8p'
p4538
aS'libcryptoopenssl-OpenSSL_1_0_0j'
p4539
aS'libcryptoopenssl-OpenSSL_0_9_8r'
p4540
aS'libcryptoopenssl-OpenSSL_0_9_8s'
p4541
aS'libcryptoopenssl-OpenSSL_1_0_2k'
p4542
aS'libcryptoopenssl-OpenSSL_1_0_0c'
p4543
aS'libcryptoopenssl-OpenSSL_1_0_0k'
p4544
aS'libcryptoopenssl-OpenSSL_0_9_8x'
p4545
aS'libcryptoopenssl-OpenSSL_0_9_8y'
p4546
aS'libcryptoopenssl-OpenSSL_1_0_0d'
p4547
aS'libcryptoopenssl-OpenSSL_1_0_2l'
p4548
aS'libcryptoopenssl-OpenSSL_1_0_0e'
p4549
aS'libcryptoopenssl-OpenSSL_0_9_8m'
p4550
aS'libcryptoopenssl-OpenSSL_0_9_8n'
p4551
aS'libcryptoopenssl-OpenSSL_0_9_8o'
p4552
aS'libcryptoopenssl-OpenSSL_1_0_2'
p4553
aS'libcryptoopenssl-OpenSSL_1_1_0d'
p4554
aS'libcryptoopenssl-OpenSSL_1_0_0'
p4555
aS'libcryptoopenssl-OpenSSL_1_0_0i'
p4556
aS'libcryptoopenssl-OpenSSL_1_0_2m'
p4557
aS'libcryptoopenssl-OpenSSL_1_1_0f'
p4558
aS'libcryptoopenssl-OpenSSL_1_0_0q'
p4559
aS'libcryptoopenssl-OpenSSL_1_0_1t'
p4560
aS'libcryptoopenssl-OpenSSL_1_0_1s'
p4561
aS'libcryptoopenssl-OpenSSL_1_0_1r'
p4562
aS'libcryptoopenssl-OpenSSL_1_0_1q'
p4563
aS'libcryptoopenssl-OpenSSL_1_0_1p'
p4564
aS'libcryptoopenssl-OpenSSL_1_0_1o'
p4565
aS'libcryptoopenssl-OpenSSL_1_0_1n'
p4566
aS'libcryptoopenssl-OpenSSL_1_0_1m'
p4567
aS'libcryptoopenssl-OpenSSL_1_0_1l'
p4568
aS'libcryptoopenssl-OpenSSL_1_0_1k'
p4569
aS'libcryptoopenssl-OpenSSL_1_0_2h'
p4570
aS'libcryptoopenssl-OpenSSL_1_0_1i'
p4571
aS'libcryptoopenssl-OpenSSL_1_0_1h'
p4572
aS'libcryptoopenssl-OpenSSL_1_0_1g'
p4573
aS'libcryptoopenssl-OpenSSL_1_0_1f'
p4574
aS'libcryptoopenssl-OpenSSL_1_0_1e'
p4575
aS'libcryptoopenssl-OpenSSL_1_0_1d'
p4576
aS'libcryptoopenssl-OpenSSL_1_0_1c'
p4577
aS'libcryptoopenssl-OpenSSL_1_0_1b'
p4578
aS'libcryptoopenssl-OpenSSL_1_0_1a'
p4579
aS'libcryptoopenssl-OpenSSL_1_0_0h'
p4580
atp4581
Rp4582
sS'MD2_Final'
p4583
g2
((lp4584
S'libcryptoopenssl-OpenSSL_0_9_8t'
p4585
aS'libcryptoopenssl-OpenSSL_0_9_8u'
p4586
aS'libcryptoopenssl-OpenSSL_0_9_8v'
p4587
aS'libcryptoopenssl-OpenSSL_0_9_8w'
p4588
aS'libcryptoopenssl-OpenSSL_0_9_8p'
p4589
aS'libcryptoopenssl-OpenSSL_0_9_8q'
p4590
aS'libcryptoopenssl-OpenSSL_0_9_8r'
p4591
aS'libcryptoopenssl-OpenSSL_0_9_8s'
p4592
aS'libcryptoopenssl-OpenSSL_0_9_8x'
p4593
aS'libcryptoopenssl-OpenSSL_0_9_8y'
p4594
aS'libcryptoopenssl-OpenSSL_0_9_8d'
p4595
aS'libcryptoopenssl-OpenSSL_0_9_8f'
p4596
aS'libcryptoopenssl-OpenSSL_0_9_8g'
p4597
aS'libcryptoopenssl-OpenSSL_0_9_8a'
p4598
aS'libcryptoopenssl-OpenSSL_0_9_8b'
p4599
aS'libcryptoopenssl-OpenSSL_0_9_8l'
p4600
aS'libcryptoopenssl-OpenSSL_0_9_8m'
p4601
aS'libcryptoopenssl-OpenSSL_0_9_8n'
p4602
aS'libcryptoopenssl-OpenSSL_0_9_8o'
p4603
aS'libcryptoopenssl-OpenSSL_0_9_8h'
p4604
aS'libcryptoopenssl-OpenSSL_0_9_8i'
p4605
aS'libcryptoopenssl-OpenSSL_0_9_8j'
p4606
aS'libcryptoopenssl-OpenSSL_0_9_8k'
p4607
aS'libcryptoopenssl-OpenSSL_0_9_8'
p4608
atp4609
Rp4610
sS'EC_EX_DATA_clear_free_data'
p4611
g2
((lp4612
tp4613
Rp4614
sS'OCSP_resp_find'
p4615
g2
((lp4616
S'libcryptoopenssl-OpenSSL_0_9_8t'
p4617
aS'libcryptoopenssl-OpenSSL_0_9_8u'
p4618
aS'libcryptoopenssl-OpenSSL_0_9_8v'
p4619
aS'libcryptoopenssl-OpenSSL_0_9_8w'
p4620
aS'libcryptoopenssl-OpenSSL_0_9_8s'
p4621
aS'libcryptoopenssl-OpenSSL_0_9_8x'
p4622
atp4623
Rp4624
sS'AES_ofb128_encrypt'
p4625
g2
((lp4626
S'libcryptoopenssl-OpenSSL_0_9_8t'
p4627
aS'libcryptoopenssl-OpenSSL_0_9_8u'
p4628
aS'libcryptoopenssl-OpenSSL_0_9_8v'
p4629
aS'libcryptoopenssl-OpenSSL_0_9_8w'
p4630
aS'libcryptoopenssl-OpenSSL_0_9_8p'
p4631
aS'libcryptoopenssl-OpenSSL_0_9_8q'
p4632
aS'libcryptoopenssl-OpenSSL_0_9_8r'
p4633
aS'libcryptoopenssl-OpenSSL_0_9_8s'
p4634
aS'libcryptoopenssl-OpenSSL_0_9_8x'
p4635
aS'libcryptoopenssl-OpenSSL_0_9_8y'
p4636
aS'libcryptoopenssl-OpenSSL_0_9_8m'
p4637
aS'libcryptoopenssl-OpenSSL_0_9_8n'
p4638
aS'libcryptoopenssl-OpenSSL_0_9_8o'
p4639
atp4640
Rp4641
sS'EC_EX_DATA_free_all_data'
p4642
g2
((lp4643
tp4644
Rp4645
sS'ec_pre_comp_free'
p4646
g2
((lp4647
tp4648
Rp4649
sS'policy_cache_find_data'
p4650
g2
((lp4651
S'libcryptoopenssl-OpenSSL_0_9_8t'
p4652
aS'libcryptoopenssl-OpenSSL_0_9_8u'
p4653
aS'libcryptoopenssl-OpenSSL_0_9_8v'
p4654
aS'libcryptoopenssl-OpenSSL_0_9_8w'
p4655
aS'libcryptoopenssl-OpenSSL_0_9_8s'
p4656
aS'libcryptoopenssl-OpenSSL_0_9_8x'
p4657
aS'libcryptoopenssl-OpenSSL_0_9_8y'
p4658
atp4659
Rp4660
sS'EVP_PKEY_bits'
p4661
g2
((lp4662
tp4663
Rp4664
sS'ssl3_cleanup_key_block'
p4665
g2
((lp4666
S'libsslopenssl-OpenSSL_0_9_8l'
p4667
aS'libsslopenssl-OpenSSL_0_9_8m'
p4668
aS'libsslopenssl-OpenSSL_0_9_8n'
p4669
aS'libsslopenssl-OpenSSL_0_9_8o'
p4670
aS'libsslopenssl-OpenSSL_0_9_8e'
p4671
aS'libsslopenssl-OpenSSL_0_9_8f'
p4672
aS'libsslopenssl-OpenSSL_0_9_8g'
p4673
aS'libsslopenssl-OpenSSL_0_9_8x'
p4674
aS'libsslopenssl-OpenSSL_0_9_8y'
p4675
aS'libsslopenssl-OpenSSL_0_9_8t'
p4676
aS'libsslopenssl-OpenSSL_0_9_8u'
p4677
aS'libsslopenssl-OpenSSL_0_9_8v'
p4678
aS'libsslopenssl-OpenSSL_0_9_8w'
p4679
aS'libsslopenssl-OpenSSL_0_9_8p'
p4680
aS'libsslopenssl-OpenSSL_0_9_8q'
p4681
aS'libsslopenssl-OpenSSL_0_9_8r'
p4682
aS'libsslopenssl-OpenSSL_0_9_8s'
p4683
atp4684
Rp4685
sS'OCSP_id_issuer_cmp'
p4686
g2
((lp4687
S'libcryptoopenssl-OpenSSL_0_9_8t'
p4688
aS'libcryptoopenssl-OpenSSL_0_9_8u'
p4689
aS'libcryptoopenssl-OpenSSL_0_9_8v'
p4690
aS'libcryptoopenssl-OpenSSL_0_9_8w'
p4691
aS'libcryptoopenssl-OpenSSL_0_9_8s'
p4692
aS'libcryptoopenssl-OpenSSL_0_9_8x'
p4693
aS'libcryptoopenssl-OpenSSL_0_9_8y'
p4694
atp4695
Rp4696
sS'ERR_peek_error'
p4697
g2
((lp4698
S'libcryptoopenssl-OpenSSL_0_9_7m'
p4699
aS'libcryptoopenssl-OpenSSL_0_9_7l'
p4700
aS'libcryptoopenssl-OpenSSL_0_9_7i'
p4701
aS'libcryptoopenssl-OpenSSL_0_9_7h'
p4702
aS'libcryptoopenssl-OpenSSL_0_9_7k'
p4703
aS'libcryptoopenssl-OpenSSL_0_9_7j'
p4704
aS'libcryptoopenssl-OpenSSL_0_9_7e'
p4705
aS'libcryptoopenssl-OpenSSL_0_9_7d'
p4706
aS'libcryptoopenssl-OpenSSL_0_9_7g'
p4707
aS'libcryptoopenssl-OpenSSL_0_9_7f'
p4708
aS'libcryptoopenssl-OpenSSL_0_9_7a'
p4709
aS'libcryptoopenssl-OpenSSL_0_9_7c'
p4710
aS'libcryptoopenssl-OpenSSL_0_9_7b'
p4711
aS'libcryptoopenssl-OpenSSL_1_0_0t'
p4712
aS'libcryptoopenssl-OpenSSL_1_0_0p'
p4713
aS'libcryptoopenssl-OpenSSL_1_0_0q'
p4714
aS'libcryptoopenssl-OpenSSL_1_0_0r'
p4715
aS'libcryptoopenssl-OpenSSL_1_0_0s'
p4716
aS'libcryptoopenssl-OpenSSL_1_0_0l'
p4717
aS'libcryptoopenssl-OpenSSL_1_0_0m'
p4718
aS'libcryptoopenssl-OpenSSL_1_0_0n'
p4719
aS'libcryptoopenssl-OpenSSL_1_0_0o'
p4720
aS'libcryptoopenssl-OpenSSL_1_0_0h'
p4721
aS'libcryptoopenssl-OpenSSL_1_0_0i'
p4722
aS'libcryptoopenssl-OpenSSL_1_0_0j'
p4723
aS'libcryptoopenssl-OpenSSL_1_0_0k'
p4724
aS'libcryptoopenssl-OpenSSL_1_0_0d'
p4725
aS'libcryptoopenssl-OpenSSL_1_0_0e'
p4726
aS'libcryptoopenssl-OpenSSL_1_0_0f'
p4727
aS'libcryptoopenssl-OpenSSL_1_0_0g'
p4728
aS'libcryptoopenssl-OpenSSL_1_0_0a'
p4729
aS'libcryptoopenssl-OpenSSL_1_0_0b'
p4730
aS'libcryptoopenssl-OpenSSL_1_0_0c'
p4731
aS'libcryptoopenssl-OpenSSL_0_9_8t'
p4732
aS'libcryptoopenssl-OpenSSL_0_9_8u'
p4733
aS'libcryptoopenssl-OpenSSL_0_9_8v'
p4734
aS'libcryptoopenssl-OpenSSL_0_9_8w'
p4735
aS'libcryptoopenssl-OpenSSL_0_9_8p'
p4736
aS'libcryptoopenssl-OpenSSL_0_9_8q'
p4737
aS'libcryptoopenssl-OpenSSL_0_9_8r'
p4738
aS'libcryptoopenssl-OpenSSL_0_9_8s'
p4739
aS'libcryptoopenssl-OpenSSL_0_9_8x'
p4740
aS'libcryptoopenssl-OpenSSL_0_9_8y'
p4741
aS'libcryptoopenssl-OpenSSL_0_9_8d'
p4742
aS'libcryptoopenssl-OpenSSL_0_9_8e'
p4743
aS'libcryptoopenssl-OpenSSL_0_9_8f'
p4744
aS'libcryptoopenssl-OpenSSL_0_9_8g'
p4745
aS'libcryptoopenssl-OpenSSL_0_9_8a'
p4746
aS'libcryptoopenssl-OpenSSL_0_9_8b'
p4747
aS'libcryptoopenssl-OpenSSL_0_9_8c'
p4748
aS'libcryptoopenssl-OpenSSL_0_9_8l'
p4749
aS'libcryptoopenssl-OpenSSL_0_9_8m'
p4750
aS'libcryptoopenssl-OpenSSL_0_9_8n'
p4751
aS'libcryptoopenssl-OpenSSL_0_9_8o'
p4752
aS'libcryptoopenssl-OpenSSL_0_9_8h'
p4753
aS'libcryptoopenssl-OpenSSL_0_9_8i'
p4754
aS'libcryptoopenssl-OpenSSL_0_9_8j'
p4755
aS'libcryptoopenssl-OpenSSL_0_9_8k'
p4756
aS'libcryptoopenssl-OpenSSL_1_0_0'
p4757
aS'libcryptoopenssl-OpenSSL_0_9_8'
p4758
aS'libcryptoopenssl-OpenSSL_0_9_7'
p4759
atp4760
Rp4761
sS'BN_sqr'
p4762
g2
((lp4763
tp4764
Rp4765
sS'trust_1oidany'
p4766
g2
((lp4767
S'libcryptoopenssl-OpenSSL_0_9_8t'
p4768
aS'libcryptoopenssl-OpenSSL_0_9_8u'
p4769
aS'libcryptoopenssl-OpenSSL_0_9_8v'
p4770
aS'libcryptoopenssl-OpenSSL_0_9_8w'
p4771
aS'libcryptoopenssl-OpenSSL_0_9_8s'
p4772
aS'libcryptoopenssl-OpenSSL_0_9_8x'
p4773
atp4774
Rp4775
s.