(dp0
S'X509V3_NAME_from_section'
p1
c__builtin__
set
p2
((lp3
S'libcryptoopenssl-OpenSSL_0_9_8t'
p4
atp5
Rp6
sS'ec_GFp_simple_add'
p7
g2
((lp8
tp9
Rp10
sS'ec_GFp_nist_field_sqr'
p11
g2
((lp12
tp13
Rp14
sS'ec_GF2m_simple_point_get_affine_coordinates'
p15
g2
((lp16
tp17
Rp18
sS'app_info_free'
p19
g2
((lp20
tp21
Rp22
sS'bn_sub_part_words'
p23
g2
((lp24
tp25
Rp26
sS'SHA512_Update'
p27
g2
((lp28
S'libcryptoopenssl-OpenSSL_0_9_8t'
p29
aS'libcryptoopenssl-OpenSSL_0_9_8u'
p30
aS'libcryptoopenssl-OpenSSL_0_9_8v'
p31
aS'libcryptoopenssl-OpenSSL_0_9_8w'
p32
aS'libcryptoopenssl-OpenSSL_0_9_8p'
p33
aS'libcryptoopenssl-OpenSSL_0_9_8q'
p34
aS'libcryptoopenssl-OpenSSL_0_9_8r'
p35
aS'libcryptoopenssl-OpenSSL_0_9_8s'
p36
aS'libcryptoopenssl-OpenSSL_0_9_8x'
p37
aS'libcryptoopenssl-OpenSSL_0_9_8y'
p38
aS'libcryptoopenssl-OpenSSL_0_9_8m'
p39
aS'libcryptoopenssl-OpenSSL_0_9_8n'
p40
aS'libcryptoopenssl-OpenSSL_0_9_8o'
p41
atp42
Rp43
sS'BN_mod_exp_recp'
p44
g2
((lp45
tp46
Rp47
sS'BN_MONT_CTX_new'
p48
g2
((lp49
tp50
Rp51
sS'DH_check_pub_key'
p52
g2
((lp53
tp54
Rp55
sS'_CONF_new_section'
p56
g2
((lp57
tp58
Rp59
sS'ECDSA_size'
p60
g2
((lp61
tp62
Rp63
sS'BN_uadd'
p64
g2
((lp65
tp66
Rp67
sS'EC_GROUP_new_curve_GFp'
p68
g2
((lp69
tp70
Rp71
sS'EC_POINT_dbl'
p72
g2
((lp73
tp74
Rp75
sS'BN_mod_add_quick'
p76
g2
((lp77
tp78
Rp79
sS'BN_mod_lshift1_quick'
p80
g2
((lp81
tp82
Rp83
sS'ssl3_send_alert'
p84
g2
((lp85
tp86
Rp87
sS'BN_RECP_CTX_set'
p88
g2
((lp89
tp90
Rp91
sS'EC_KEY_copy'
p92
g2
((lp93
tp94
Rp95
sS'BUF_MEM_free'
p96
g2
((lp97
tp98
Rp99
sS'DES_ecb_encrypt'
p100
g2
((lp101
S'libcryptoopenssl-OpenSSL_0_9_7m'
p102
aS'libcryptoopenssl-OpenSSL_0_9_7l'
p103
aS'libcryptoopenssl-OpenSSL_0_9_7i'
p104
aS'libcryptoopenssl-OpenSSL_0_9_7h'
p105
aS'libcryptoopenssl-OpenSSL_0_9_7k'
p106
aS'libcryptoopenssl-OpenSSL_0_9_7j'
p107
aS'libcryptoopenssl-OpenSSL_0_9_7e'
p108
aS'libcryptoopenssl-OpenSSL_0_9_7d'
p109
aS'libcryptoopenssl-OpenSSL_0_9_7g'
p110
aS'libcryptoopenssl-OpenSSL_0_9_7f'
p111
aS'libcryptoopenssl-OpenSSL_0_9_7a'
p112
aS'libcryptoopenssl-OpenSSL_0_9_7c'
p113
aS'libcryptoopenssl-OpenSSL_0_9_7b'
p114
aS'libcryptoopenssl-OpenSSL_0_9_8t'
p115
aS'libcryptoopenssl-OpenSSL_0_9_8u'
p116
aS'libcryptoopenssl-OpenSSL_0_9_8v'
p117
aS'libcryptoopenssl-OpenSSL_0_9_8w'
p118
aS'libcryptoopenssl-OpenSSL_0_9_8p'
p119
aS'libcryptoopenssl-OpenSSL_0_9_8q'
p120
aS'libcryptoopenssl-OpenSSL_0_9_8r'
p121
aS'libcryptoopenssl-OpenSSL_0_9_8s'
p122
aS'libcryptoopenssl-OpenSSL_0_9_8x'
p123
aS'libcryptoopenssl-OpenSSL_0_9_8y'
p124
aS'libcryptoopenssl-OpenSSL_0_9_8d'
p125
aS'libcryptoopenssl-OpenSSL_0_9_8e'
p126
aS'libcryptoopenssl-OpenSSL_0_9_8f'
p127
aS'libcryptoopenssl-OpenSSL_0_9_8g'
p128
aS'libcryptoopenssl-OpenSSL_0_9_8a'
p129
aS'libcryptoopenssl-OpenSSL_0_9_8b'
p130
aS'libcryptoopenssl-OpenSSL_0_9_8c'
p131
aS'libcryptoopenssl-OpenSSL_0_9_8l'
p132
aS'libcryptoopenssl-OpenSSL_0_9_8m'
p133
aS'libcryptoopenssl-OpenSSL_0_9_8n'
p134
aS'libcryptoopenssl-OpenSSL_0_9_8o'
p135
aS'libcryptoopenssl-OpenSSL_0_9_8h'
p136
aS'libcryptoopenssl-OpenSSL_0_9_8i'
p137
aS'libcryptoopenssl-OpenSSL_0_9_8j'
p138
aS'libcryptoopenssl-OpenSSL_0_9_8k'
p139
aS'libcryptoopenssl-OpenSSL_0_9_8'
p140
aS'libcryptoopenssl-OpenSSL_0_9_7'
p141
atp142
Rp143
sS'long_i2c'
p144
g2
((lp145
tp146
Rp147
sS'BN_GF2m_add'
p148
g2
((lp149
tp150
Rp151
sS'i2d_ASN1_OBJECT'
p152
g2
((lp153
tp154
Rp155
sS'i2d_ASN1_bytes'
p156
g2
((lp157
tp158
Rp159
sS'EC_POINT_copy'
p160
g2
((lp161
tp162
Rp163
sS'lh_doall_arg'
p164
g2
((lp165
S'libcryptoopenssl-OpenSSL_0_9_7m'
p166
aS'libcryptoopenssl-OpenSSL_0_9_7l'
p167
aS'libcryptoopenssl-OpenSSL_0_9_7i'
p168
aS'libcryptoopenssl-OpenSSL_0_9_7h'
p169
aS'libcryptoopenssl-OpenSSL_0_9_7k'
p170
aS'libcryptoopenssl-OpenSSL_0_9_7j'
p171
aS'libcryptoopenssl-OpenSSL_0_9_7e'
p172
aS'libcryptoopenssl-OpenSSL_0_9_7d'
p173
aS'libcryptoopenssl-OpenSSL_0_9_7g'
p174
aS'libcryptoopenssl-OpenSSL_0_9_7f'
p175
aS'libcryptoopenssl-OpenSSL_0_9_7a'
p176
aS'libcryptoopenssl-OpenSSL_0_9_7c'
p177
aS'libcryptoopenssl-OpenSSL_0_9_7b'
p178
aS'libcryptoopenssl-OpenSSL_0_9_8t'
p179
aS'libcryptoopenssl-OpenSSL_0_9_8u'
p180
aS'libcryptoopenssl-OpenSSL_0_9_8v'
p181
aS'libcryptoopenssl-OpenSSL_0_9_8w'
p182
aS'libcryptoopenssl-OpenSSL_0_9_8p'
p183
aS'libcryptoopenssl-OpenSSL_0_9_8q'
p184
aS'libcryptoopenssl-OpenSSL_0_9_8r'
p185
aS'libcryptoopenssl-OpenSSL_0_9_8s'
p186
aS'libcryptoopenssl-OpenSSL_0_9_8x'
p187
aS'libcryptoopenssl-OpenSSL_0_9_8y'
p188
aS'libcryptoopenssl-OpenSSL_0_9_8d'
p189
aS'libcryptoopenssl-OpenSSL_0_9_8e'
p190
aS'libcryptoopenssl-OpenSSL_0_9_8f'
p191
aS'libcryptoopenssl-OpenSSL_0_9_8g'
p192
aS'libcryptoopenssl-OpenSSL_0_9_8a'
p193
aS'libcryptoopenssl-OpenSSL_0_9_8b'
p194
aS'libcryptoopenssl-OpenSSL_0_9_8c'
p195
aS'libcryptoopenssl-OpenSSL_0_9_8l'
p196
aS'libcryptoopenssl-OpenSSL_0_9_8m'
p197
aS'libcryptoopenssl-OpenSSL_0_9_8n'
p198
aS'libcryptoopenssl-OpenSSL_0_9_8o'
p199
aS'libcryptoopenssl-OpenSSL_0_9_8h'
p200
aS'libcryptoopenssl-OpenSSL_0_9_8i'
p201
aS'libcryptoopenssl-OpenSSL_0_9_8j'
p202
aS'libcryptoopenssl-OpenSSL_0_9_8k'
p203
aS'libcryptoopenssl-OpenSSL_0_9_8'
p204
aS'libcryptoopenssl-OpenSSL_0_9_7'
p205
atp206
Rp207
sS'X509_time_adj'
p208
g2
((lp209
S'libcryptoopenssl-OpenSSL_0_9_7m'
p210
aS'libcryptoopenssl-OpenSSL_0_9_7l'
p211
aS'libcryptoopenssl-OpenSSL_0_9_7i'
p212
aS'libcryptoopenssl-OpenSSL_0_9_7h'
p213
aS'libcryptoopenssl-OpenSSL_0_9_7k'
p214
aS'libcryptoopenssl-OpenSSL_0_9_7j'
p215
aS'libcryptoopenssl-OpenSSL_0_9_7e'
p216
aS'libcryptoopenssl-OpenSSL_0_9_7d'
p217
aS'libcryptoopenssl-OpenSSL_0_9_7g'
p218
aS'libcryptoopenssl-OpenSSL_0_9_7f'
p219
aS'libcryptoopenssl-OpenSSL_0_9_7a'
p220
aS'libcryptoopenssl-OpenSSL_0_9_7c'
p221
aS'libcryptoopenssl-OpenSSL_0_9_7b'
p222
aS'libcryptoopenssl-OpenSSL_0_9_8t'
p223
aS'libcryptoopenssl-OpenSSL_0_9_8u'
p224
aS'libcryptoopenssl-OpenSSL_0_9_8v'
p225
aS'libcryptoopenssl-OpenSSL_0_9_8w'
p226
aS'libcryptoopenssl-OpenSSL_0_9_8p'
p227
aS'libcryptoopenssl-OpenSSL_0_9_8q'
p228
aS'libcryptoopenssl-OpenSSL_0_9_8r'
p229
aS'libcryptoopenssl-OpenSSL_0_9_8s'
p230
aS'libcryptoopenssl-OpenSSL_0_9_8x'
p231
aS'libcryptoopenssl-OpenSSL_0_9_8y'
p232
aS'libcryptoopenssl-OpenSSL_0_9_8d'
p233
aS'libcryptoopenssl-OpenSSL_0_9_8e'
p234
aS'libcryptoopenssl-OpenSSL_0_9_8f'
p235
aS'libcryptoopenssl-OpenSSL_0_9_8g'
p236
aS'libcryptoopenssl-OpenSSL_0_9_8a'
p237
aS'libcryptoopenssl-OpenSSL_0_9_8b'
p238
aS'libcryptoopenssl-OpenSSL_0_9_8c'
p239
aS'libcryptoopenssl-OpenSSL_0_9_8l'
p240
aS'libcryptoopenssl-OpenSSL_0_9_8m'
p241
aS'libcryptoopenssl-OpenSSL_0_9_8n'
p242
aS'libcryptoopenssl-OpenSSL_0_9_8o'
p243
aS'libcryptoopenssl-OpenSSL_0_9_8h'
p244
aS'libcryptoopenssl-OpenSSL_0_9_8i'
p245
aS'libcryptoopenssl-OpenSSL_0_9_8j'
p246
aS'libcryptoopenssl-OpenSSL_0_9_8k'
p247
aS'libcryptoopenssl-OpenSSL_0_9_8'
p248
atp249
Rp250
sS'MD2_Update'
p251
g2
((lp252
S'libcryptoopenssl-OpenSSL_0_9_8t'
p253
aS'libcryptoopenssl-OpenSSL_0_9_8u'
p254
aS'libcryptoopenssl-OpenSSL_0_9_8v'
p255
aS'libcryptoopenssl-OpenSSL_0_9_8w'
p256
aS'libcryptoopenssl-OpenSSL_0_9_8p'
p257
aS'libcryptoopenssl-OpenSSL_0_9_8q'
p258
aS'libcryptoopenssl-OpenSSL_0_9_8r'
p259
aS'libcryptoopenssl-OpenSSL_0_9_8s'
p260
aS'libcryptoopenssl-OpenSSL_0_9_8x'
p261
aS'libcryptoopenssl-OpenSSL_0_9_8y'
p262
aS'libcryptoopenssl-OpenSSL_0_9_8d'
p263
aS'libcryptoopenssl-OpenSSL_0_9_8f'
p264
aS'libcryptoopenssl-OpenSSL_0_9_8g'
p265
aS'libcryptoopenssl-OpenSSL_0_9_8a'
p266
aS'libcryptoopenssl-OpenSSL_0_9_8b'
p267
aS'libcryptoopenssl-OpenSSL_0_9_8l'
p268
aS'libcryptoopenssl-OpenSSL_0_9_8m'
p269
aS'libcryptoopenssl-OpenSSL_0_9_8n'
p270
aS'libcryptoopenssl-OpenSSL_0_9_8o'
p271
aS'libcryptoopenssl-OpenSSL_0_9_8h'
p272
aS'libcryptoopenssl-OpenSSL_0_9_8i'
p273
aS'libcryptoopenssl-OpenSSL_0_9_8j'
p274
aS'libcryptoopenssl-OpenSSL_0_9_8k'
p275
aS'libcryptoopenssl-OpenSSL_0_9_8'
p276
atp277
Rp278
sS'i2c_ASN1_INTEGER'
p279
g2
((lp280
S'libcryptoopenssl-OpenSSL_1_0_1'
p281
aS'libcryptoopenssl-OpenSSL_1_0_0'
p282
aS'libcryptoopenssl-OpenSSL_1_0_0h'
p283
aS'libcryptoopenssl-OpenSSL_1_0_0i'
p284
aS'libcryptoopenssl-OpenSSL_1_0_0j'
p285
aS'libcryptoopenssl-OpenSSL_1_0_0k'
p286
aS'libcryptoopenssl-OpenSSL_1_0_0d'
p287
aS'libcryptoopenssl-OpenSSL_1_0_0e'
p288
aS'libcryptoopenssl-OpenSSL_1_0_0f'
p289
aS'libcryptoopenssl-OpenSSL_1_0_0g'
p290
aS'libcryptoopenssl-OpenSSL_1_0_0a'
p291
aS'libcryptoopenssl-OpenSSL_1_0_0b'
p292
aS'libcryptoopenssl-OpenSSL_1_0_0c'
p293
aS'libcryptoopenssl-OpenSSL_0_9_8t'
p294
aS'libcryptoopenssl-OpenSSL_0_9_8u'
p295
aS'libcryptoopenssl-OpenSSL_0_9_8v'
p296
aS'libcryptoopenssl-OpenSSL_0_9_8w'
p297
aS'libcryptoopenssl-OpenSSL_0_9_8p'
p298
aS'libcryptoopenssl-OpenSSL_0_9_8q'
p299
aS'libcryptoopenssl-OpenSSL_0_9_8r'
p300
aS'libcryptoopenssl-OpenSSL_0_9_8s'
p301
aS'libcryptoopenssl-OpenSSL_0_9_8x'
p302
aS'libcryptoopenssl-OpenSSL_0_9_8y'
p303
aS'libcryptoopenssl-OpenSSL_0_9_8d'
p304
aS'libcryptoopenssl-OpenSSL_0_9_8e'
p305
aS'libcryptoopenssl-OpenSSL_0_9_8f'
p306
aS'libcryptoopenssl-OpenSSL_0_9_8g'
p307
aS'libcryptoopenssl-OpenSSL_0_9_8b'
p308
aS'libcryptoopenssl-OpenSSL_0_9_8c'
p309
aS'libcryptoopenssl-OpenSSL_0_9_8l'
p310
aS'libcryptoopenssl-OpenSSL_0_9_8m'
p311
aS'libcryptoopenssl-OpenSSL_0_9_8n'
p312
aS'libcryptoopenssl-OpenSSL_0_9_8o'
p313
aS'libcryptoopenssl-OpenSSL_0_9_8h'
p314
aS'libcryptoopenssl-OpenSSL_0_9_8i'
p315
aS'libcryptoopenssl-OpenSSL_0_9_8j'
p316
aS'libcryptoopenssl-OpenSSL_0_9_8k'
p317
aS'libcryptoopenssl-OpenSSL_1_0_1e'
p318
aS'libcryptoopenssl-OpenSSL_1_0_1d'
p319
aS'libcryptoopenssl-OpenSSL_1_0_1c'
p320
aS'libcryptoopenssl-OpenSSL_1_0_1b'
p321
aS'libcryptoopenssl-OpenSSL_1_0_1a'
p322
atp323
Rp324
sS'ec_GFp_simple_is_on_curve'
p325
g2
((lp326
tp327
Rp328
sS'BN_mod_sub_quick'
p329
g2
((lp330
tp331
Rp332
sS'ec_GF2m_simple_make_affine'
p333
g2
((lp334
tp335
Rp336
sS'PKCS7_add_signer'
p337
g2
((lp338
S'libcryptoopenssl-OpenSSL_0_9_8t'
p339
atp340
Rp341
sS'ec_GFp_simple_make_affine'
p342
g2
((lp343
tp344
Rp345
sS'rc2_ecb_cipher'
p346
g2
((lp347
S'libcryptoopenssl-OpenSSL_0_9_7m'
p348
aS'libcryptoopenssl-OpenSSL_0_9_7l'
p349
aS'libcryptoopenssl-OpenSSL_0_9_7i'
p350
aS'libcryptoopenssl-OpenSSL_0_9_7h'
p351
aS'libcryptoopenssl-OpenSSL_0_9_7k'
p352
aS'libcryptoopenssl-OpenSSL_0_9_7j'
p353
aS'libcryptoopenssl-OpenSSL_0_9_7e'
p354
aS'libcryptoopenssl-OpenSSL_0_9_7d'
p355
aS'libcryptoopenssl-OpenSSL_0_9_7g'
p356
aS'libcryptoopenssl-OpenSSL_0_9_7f'
p357
aS'libcryptoopenssl-OpenSSL_0_9_7a'
p358
aS'libcryptoopenssl-OpenSSL_0_9_7c'
p359
aS'libcryptoopenssl-OpenSSL_0_9_7b'
p360
aS'libcryptoopenssl-OpenSSL_0_9_8t'
p361
aS'libcryptoopenssl-OpenSSL_0_9_8u'
p362
aS'libcryptoopenssl-OpenSSL_0_9_8v'
p363
aS'libcryptoopenssl-OpenSSL_0_9_8w'
p364
aS'libcryptoopenssl-OpenSSL_0_9_8p'
p365
aS'libcryptoopenssl-OpenSSL_0_9_8q'
p366
aS'libcryptoopenssl-OpenSSL_0_9_8r'
p367
aS'libcryptoopenssl-OpenSSL_0_9_8s'
p368
aS'libcryptoopenssl-OpenSSL_0_9_8x'
p369
aS'libcryptoopenssl-OpenSSL_0_9_8y'
p370
aS'libcryptoopenssl-OpenSSL_0_9_8d'
p371
aS'libcryptoopenssl-OpenSSL_0_9_8e'
p372
aS'libcryptoopenssl-OpenSSL_0_9_8f'
p373
aS'libcryptoopenssl-OpenSSL_0_9_8g'
p374
aS'libcryptoopenssl-OpenSSL_0_9_8a'
p375
aS'libcryptoopenssl-OpenSSL_0_9_8b'
p376
aS'libcryptoopenssl-OpenSSL_0_9_8c'
p377
aS'libcryptoopenssl-OpenSSL_0_9_8l'
p378
aS'libcryptoopenssl-OpenSSL_0_9_8m'
p379
aS'libcryptoopenssl-OpenSSL_0_9_8n'
p380
aS'libcryptoopenssl-OpenSSL_0_9_8o'
p381
aS'libcryptoopenssl-OpenSSL_0_9_8h'
p382
aS'libcryptoopenssl-OpenSSL_0_9_8i'
p383
aS'libcryptoopenssl-OpenSSL_0_9_8j'
p384
aS'libcryptoopenssl-OpenSSL_0_9_8k'
p385
aS'libcryptoopenssl-OpenSSL_0_9_8'
p386
aS'libcryptoopenssl-OpenSSL_0_9_7'
p387
atp388
Rp389
sS'ec_GFp_simple_get_Jprojective_coordinates_GFp'
p390
g2
((lp391
tp392
Rp393
sS'dtls1_get_message'
p394
g2
((lp395
tp396
Rp397
sS'ec_GF2m_simple_add'
p398
g2
((lp399
tp400
Rp401
sS'ERR_set_error_data'
p402
g2
((lp403
tp404
Rp405
sS'DH_check'
p406
g2
((lp407
tp408
Rp409
sS'check_issued'
p410
g2
((lp411
S'libcryptoopenssl-OpenSSL_0_9_8t'
p412
atp413
Rp414
sS'EC_POINT_set_to_infinity'
p415
g2
((lp416
tp417
Rp418
sS'des_ede_ecb_cipher'
p419
g2
((lp420
S'libcryptoopenssl-OpenSSL_0_9_7m'
p421
aS'libcryptoopenssl-OpenSSL_0_9_7l'
p422
aS'libcryptoopenssl-OpenSSL_0_9_7i'
p423
aS'libcryptoopenssl-OpenSSL_0_9_7h'
p424
aS'libcryptoopenssl-OpenSSL_0_9_7k'
p425
aS'libcryptoopenssl-OpenSSL_0_9_7j'
p426
aS'libcryptoopenssl-OpenSSL_0_9_7e'
p427
aS'libcryptoopenssl-OpenSSL_0_9_7d'
p428
aS'libcryptoopenssl-OpenSSL_0_9_7g'
p429
aS'libcryptoopenssl-OpenSSL_0_9_7f'
p430
aS'libcryptoopenssl-OpenSSL_0_9_7a'
p431
aS'libcryptoopenssl-OpenSSL_0_9_7c'
p432
aS'libcryptoopenssl-OpenSSL_0_9_7b'
p433
aS'libcryptoopenssl-OpenSSL_0_9_8t'
p434
aS'libcryptoopenssl-OpenSSL_0_9_8u'
p435
aS'libcryptoopenssl-OpenSSL_0_9_8v'
p436
aS'libcryptoopenssl-OpenSSL_0_9_8w'
p437
aS'libcryptoopenssl-OpenSSL_0_9_8p'
p438
aS'libcryptoopenssl-OpenSSL_0_9_8q'
p439
aS'libcryptoopenssl-OpenSSL_0_9_8r'
p440
aS'libcryptoopenssl-OpenSSL_0_9_8s'
p441
aS'libcryptoopenssl-OpenSSL_0_9_8x'
p442
aS'libcryptoopenssl-OpenSSL_0_9_8y'
p443
aS'libcryptoopenssl-OpenSSL_0_9_8d'
p444
aS'libcryptoopenssl-OpenSSL_0_9_8e'
p445
aS'libcryptoopenssl-OpenSSL_0_9_8f'
p446
aS'libcryptoopenssl-OpenSSL_0_9_8g'
p447
aS'libcryptoopenssl-OpenSSL_0_9_8a'
p448
aS'libcryptoopenssl-OpenSSL_0_9_8b'
p449
aS'libcryptoopenssl-OpenSSL_0_9_8c'
p450
aS'libcryptoopenssl-OpenSSL_0_9_8l'
p451
aS'libcryptoopenssl-OpenSSL_0_9_8m'
p452
aS'libcryptoopenssl-OpenSSL_0_9_8n'
p453
aS'libcryptoopenssl-OpenSSL_0_9_8o'
p454
aS'libcryptoopenssl-OpenSSL_0_9_8h'
p455
aS'libcryptoopenssl-OpenSSL_0_9_8i'
p456
aS'libcryptoopenssl-OpenSSL_0_9_8j'
p457
aS'libcryptoopenssl-OpenSSL_0_9_8k'
p458
aS'libcryptoopenssl-OpenSSL_0_9_8'
p459
aS'libcryptoopenssl-OpenSSL_0_9_7'
p460
atp461
Rp462
sS'ec_pre_comp_clear_free'
p463
g2
((lp464
tp465
Rp466
sS'des_ecb_cipher'
p467
g2
((lp468
S'libcryptoopenssl-OpenSSL_0_9_7m'
p469
aS'libcryptoopenssl-OpenSSL_0_9_7l'
p470
aS'libcryptoopenssl-OpenSSL_0_9_7i'
p471
aS'libcryptoopenssl-OpenSSL_0_9_7h'
p472
aS'libcryptoopenssl-OpenSSL_0_9_7k'
p473
aS'libcryptoopenssl-OpenSSL_0_9_7j'
p474
aS'libcryptoopenssl-OpenSSL_0_9_7e'
p475
aS'libcryptoopenssl-OpenSSL_0_9_7d'
p476
aS'libcryptoopenssl-OpenSSL_0_9_7g'
p477
aS'libcryptoopenssl-OpenSSL_0_9_7f'
p478
aS'libcryptoopenssl-OpenSSL_0_9_7a'
p479
aS'libcryptoopenssl-OpenSSL_0_9_7c'
p480
aS'libcryptoopenssl-OpenSSL_0_9_7b'
p481
aS'libcryptoopenssl-OpenSSL_0_9_8t'
p482
aS'libcryptoopenssl-OpenSSL_0_9_8u'
p483
aS'libcryptoopenssl-OpenSSL_0_9_8v'
p484
aS'libcryptoopenssl-OpenSSL_0_9_8w'
p485
aS'libcryptoopenssl-OpenSSL_0_9_8p'
p486
aS'libcryptoopenssl-OpenSSL_0_9_8q'
p487
aS'libcryptoopenssl-OpenSSL_0_9_8r'
p488
aS'libcryptoopenssl-OpenSSL_0_9_8s'
p489
aS'libcryptoopenssl-OpenSSL_0_9_8x'
p490
aS'libcryptoopenssl-OpenSSL_0_9_8y'
p491
aS'libcryptoopenssl-OpenSSL_0_9_8d'
p492
aS'libcryptoopenssl-OpenSSL_0_9_8e'
p493
aS'libcryptoopenssl-OpenSSL_0_9_8f'
p494
aS'libcryptoopenssl-OpenSSL_0_9_8g'
p495
aS'libcryptoopenssl-OpenSSL_0_9_8a'
p496
aS'libcryptoopenssl-OpenSSL_0_9_8b'
p497
aS'libcryptoopenssl-OpenSSL_0_9_8c'
p498
aS'libcryptoopenssl-OpenSSL_0_9_8l'
p499
aS'libcryptoopenssl-OpenSSL_0_9_8m'
p500
aS'libcryptoopenssl-OpenSSL_0_9_8n'
p501
aS'libcryptoopenssl-OpenSSL_0_9_8o'
p502
aS'libcryptoopenssl-OpenSSL_0_9_8h'
p503
aS'libcryptoopenssl-OpenSSL_0_9_8i'
p504
aS'libcryptoopenssl-OpenSSL_0_9_8j'
p505
aS'libcryptoopenssl-OpenSSL_0_9_8k'
p506
aS'libcryptoopenssl-OpenSSL_0_9_8'
p507
aS'libcryptoopenssl-OpenSSL_0_9_7'
p508
atp509
Rp510
sS'X509at_get_attr_by_OBJ'
p511
g2
((lp512
S'libcryptoopenssl-OpenSSL_0_9_8t'
p513
atp514
Rp515
sS'ASN1_INTEGER_get'
p516
g2
((lp517
S'libcryptoopenssl-OpenSSL_1_0_0'
p518
aS'libcryptoopenssl-OpenSSL_1_0_0d'
p519
aS'libcryptoopenssl-OpenSSL_1_0_0e'
p520
aS'libcryptoopenssl-OpenSSL_1_0_0f'
p521
aS'libcryptoopenssl-OpenSSL_1_0_0a'
p522
aS'libcryptoopenssl-OpenSSL_1_0_0b'
p523
aS'libcryptoopenssl-OpenSSL_1_0_0c'
p524
aS'libcryptoopenssl-OpenSSL_0_9_8t'
p525
aS'libcryptoopenssl-OpenSSL_0_9_8u'
p526
aS'libcryptoopenssl-OpenSSL_0_9_8v'
p527
aS'libcryptoopenssl-OpenSSL_0_9_8w'
p528
aS'libcryptoopenssl-OpenSSL_0_9_8p'
p529
aS'libcryptoopenssl-OpenSSL_0_9_8q'
p530
aS'libcryptoopenssl-OpenSSL_0_9_8r'
p531
aS'libcryptoopenssl-OpenSSL_0_9_8s'
p532
aS'libcryptoopenssl-OpenSSL_0_9_8x'
p533
aS'libcryptoopenssl-OpenSSL_0_9_8y'
p534
aS'libcryptoopenssl-OpenSSL_0_9_8d'
p535
aS'libcryptoopenssl-OpenSSL_0_9_8e'
p536
aS'libcryptoopenssl-OpenSSL_0_9_8f'
p537
aS'libcryptoopenssl-OpenSSL_0_9_8g'
p538
aS'libcryptoopenssl-OpenSSL_0_9_8a'
p539
aS'libcryptoopenssl-OpenSSL_0_9_8b'
p540
aS'libcryptoopenssl-OpenSSL_0_9_8c'
p541
aS'libcryptoopenssl-OpenSSL_0_9_8l'
p542
aS'libcryptoopenssl-OpenSSL_0_9_8m'
p543
aS'libcryptoopenssl-OpenSSL_0_9_8n'
p544
aS'libcryptoopenssl-OpenSSL_0_9_8o'
p545
aS'libcryptoopenssl-OpenSSL_0_9_8h'
p546
aS'libcryptoopenssl-OpenSSL_0_9_8i'
p547
aS'libcryptoopenssl-OpenSSL_0_9_8j'
p548
aS'libcryptoopenssl-OpenSSL_0_9_8k'
p549
aS'libcryptoopenssl-OpenSSL_0_9_8'
p550
atp551
Rp552
sS'CRYPTO_get_ex_data'
p553
g2
((lp554
S'libcryptoopenssl-OpenSSL_0_9_8t'
p555
atp556
Rp557
sS'md5_block_asm_data_order'
p558
g2
((lp559
S'libcryptoopenssl-OpenSSL_0_9_8t'
p560
aS'libcryptoopenssl-OpenSSL_0_9_8u'
p561
aS'libcryptoopenssl-OpenSSL_0_9_8v'
p562
aS'libcryptoopenssl-OpenSSL_0_9_8w'
p563
aS'libcryptoopenssl-OpenSSL_0_9_8p'
p564
aS'libcryptoopenssl-OpenSSL_0_9_8q'
p565
aS'libcryptoopenssl-OpenSSL_0_9_8r'
p566
aS'libcryptoopenssl-OpenSSL_0_9_8s'
p567
aS'libcryptoopenssl-OpenSSL_0_9_8x'
p568
aS'libcryptoopenssl-OpenSSL_0_9_8y'
p569
aS'libcryptoopenssl-OpenSSL_0_9_8m'
p570
aS'libcryptoopenssl-OpenSSL_0_9_8n'
p571
aS'libcryptoopenssl-OpenSSL_0_9_8o'
p572
atp573
Rp574
sS'bn_add_words'
p575
g2
((lp576
tp577
Rp578
sS'X509_get_pubkey'
p579
g2
((lp580
S'libcryptoopenssl-OpenSSL_0_9_8t'
p581
aS'libcryptoopenssl-OpenSSL_0_9_8u'
p582
aS'libcryptoopenssl-OpenSSL_0_9_8v'
p583
aS'libcryptoopenssl-OpenSSL_0_9_8w'
p584
aS'libcryptoopenssl-OpenSSL_0_9_8p'
p585
aS'libcryptoopenssl-OpenSSL_0_9_8q'
p586
aS'libcryptoopenssl-OpenSSL_0_9_8r'
p587
aS'libcryptoopenssl-OpenSSL_0_9_8s'
p588
aS'libcryptoopenssl-OpenSSL_0_9_8x'
p589
aS'libcryptoopenssl-OpenSSL_0_9_8y'
p590
aS'libcryptoopenssl-OpenSSL_0_9_8e'
p591
aS'libcryptoopenssl-OpenSSL_0_9_8f'
p592
aS'libcryptoopenssl-OpenSSL_0_9_8g'
p593
aS'libcryptoopenssl-OpenSSL_0_9_8l'
p594
aS'libcryptoopenssl-OpenSSL_0_9_8m'
p595
aS'libcryptoopenssl-OpenSSL_0_9_8n'
p596
aS'libcryptoopenssl-OpenSSL_0_9_8o'
p597
aS'libcryptoopenssl-OpenSSL_0_9_8h'
p598
aS'libcryptoopenssl-OpenSSL_0_9_8i'
p599
aS'libcryptoopenssl-OpenSSL_0_9_8j'
p600
aS'libcryptoopenssl-OpenSSL_0_9_8k'
p601
atp602
Rp603
sS'bn_expand2'
p604
g2
((lp605
tp606
Rp607
sS'BN_is_bit_set'
p608
g2
((lp609
tp610
Rp611
sS'bn_add_part_words'
p612
g2
((lp613
tp614
Rp615
sS'aes_init_key'
p616
g2
((lp617
S'libcryptoopenssl-OpenSSL_0_9_8t'
p618
aS'libcryptoopenssl-OpenSSL_0_9_8u'
p619
aS'libcryptoopenssl-OpenSSL_0_9_8v'
p620
aS'libcryptoopenssl-OpenSSL_0_9_8w'
p621
aS'libcryptoopenssl-OpenSSL_0_9_8p'
p622
aS'libcryptoopenssl-OpenSSL_0_9_8q'
p623
aS'libcryptoopenssl-OpenSSL_0_9_8r'
p624
aS'libcryptoopenssl-OpenSSL_0_9_8s'
p625
aS'libcryptoopenssl-OpenSSL_0_9_8x'
p626
aS'libcryptoopenssl-OpenSSL_0_9_8y'
p627
aS'libcryptoopenssl-OpenSSL_0_9_8o'
p628
atp629
Rp630
sS'X509v3_get_ext_by_OBJ'
p631
g2
((lp632
S'libcryptoopenssl-OpenSSL_0_9_8t'
p633
atp634
Rp635
sS'BN_usub'
p636
g2
((lp637
tp638
Rp639
sS'ec_GF2m_simple_cmp'
p640
g2
((lp641
tp642
Rp643
sS'idea_ecb_cipher'
p644
g2
((lp645
S'libcryptoopenssl-OpenSSL_0_9_7m'
p646
aS'libcryptoopenssl-OpenSSL_0_9_7l'
p647
aS'libcryptoopenssl-OpenSSL_0_9_7i'
p648
aS'libcryptoopenssl-OpenSSL_0_9_7h'
p649
aS'libcryptoopenssl-OpenSSL_0_9_7k'
p650
aS'libcryptoopenssl-OpenSSL_0_9_7j'
p651
aS'libcryptoopenssl-OpenSSL_0_9_7e'
p652
aS'libcryptoopenssl-OpenSSL_0_9_7d'
p653
aS'libcryptoopenssl-OpenSSL_0_9_7g'
p654
aS'libcryptoopenssl-OpenSSL_0_9_7f'
p655
aS'libcryptoopenssl-OpenSSL_0_9_7a'
p656
aS'libcryptoopenssl-OpenSSL_0_9_7c'
p657
aS'libcryptoopenssl-OpenSSL_0_9_7b'
p658
aS'libcryptoopenssl-OpenSSL_0_9_8t'
p659
aS'libcryptoopenssl-OpenSSL_0_9_8u'
p660
aS'libcryptoopenssl-OpenSSL_0_9_8v'
p661
aS'libcryptoopenssl-OpenSSL_0_9_8w'
p662
aS'libcryptoopenssl-OpenSSL_0_9_8p'
p663
aS'libcryptoopenssl-OpenSSL_0_9_8q'
p664
aS'libcryptoopenssl-OpenSSL_0_9_8r'
p665
aS'libcryptoopenssl-OpenSSL_0_9_8s'
p666
aS'libcryptoopenssl-OpenSSL_0_9_8x'
p667
aS'libcryptoopenssl-OpenSSL_0_9_8y'
p668
aS'libcryptoopenssl-OpenSSL_0_9_8d'
p669
aS'libcryptoopenssl-OpenSSL_0_9_8e'
p670
aS'libcryptoopenssl-OpenSSL_0_9_8f'
p671
aS'libcryptoopenssl-OpenSSL_0_9_8g'
p672
aS'libcryptoopenssl-OpenSSL_0_9_8a'
p673
aS'libcryptoopenssl-OpenSSL_0_9_8b'
p674
aS'libcryptoopenssl-OpenSSL_0_9_8c'
p675
aS'libcryptoopenssl-OpenSSL_0_9_8l'
p676
aS'libcryptoopenssl-OpenSSL_0_9_8m'
p677
aS'libcryptoopenssl-OpenSSL_0_9_8n'
p678
aS'libcryptoopenssl-OpenSSL_0_9_8o'
p679
aS'libcryptoopenssl-OpenSSL_0_9_8h'
p680
aS'libcryptoopenssl-OpenSSL_0_9_8i'
p681
aS'libcryptoopenssl-OpenSSL_0_9_8j'
p682
aS'libcryptoopenssl-OpenSSL_0_9_8k'
p683
aS'libcryptoopenssl-OpenSSL_0_9_8'
p684
aS'libcryptoopenssl-OpenSSL_0_9_7'
p685
atp686
Rp687
sS'DSA_sign'
p688
g2
((lp689
S'libcryptoopenssl-OpenSSL_1_0_2'
p690
aS'libcryptoopenssl-OpenSSL_1_0_1'
p691
aS'libcryptoopenssl-OpenSSL_1_0_2q'
p692
aS'libcryptoopenssl-OpenSSL_1_0_2f'
p693
aS'libcryptoopenssl-OpenSSL_1_0_2g'
p694
aS'libcryptoopenssl-OpenSSL_1_0_2d'
p695
aS'libcryptoopenssl-OpenSSL_1_0_2e'
p696
aS'libcryptoopenssl-OpenSSL_1_0_2b'
p697
aS'libcryptoopenssl-OpenSSL_1_0_2c'
p698
aS'libcryptoopenssl-OpenSSL_1_0_2a'
p699
aS'libcryptoopenssl-OpenSSL_1_0_2n'
p700
aS'libcryptoopenssl-OpenSSL_1_0_2o'
p701
aS'libcryptoopenssl-OpenSSL_1_0_2l'
p702
aS'libcryptoopenssl-OpenSSL_1_0_2m'
p703
aS'libcryptoopenssl-OpenSSL_1_0_2j'
p704
aS'libcryptoopenssl-OpenSSL_1_0_2k'
p705
aS'libcryptoopenssl-OpenSSL_1_0_2h'
p706
aS'libcryptoopenssl-OpenSSL_1_0_2i'
p707
aS'libcryptoopenssl-OpenSSL_0_9_8t'
p708
aS'libcryptoopenssl-OpenSSL_0_9_8u'
p709
aS'libcryptoopenssl-OpenSSL_0_9_8v'
p710
aS'libcryptoopenssl-OpenSSL_0_9_8w'
p711
aS'libcryptoopenssl-OpenSSL_0_9_8p'
p712
aS'libcryptoopenssl-OpenSSL_0_9_8q'
p713
aS'libcryptoopenssl-OpenSSL_0_9_8r'
p714
aS'libcryptoopenssl-OpenSSL_0_9_8s'
p715
aS'libcryptoopenssl-OpenSSL_0_9_8x'
p716
aS'libcryptoopenssl-OpenSSL_0_9_8y'
p717
aS'libcryptoopenssl-OpenSSL_0_9_8m'
p718
aS'libcryptoopenssl-OpenSSL_0_9_8n'
p719
aS'libcryptoopenssl-OpenSSL_0_9_8o'
p720
aS'libcryptoopenssl-OpenSSL_1_0_1t'
p721
aS'libcryptoopenssl-OpenSSL_1_0_1s'
p722
aS'libcryptoopenssl-OpenSSL_1_0_1r'
p723
aS'libcryptoopenssl-OpenSSL_1_0_1q'
p724
aS'libcryptoopenssl-OpenSSL_1_0_1p'
p725
aS'libcryptoopenssl-OpenSSL_1_0_1o'
p726
aS'libcryptoopenssl-OpenSSL_1_0_1n'
p727
aS'libcryptoopenssl-OpenSSL_1_0_1m'
p728
aS'libcryptoopenssl-OpenSSL_1_0_1l'
p729
aS'libcryptoopenssl-OpenSSL_1_0_1k'
p730
aS'libcryptoopenssl-OpenSSL_1_0_1j'
p731
aS'libcryptoopenssl-OpenSSL_1_0_1i'
p732
aS'libcryptoopenssl-OpenSSL_1_0_1h'
p733
aS'libcryptoopenssl-OpenSSL_1_0_1g'
p734
aS'libcryptoopenssl-OpenSSL_1_0_1f'
p735
aS'libcryptoopenssl-OpenSSL_1_0_1e'
p736
aS'libcryptoopenssl-OpenSSL_1_0_1d'
p737
aS'libcryptoopenssl-OpenSSL_1_0_1c'
p738
aS'libcryptoopenssl-OpenSSL_1_0_1b'
p739
aS'libcryptoopenssl-OpenSSL_1_0_1a'
p740
atp741
Rp742
sS'EVP_PKEY_cmp_parameters'
p743
g2
((lp744
tp745
Rp746
sS'AES_cfb128_encrypt'
p747
g2
((lp748
S'libcryptoopenssl-OpenSSL_0_9_8t'
p749
aS'libcryptoopenssl-OpenSSL_0_9_8u'
p750
aS'libcryptoopenssl-OpenSSL_0_9_8v'
p751
aS'libcryptoopenssl-OpenSSL_0_9_8w'
p752
aS'libcryptoopenssl-OpenSSL_0_9_8p'
p753
aS'libcryptoopenssl-OpenSSL_0_9_8q'
p754
aS'libcryptoopenssl-OpenSSL_0_9_8r'
p755
aS'libcryptoopenssl-OpenSSL_0_9_8s'
p756
aS'libcryptoopenssl-OpenSSL_0_9_8x'
p757
aS'libcryptoopenssl-OpenSSL_0_9_8y'
p758
aS'libcryptoopenssl-OpenSSL_0_9_8m'
p759
aS'libcryptoopenssl-OpenSSL_0_9_8n'
p760
aS'libcryptoopenssl-OpenSSL_0_9_8o'
p761
atp762
Rp763
sS'trtable_free'
p764
g2
((lp765
tp766
Rp767
sS'ec_GFp_simple_points_make_affine'
p768
g2
((lp769
tp770
Rp771
sS'EC_EX_DATA_free_data'
p772
g2
((lp773
tp774
Rp775
sS'str_copy'
p776
g2
((lp777
tp778
Rp779
sS'ssl3_enc'
p780
g2
((lp781
tp782
Rp783
sS'SHA256_Update'
p784
g2
((lp785
S'libcryptoopenssl-OpenSSL_0_9_8t'
p786
aS'libcryptoopenssl-OpenSSL_0_9_8u'
p787
aS'libcryptoopenssl-OpenSSL_0_9_8v'
p788
aS'libcryptoopenssl-OpenSSL_0_9_8w'
p789
aS'libcryptoopenssl-OpenSSL_0_9_8p'
p790
aS'libcryptoopenssl-OpenSSL_0_9_8q'
p791
aS'libcryptoopenssl-OpenSSL_0_9_8r'
p792
aS'libcryptoopenssl-OpenSSL_0_9_8s'
p793
aS'libcryptoopenssl-OpenSSL_0_9_8x'
p794
aS'libcryptoopenssl-OpenSSL_0_9_8y'
p795
aS'libcryptoopenssl-OpenSSL_0_9_8m'
p796
aS'libcryptoopenssl-OpenSSL_0_9_8n'
p797
aS'libcryptoopenssl-OpenSSL_0_9_8o'
p798
atp799
Rp800
sS'ASN1_PRINTABLE_type'
p801
g2
((lp802
S'libcryptoopenssl-OpenSSL_1_0_2'
p803
aS'libcryptoopenssl-OpenSSL_1_0_1'
p804
aS'libcryptoopenssl-OpenSSL_1_0_0'
p805
aS'libcryptoopenssl-OpenSSL_1_0_0t'
p806
aS'libcryptoopenssl-OpenSSL_1_0_0p'
p807
aS'libcryptoopenssl-OpenSSL_1_0_0q'
p808
aS'libcryptoopenssl-OpenSSL_1_0_0r'
p809
aS'libcryptoopenssl-OpenSSL_1_0_0s'
p810
aS'libcryptoopenssl-OpenSSL_1_0_0l'
p811
aS'libcryptoopenssl-OpenSSL_1_0_0m'
p812
aS'libcryptoopenssl-OpenSSL_1_0_0n'
p813
aS'libcryptoopenssl-OpenSSL_1_0_0o'
p814
aS'libcryptoopenssl-OpenSSL_1_0_0h'
p815
aS'libcryptoopenssl-OpenSSL_1_0_0i'
p816
aS'libcryptoopenssl-OpenSSL_1_0_0j'
p817
aS'libcryptoopenssl-OpenSSL_1_0_0k'
p818
aS'libcryptoopenssl-OpenSSL_1_0_0d'
p819
aS'libcryptoopenssl-OpenSSL_1_0_0e'
p820
aS'libcryptoopenssl-OpenSSL_1_0_0f'
p821
aS'libcryptoopenssl-OpenSSL_1_0_0g'
p822
aS'libcryptoopenssl-OpenSSL_1_0_0a'
p823
aS'libcryptoopenssl-OpenSSL_1_0_0b'
p824
aS'libcryptoopenssl-OpenSSL_1_0_0c'
p825
aS'libcryptoopenssl-OpenSSL_0_9_8t'
p826
aS'libcryptoopenssl-OpenSSL_0_9_8u'
p827
aS'libcryptoopenssl-OpenSSL_0_9_8v'
p828
aS'libcryptoopenssl-OpenSSL_0_9_8w'
p829
aS'libcryptoopenssl-OpenSSL_0_9_8p'
p830
aS'libcryptoopenssl-OpenSSL_0_9_8q'
p831
aS'libcryptoopenssl-OpenSSL_0_9_8r'
p832
aS'libcryptoopenssl-OpenSSL_0_9_8s'
p833
aS'libcryptoopenssl-OpenSSL_0_9_8x'
p834
aS'libcryptoopenssl-OpenSSL_0_9_8y'
p835
aS'libcryptoopenssl-OpenSSL_0_9_8d'
p836
aS'libcryptoopenssl-OpenSSL_0_9_8e'
p837
aS'libcryptoopenssl-OpenSSL_0_9_8f'
p838
aS'libcryptoopenssl-OpenSSL_0_9_8g'
p839
aS'libcryptoopenssl-OpenSSL_0_9_8a'
p840
aS'libcryptoopenssl-OpenSSL_0_9_8b'
p841
aS'libcryptoopenssl-OpenSSL_0_9_8c'
p842
aS'libcryptoopenssl-OpenSSL_0_9_8l'
p843
aS'libcryptoopenssl-OpenSSL_0_9_8m'
p844
aS'libcryptoopenssl-OpenSSL_0_9_8n'
p845
aS'libcryptoopenssl-OpenSSL_0_9_8o'
p846
aS'libcryptoopenssl-OpenSSL_0_9_8h'
p847
aS'libcryptoopenssl-OpenSSL_0_9_8i'
p848
aS'libcryptoopenssl-OpenSSL_0_9_8j'
p849
aS'libcryptoopenssl-OpenSSL_0_9_8k'
p850
aS'libcryptoopenssl-OpenSSL_1_0_1t'
p851
aS'libcryptoopenssl-OpenSSL_1_0_1s'
p852
aS'libcryptoopenssl-OpenSSL_1_0_1r'
p853
aS'libcryptoopenssl-OpenSSL_1_0_1q'
p854
aS'libcryptoopenssl-OpenSSL_1_0_1p'
p855
aS'libcryptoopenssl-OpenSSL_1_0_1o'
p856
aS'libcryptoopenssl-OpenSSL_1_0_1n'
p857
aS'libcryptoopenssl-OpenSSL_1_0_1m'
p858
aS'libcryptoopenssl-OpenSSL_1_0_1l'
p859
aS'libcryptoopenssl-OpenSSL_1_0_1k'
p860
aS'libcryptoopenssl-OpenSSL_1_0_1j'
p861
aS'libcryptoopenssl-OpenSSL_1_0_1i'
p862
aS'libcryptoopenssl-OpenSSL_1_0_1h'
p863
aS'libcryptoopenssl-OpenSSL_1_0_1g'
p864
aS'libcryptoopenssl-OpenSSL_1_0_1f'
p865
aS'libcryptoopenssl-OpenSSL_1_0_1e'
p866
aS'libcryptoopenssl-OpenSSL_1_0_1d'
p867
aS'libcryptoopenssl-OpenSSL_1_0_1c'
p868
aS'libcryptoopenssl-OpenSSL_1_0_1b'
p869
aS'libcryptoopenssl-OpenSSL_1_0_1a'
p870
aS'libcryptoopenssl-OpenSSL_1_0_2q'
p871
aS'libcryptoopenssl-OpenSSL_1_0_2f'
p872
aS'libcryptoopenssl-OpenSSL_1_0_2g'
p873
aS'libcryptoopenssl-OpenSSL_1_0_2d'
p874
aS'libcryptoopenssl-OpenSSL_1_0_2e'
p875
aS'libcryptoopenssl-OpenSSL_1_0_2b'
p876
aS'libcryptoopenssl-OpenSSL_1_0_2c'
p877
aS'libcryptoopenssl-OpenSSL_1_0_2a'
p878
aS'libcryptoopenssl-OpenSSL_1_0_2n'
p879
aS'libcryptoopenssl-OpenSSL_1_0_2o'
p880
aS'libcryptoopenssl-OpenSSL_1_0_2l'
p881
aS'libcryptoopenssl-OpenSSL_1_0_2m'
p882
aS'libcryptoopenssl-OpenSSL_1_0_2j'
p883
aS'libcryptoopenssl-OpenSSL_1_0_2k'
p884
aS'libcryptoopenssl-OpenSSL_1_0_2h'
p885
aS'libcryptoopenssl-OpenSSL_1_0_2i'
p886
aS'libcryptoopenssl-OpenSSL_0_9_7m'
p887
aS'libcryptoopenssl-OpenSSL_0_9_7l'
p888
aS'libcryptoopenssl-OpenSSL_0_9_7i'
p889
aS'libcryptoopenssl-OpenSSL_0_9_7h'
p890
aS'libcryptoopenssl-OpenSSL_0_9_7k'
p891
aS'libcryptoopenssl-OpenSSL_0_9_7j'
p892
aS'libcryptoopenssl-OpenSSL_0_9_7e'
p893
aS'libcryptoopenssl-OpenSSL_0_9_7d'
p894
aS'libcryptoopenssl-OpenSSL_0_9_7g'
p895
aS'libcryptoopenssl-OpenSSL_0_9_7f'
p896
aS'libcryptoopenssl-OpenSSL_0_9_7a'
p897
aS'libcryptoopenssl-OpenSSL_0_9_7c'
p898
aS'libcryptoopenssl-OpenSSL_0_9_7b'
p899
aS'libcryptoopenssl-OpenSSL_0_9_8'
p900
aS'libcryptoopenssl-OpenSSL_0_9_7'
p901
atp902
Rp903
sS'X509_NAME_ENTRY_set_data'
p904
g2
((lp905
S'libcryptoopenssl-OpenSSL_1_0_2'
p906
aS'libcryptoopenssl-OpenSSL_1_0_1'
p907
aS'libcryptoopenssl-OpenSSL_1_0_0'
p908
aS'libcryptoopenssl-OpenSSL_1_0_0t'
p909
aS'libcryptoopenssl-OpenSSL_1_0_0p'
p910
aS'libcryptoopenssl-OpenSSL_1_0_0q'
p911
aS'libcryptoopenssl-OpenSSL_1_0_0r'
p912
aS'libcryptoopenssl-OpenSSL_1_0_0s'
p913
aS'libcryptoopenssl-OpenSSL_1_0_0l'
p914
aS'libcryptoopenssl-OpenSSL_1_0_0m'
p915
aS'libcryptoopenssl-OpenSSL_1_0_0n'
p916
aS'libcryptoopenssl-OpenSSL_1_0_0o'
p917
aS'libcryptoopenssl-OpenSSL_1_0_0h'
p918
aS'libcryptoopenssl-OpenSSL_1_0_0i'
p919
aS'libcryptoopenssl-OpenSSL_1_0_0j'
p920
aS'libcryptoopenssl-OpenSSL_1_0_0k'
p921
aS'libcryptoopenssl-OpenSSL_1_0_0d'
p922
aS'libcryptoopenssl-OpenSSL_1_0_0e'
p923
aS'libcryptoopenssl-OpenSSL_1_0_0f'
p924
aS'libcryptoopenssl-OpenSSL_1_0_0g'
p925
aS'libcryptoopenssl-OpenSSL_1_0_0a'
p926
aS'libcryptoopenssl-OpenSSL_1_0_0b'
p927
aS'libcryptoopenssl-OpenSSL_1_0_0c'
p928
aS'libcryptoopenssl-OpenSSL_0_9_8t'
p929
aS'libcryptoopenssl-OpenSSL_0_9_8u'
p930
aS'libcryptoopenssl-OpenSSL_0_9_8v'
p931
aS'libcryptoopenssl-OpenSSL_0_9_8w'
p932
aS'libcryptoopenssl-OpenSSL_0_9_8p'
p933
aS'libcryptoopenssl-OpenSSL_0_9_8q'
p934
aS'libcryptoopenssl-OpenSSL_0_9_8r'
p935
aS'libcryptoopenssl-OpenSSL_0_9_8s'
p936
aS'libcryptoopenssl-OpenSSL_0_9_8x'
p937
aS'libcryptoopenssl-OpenSSL_0_9_8y'
p938
aS'libcryptoopenssl-OpenSSL_0_9_8d'
p939
aS'libcryptoopenssl-OpenSSL_0_9_8e'
p940
aS'libcryptoopenssl-OpenSSL_0_9_8f'
p941
aS'libcryptoopenssl-OpenSSL_0_9_8g'
p942
aS'libcryptoopenssl-OpenSSL_0_9_8a'
p943
aS'libcryptoopenssl-OpenSSL_0_9_8b'
p944
aS'libcryptoopenssl-OpenSSL_0_9_8c'
p945
aS'libcryptoopenssl-OpenSSL_0_9_8l'
p946
aS'libcryptoopenssl-OpenSSL_0_9_8m'
p947
aS'libcryptoopenssl-OpenSSL_0_9_8n'
p948
aS'libcryptoopenssl-OpenSSL_0_9_8o'
p949
aS'libcryptoopenssl-OpenSSL_0_9_8h'
p950
aS'libcryptoopenssl-OpenSSL_0_9_8i'
p951
aS'libcryptoopenssl-OpenSSL_0_9_8j'
p952
aS'libcryptoopenssl-OpenSSL_0_9_8k'
p953
aS'libcryptoopenssl-OpenSSL_1_0_1t'
p954
aS'libcryptoopenssl-OpenSSL_1_0_1s'
p955
aS'libcryptoopenssl-OpenSSL_1_0_1r'
p956
aS'libcryptoopenssl-OpenSSL_1_0_1q'
p957
aS'libcryptoopenssl-OpenSSL_1_0_1p'
p958
aS'libcryptoopenssl-OpenSSL_1_0_1o'
p959
aS'libcryptoopenssl-OpenSSL_1_0_1n'
p960
aS'libcryptoopenssl-OpenSSL_1_0_1m'
p961
aS'libcryptoopenssl-OpenSSL_1_0_1l'
p962
aS'libcryptoopenssl-OpenSSL_1_0_1k'
p963
aS'libcryptoopenssl-OpenSSL_1_0_1j'
p964
aS'libcryptoopenssl-OpenSSL_1_0_1i'
p965
aS'libcryptoopenssl-OpenSSL_1_0_1h'
p966
aS'libcryptoopenssl-OpenSSL_1_0_1g'
p967
aS'libcryptoopenssl-OpenSSL_1_0_1f'
p968
aS'libcryptoopenssl-OpenSSL_1_0_1e'
p969
aS'libcryptoopenssl-OpenSSL_1_0_1d'
p970
aS'libcryptoopenssl-OpenSSL_1_0_1c'
p971
aS'libcryptoopenssl-OpenSSL_1_0_1b'
p972
aS'libcryptoopenssl-OpenSSL_1_0_1a'
p973
aS'libcryptoopenssl-OpenSSL_1_0_2q'
p974
aS'libcryptoopenssl-OpenSSL_1_0_2f'
p975
aS'libcryptoopenssl-OpenSSL_1_0_2g'
p976
aS'libcryptoopenssl-OpenSSL_1_0_2d'
p977
aS'libcryptoopenssl-OpenSSL_1_0_2e'
p978
aS'libcryptoopenssl-OpenSSL_1_0_2b'
p979
aS'libcryptoopenssl-OpenSSL_1_0_2c'
p980
aS'libcryptoopenssl-OpenSSL_1_0_2a'
p981
aS'libcryptoopenssl-OpenSSL_1_0_2n'
p982
aS'libcryptoopenssl-OpenSSL_1_0_2o'
p983
aS'libcryptoopenssl-OpenSSL_1_0_2l'
p984
aS'libcryptoopenssl-OpenSSL_1_0_2m'
p985
aS'libcryptoopenssl-OpenSSL_1_0_2j'
p986
aS'libcryptoopenssl-OpenSSL_1_0_2k'
p987
aS'libcryptoopenssl-OpenSSL_1_0_2h'
p988
aS'libcryptoopenssl-OpenSSL_1_0_2i'
p989
aS'libcryptoopenssl-OpenSSL_0_9_7m'
p990
aS'libcryptoopenssl-OpenSSL_0_9_7l'
p991
aS'libcryptoopenssl-OpenSSL_0_9_7i'
p992
aS'libcryptoopenssl-OpenSSL_0_9_7h'
p993
aS'libcryptoopenssl-OpenSSL_0_9_7k'
p994
aS'libcryptoopenssl-OpenSSL_0_9_7j'
p995
aS'libcryptoopenssl-OpenSSL_0_9_7e'
p996
aS'libcryptoopenssl-OpenSSL_0_9_7d'
p997
aS'libcryptoopenssl-OpenSSL_0_9_7g'
p998
aS'libcryptoopenssl-OpenSSL_0_9_7f'
p999
aS'libcryptoopenssl-OpenSSL_0_9_7a'
p1000
aS'libcryptoopenssl-OpenSSL_0_9_7c'
p1001
aS'libcryptoopenssl-OpenSSL_0_9_7b'
p1002
aS'libcryptoopenssl-OpenSSL_0_9_8'
p1003
aS'libcryptoopenssl-OpenSSL_0_9_7'
p1004
atp1005
Rp1006
sS'sk_value'
p1007
g2
((lp1008
S'libcryptoopenssl-OpenSSL_0_9_8t'
p1009
atp1010
Rp1011
sS'EC_KEY_set_private_key'
p1012
g2
((lp1013
tp1014
Rp1015
sS'asn1_do_adb'
p1016
g2
((lp1017
S'libcryptoopenssl-OpenSSL_1_0_0'
p1018
aS'libcryptoopenssl-OpenSSL_1_0_0d'
p1019
aS'libcryptoopenssl-OpenSSL_1_0_0e'
p1020
aS'libcryptoopenssl-OpenSSL_1_0_0f'
p1021
aS'libcryptoopenssl-OpenSSL_1_0_0a'
p1022
aS'libcryptoopenssl-OpenSSL_1_0_0b'
p1023
aS'libcryptoopenssl-OpenSSL_1_0_0c'
p1024
aS'libcryptoopenssl-OpenSSL_0_9_8t'
p1025
aS'libcryptoopenssl-OpenSSL_0_9_8u'
p1026
aS'libcryptoopenssl-OpenSSL_0_9_8v'
p1027
aS'libcryptoopenssl-OpenSSL_0_9_8w'
p1028
aS'libcryptoopenssl-OpenSSL_0_9_8p'
p1029
aS'libcryptoopenssl-OpenSSL_0_9_8q'
p1030
aS'libcryptoopenssl-OpenSSL_0_9_8r'
p1031
aS'libcryptoopenssl-OpenSSL_0_9_8s'
p1032
aS'libcryptoopenssl-OpenSSL_0_9_8x'
p1033
aS'libcryptoopenssl-OpenSSL_0_9_8y'
p1034
aS'libcryptoopenssl-OpenSSL_0_9_8d'
p1035
aS'libcryptoopenssl-OpenSSL_0_9_8e'
p1036
aS'libcryptoopenssl-OpenSSL_0_9_8f'
p1037
aS'libcryptoopenssl-OpenSSL_0_9_8g'
p1038
aS'libcryptoopenssl-OpenSSL_0_9_8a'
p1039
aS'libcryptoopenssl-OpenSSL_0_9_8b'
p1040
aS'libcryptoopenssl-OpenSSL_0_9_8c'
p1041
aS'libcryptoopenssl-OpenSSL_0_9_8l'
p1042
aS'libcryptoopenssl-OpenSSL_0_9_8m'
p1043
aS'libcryptoopenssl-OpenSSL_0_9_8n'
p1044
aS'libcryptoopenssl-OpenSSL_0_9_8o'
p1045
aS'libcryptoopenssl-OpenSSL_0_9_8h'
p1046
aS'libcryptoopenssl-OpenSSL_0_9_8i'
p1047
aS'libcryptoopenssl-OpenSSL_0_9_8j'
p1048
aS'libcryptoopenssl-OpenSSL_0_9_8k'
p1049
aS'libcryptoopenssl-OpenSSL_0_9_8'
p1050
atp1051
Rp1052
sS'EVP_CIPHER_CTX_cleanup'
p1053
g2
((lp1054
tp1055
Rp1056
sS'X509_LOOKUP_ctrl'
p1057
g2
((lp1058
S'libcryptoopenssl-OpenSSL_1_0_2'
p1059
aS'libcryptoopenssl-OpenSSL_1_0_1'
p1060
aS'libcryptoopenssl-OpenSSL_1_0_0'
p1061
aS'libcryptoopenssl-OpenSSL_1_0_0t'
p1062
aS'libcryptoopenssl-OpenSSL_1_0_0p'
p1063
aS'libcryptoopenssl-OpenSSL_1_0_0q'
p1064
aS'libcryptoopenssl-OpenSSL_1_0_0r'
p1065
aS'libcryptoopenssl-OpenSSL_1_0_0s'
p1066
aS'libcryptoopenssl-OpenSSL_1_0_0l'
p1067
aS'libcryptoopenssl-OpenSSL_1_0_0m'
p1068
aS'libcryptoopenssl-OpenSSL_1_0_0n'
p1069
aS'libcryptoopenssl-OpenSSL_1_0_0o'
p1070
aS'libcryptoopenssl-OpenSSL_1_0_0h'
p1071
aS'libcryptoopenssl-OpenSSL_1_0_0i'
p1072
aS'libcryptoopenssl-OpenSSL_1_0_0j'
p1073
aS'libcryptoopenssl-OpenSSL_1_0_0k'
p1074
aS'libcryptoopenssl-OpenSSL_1_0_0d'
p1075
aS'libcryptoopenssl-OpenSSL_1_0_0e'
p1076
aS'libcryptoopenssl-OpenSSL_1_0_0f'
p1077
aS'libcryptoopenssl-OpenSSL_1_0_0g'
p1078
aS'libcryptoopenssl-OpenSSL_1_0_0a'
p1079
aS'libcryptoopenssl-OpenSSL_1_0_0b'
p1080
aS'libcryptoopenssl-OpenSSL_1_0_0c'
p1081
aS'libcryptoopenssl-OpenSSL_0_9_8t'
p1082
aS'libcryptoopenssl-OpenSSL_0_9_8u'
p1083
aS'libcryptoopenssl-OpenSSL_0_9_8v'
p1084
aS'libcryptoopenssl-OpenSSL_0_9_8w'
p1085
aS'libcryptoopenssl-OpenSSL_0_9_8p'
p1086
aS'libcryptoopenssl-OpenSSL_0_9_8q'
p1087
aS'libcryptoopenssl-OpenSSL_0_9_8r'
p1088
aS'libcryptoopenssl-OpenSSL_0_9_8s'
p1089
aS'libcryptoopenssl-OpenSSL_0_9_8x'
p1090
aS'libcryptoopenssl-OpenSSL_0_9_8y'
p1091
aS'libcryptoopenssl-OpenSSL_0_9_8d'
p1092
aS'libcryptoopenssl-OpenSSL_0_9_8e'
p1093
aS'libcryptoopenssl-OpenSSL_0_9_8f'
p1094
aS'libcryptoopenssl-OpenSSL_0_9_8g'
p1095
aS'libcryptoopenssl-OpenSSL_0_9_8a'
p1096
aS'libcryptoopenssl-OpenSSL_0_9_8b'
p1097
aS'libcryptoopenssl-OpenSSL_0_9_8c'
p1098
aS'libcryptoopenssl-OpenSSL_0_9_8l'
p1099
aS'libcryptoopenssl-OpenSSL_0_9_8m'
p1100
aS'libcryptoopenssl-OpenSSL_0_9_8n'
p1101
aS'libcryptoopenssl-OpenSSL_0_9_8o'
p1102
aS'libcryptoopenssl-OpenSSL_0_9_8h'
p1103
aS'libcryptoopenssl-OpenSSL_0_9_8i'
p1104
aS'libcryptoopenssl-OpenSSL_0_9_8j'
p1105
aS'libcryptoopenssl-OpenSSL_0_9_8k'
p1106
aS'libcryptoopenssl-OpenSSL_1_0_1t'
p1107
aS'libcryptoopenssl-OpenSSL_1_0_1s'
p1108
aS'libcryptoopenssl-OpenSSL_1_0_1r'
p1109
aS'libcryptoopenssl-OpenSSL_1_0_1q'
p1110
aS'libcryptoopenssl-OpenSSL_1_0_1p'
p1111
aS'libcryptoopenssl-OpenSSL_1_0_1o'
p1112
aS'libcryptoopenssl-OpenSSL_1_0_1n'
p1113
aS'libcryptoopenssl-OpenSSL_1_0_1m'
p1114
aS'libcryptoopenssl-OpenSSL_1_0_1l'
p1115
aS'libcryptoopenssl-OpenSSL_1_0_1k'
p1116
aS'libcryptoopenssl-OpenSSL_1_0_1j'
p1117
aS'libcryptoopenssl-OpenSSL_1_0_1i'
p1118
aS'libcryptoopenssl-OpenSSL_1_0_1h'
p1119
aS'libcryptoopenssl-OpenSSL_1_0_1g'
p1120
aS'libcryptoopenssl-OpenSSL_1_0_1f'
p1121
aS'libcryptoopenssl-OpenSSL_1_0_1e'
p1122
aS'libcryptoopenssl-OpenSSL_1_0_1d'
p1123
aS'libcryptoopenssl-OpenSSL_1_0_1c'
p1124
aS'libcryptoopenssl-OpenSSL_1_0_1b'
p1125
aS'libcryptoopenssl-OpenSSL_1_0_1a'
p1126
aS'libcryptoopenssl-OpenSSL_1_1_0'
p1127
aS'libcryptoopenssl-OpenSSL_1_0_2q'
p1128
aS'libcryptoopenssl-OpenSSL_1_0_2f'
p1129
aS'libcryptoopenssl-OpenSSL_1_0_2g'
p1130
aS'libcryptoopenssl-OpenSSL_1_0_2d'
p1131
aS'libcryptoopenssl-OpenSSL_1_0_2e'
p1132
aS'libcryptoopenssl-OpenSSL_1_0_2b'
p1133
aS'libcryptoopenssl-OpenSSL_1_0_2c'
p1134
aS'libcryptoopenssl-OpenSSL_1_0_2a'
p1135
aS'libcryptoopenssl-OpenSSL_1_0_2n'
p1136
aS'libcryptoopenssl-OpenSSL_1_0_2o'
p1137
aS'libcryptoopenssl-OpenSSL_1_0_2l'
p1138
aS'libcryptoopenssl-OpenSSL_1_0_2m'
p1139
aS'libcryptoopenssl-OpenSSL_1_0_2j'
p1140
aS'libcryptoopenssl-OpenSSL_1_0_2k'
p1141
aS'libcryptoopenssl-OpenSSL_1_0_2h'
p1142
aS'libcryptoopenssl-OpenSSL_1_0_2i'
p1143
aS'libcryptoopenssl-OpenSSL_0_9_7m'
p1144
aS'libcryptoopenssl-OpenSSL_0_9_7l'
p1145
aS'libcryptoopenssl-OpenSSL_0_9_7i'
p1146
aS'libcryptoopenssl-OpenSSL_0_9_7h'
p1147
aS'libcryptoopenssl-OpenSSL_0_9_7k'
p1148
aS'libcryptoopenssl-OpenSSL_0_9_7j'
p1149
aS'libcryptoopenssl-OpenSSL_0_9_7e'
p1150
aS'libcryptoopenssl-OpenSSL_0_9_7d'
p1151
aS'libcryptoopenssl-OpenSSL_0_9_7g'
p1152
aS'libcryptoopenssl-OpenSSL_0_9_7f'
p1153
aS'libcryptoopenssl-OpenSSL_0_9_7a'
p1154
aS'libcryptoopenssl-OpenSSL_0_9_7c'
p1155
aS'libcryptoopenssl-OpenSSL_0_9_7b'
p1156
aS'libcryptoopenssl-OpenSSL_1_1_0g'
p1157
aS'libcryptoopenssl-OpenSSL_1_1_0f'
p1158
aS'libcryptoopenssl-OpenSSL_1_1_0e'
p1159
aS'libcryptoopenssl-OpenSSL_1_1_0d'
p1160
aS'libcryptoopenssl-OpenSSL_1_1_0c'
p1161
aS'libcryptoopenssl-OpenSSL_1_1_0b'
p1162
aS'libcryptoopenssl-OpenSSL_1_1_0a'
p1163
aS'libcryptoopenssl-OpenSSL_1_1_0h'
p1164
aS'libcryptoopenssl-OpenSSL_0_9_8'
p1165
aS'libcryptoopenssl-OpenSSL_0_9_7'
p1166
atp1167
Rp1168
sS'trust_1oid'
p1169
g2
((lp1170
S'libcryptoopenssl-OpenSSL_0_9_8t'
p1171
atp1172
Rp1173
sS'BUF_MEM_new'
p1174
g2
((lp1175
tp1176
Rp1177
sS'ASN1_d2i_bio'
p1178
g2
((lp1179
tp1180
Rp1181
sS'SHA_Update'
p1182
g2
((lp1183
S'libcryptoopenssl-OpenSSL_1_0_2e'
p1184
aS'libcryptoopenssl-OpenSSL_1_0_1j'
p1185
aS'libcryptoopenssl-OpenSSL_1_0_0n'
p1186
aS'libcryptoopenssl-OpenSSL_1_0_2q'
p1187
aS'libcryptoopenssl-OpenSSL_1_0_1'
p1188
aS'libcryptoopenssl-OpenSSL_1_0_0'
p1189
aS'libcryptoopenssl-OpenSSL_1_0_0l'
p1190
aS'libcryptoopenssl-OpenSSL_1_0_2b'
p1191
aS'libcryptoopenssl-OpenSSL_1_0_0m'
p1192
aS'libcryptoopenssl-OpenSSL_1_0_0t'
p1193
aS'libcryptoopenssl-OpenSSL_1_0_2i'
p1194
aS'libcryptoopenssl-OpenSSL_1_0_0p'
p1195
aS'libcryptoopenssl-OpenSSL_1_0_0q'
p1196
aS'libcryptoopenssl-OpenSSL_1_0_0r'
p1197
aS'libcryptoopenssl-OpenSSL_1_0_0s'
p1198
aS'libcryptoopenssl-OpenSSL_1_0_2f'
p1199
aS'libcryptoopenssl-OpenSSL_1_0_2g'
p1200
aS'libcryptoopenssl-OpenSSL_1_0_2d'
p1201
aS'libcryptoopenssl-OpenSSL_1_0_0o'
p1202
aS'libcryptoopenssl-OpenSSL_1_0_0h'
p1203
aS'libcryptoopenssl-OpenSSL_1_0_2c'
p1204
aS'libcryptoopenssl-OpenSSL_1_0_0j'
p1205
aS'libcryptoopenssl-OpenSSL_1_0_2a'
p1206
aS'libcryptoopenssl-OpenSSL_1_0_2n'
p1207
aS'libcryptoopenssl-OpenSSL_1_0_2o'
p1208
aS'libcryptoopenssl-OpenSSL_1_0_0f'
p1209
aS'libcryptoopenssl-OpenSSL_1_0_0g'
p1210
aS'libcryptoopenssl-OpenSSL_1_0_2j'
p1211
aS'libcryptoopenssl-OpenSSL_1_0_0a'
p1212
aS'libcryptoopenssl-OpenSSL_1_0_0b'
p1213
aS'libcryptoopenssl-OpenSSL_1_0_0c'
p1214
aS'libcryptoopenssl-OpenSSL_0_9_8t'
p1215
aS'libcryptoopenssl-OpenSSL_0_9_8u'
p1216
aS'libcryptoopenssl-OpenSSL_0_9_8v'
p1217
aS'libcryptoopenssl-OpenSSL_0_9_8w'
p1218
aS'libcryptoopenssl-OpenSSL_0_9_8p'
p1219
aS'libcryptoopenssl-OpenSSL_0_9_8q'
p1220
aS'libcryptoopenssl-OpenSSL_0_9_8r'
p1221
aS'libcryptoopenssl-OpenSSL_0_9_8s'
p1222
aS'libcryptoopenssl-OpenSSL_1_0_0k'
p1223
aS'libcryptoopenssl-OpenSSL_0_9_8x'
p1224
aS'libcryptoopenssl-OpenSSL_0_9_8y'
p1225
aS'libcryptoopenssl-OpenSSL_1_0_0d'
p1226
aS'libcryptoopenssl-OpenSSL_1_0_0e'
p1227
aS'libcryptoopenssl-OpenSSL_0_9_8m'
p1228
aS'libcryptoopenssl-OpenSSL_0_9_8n'
p1229
aS'libcryptoopenssl-OpenSSL_0_9_8o'
p1230
aS'libcryptoopenssl-OpenSSL_1_0_2'
p1231
aS'libcryptoopenssl-OpenSSL_1_0_2l'
p1232
aS'libcryptoopenssl-OpenSSL_1_0_2k'
p1233
aS'libcryptoopenssl-OpenSSL_1_0_0i'
p1234
aS'libcryptoopenssl-OpenSSL_1_0_2m'
p1235
aS'libcryptoopenssl-OpenSSL_1_0_1t'
p1236
aS'libcryptoopenssl-OpenSSL_1_0_1s'
p1237
aS'libcryptoopenssl-OpenSSL_1_0_1r'
p1238
aS'libcryptoopenssl-OpenSSL_1_0_1q'
p1239
aS'libcryptoopenssl-OpenSSL_1_0_1p'
p1240
aS'libcryptoopenssl-OpenSSL_1_0_1o'
p1241
aS'libcryptoopenssl-OpenSSL_1_0_1n'
p1242
aS'libcryptoopenssl-OpenSSL_1_0_1m'
p1243
aS'libcryptoopenssl-OpenSSL_1_0_1l'
p1244
aS'libcryptoopenssl-OpenSSL_1_0_1k'
p1245
aS'libcryptoopenssl-OpenSSL_1_0_2h'
p1246
aS'libcryptoopenssl-OpenSSL_1_0_1i'
p1247
aS'libcryptoopenssl-OpenSSL_1_0_1h'
p1248
aS'libcryptoopenssl-OpenSSL_1_0_1g'
p1249
aS'libcryptoopenssl-OpenSSL_1_0_1f'
p1250
aS'libcryptoopenssl-OpenSSL_1_0_1e'
p1251
aS'libcryptoopenssl-OpenSSL_1_0_1d'
p1252
aS'libcryptoopenssl-OpenSSL_1_0_1c'
p1253
aS'libcryptoopenssl-OpenSSL_1_0_1b'
p1254
aS'libcryptoopenssl-OpenSSL_1_0_1a'
p1255
atp1256
Rp1257
sS'X509_OBJECT_retrieve_match'
p1258
g2
((lp1259
S'libcryptoopenssl-OpenSSL_0_9_8t'
p1260
atp1261
Rp1262
sS'BN_RECP_CTX_free'
p1263
g2
((lp1264
tp1265
Rp1266
sS'OBJ_cmp'
p1267
g2
((lp1268
S'libcryptoopenssl-OpenSSL_0_9_8t'
p1269
atp1270
Rp1271
sS'gf2m_Madd'
p1272
g2
((lp1273
tp1274
Rp1275
sS'BN_gcd'
p1276
g2
((lp1277
tp1278
Rp1279
sS'EC_POINT_set_affine_coordinates_GF2m'
p1280
g2
((lp1281
tp1282
Rp1283
sS'AES_cfbr_encrypt_block'
p1284
g2
((lp1285
S'libcryptoopenssl-OpenSSL_0_9_8t'
p1286
aS'libcryptoopenssl-OpenSSL_0_9_8u'
p1287
aS'libcryptoopenssl-OpenSSL_0_9_8v'
p1288
aS'libcryptoopenssl-OpenSSL_0_9_8w'
p1289
aS'libcryptoopenssl-OpenSSL_0_9_8p'
p1290
aS'libcryptoopenssl-OpenSSL_0_9_8q'
p1291
aS'libcryptoopenssl-OpenSSL_0_9_8r'
p1292
aS'libcryptoopenssl-OpenSSL_0_9_8s'
p1293
aS'libcryptoopenssl-OpenSSL_0_9_8x'
p1294
aS'libcryptoopenssl-OpenSSL_0_9_8y'
p1295
aS'libcryptoopenssl-OpenSSL_0_9_8m'
p1296
aS'libcryptoopenssl-OpenSSL_0_9_8n'
p1297
aS'libcryptoopenssl-OpenSSL_0_9_8o'
p1298
atp1299
Rp1300
sS'EC_KEY_set_public_key'
p1301
g2
((lp1302
tp1303
Rp1304
sS'X509_OBJECT_retrieve_by_subject'
p1305
g2
((lp1306
S'libcryptoopenssl-OpenSSL_0_9_7m'
p1307
aS'libcryptoopenssl-OpenSSL_0_9_7l'
p1308
aS'libcryptoopenssl-OpenSSL_0_9_7i'
p1309
aS'libcryptoopenssl-OpenSSL_0_9_7h'
p1310
aS'libcryptoopenssl-OpenSSL_0_9_7k'
p1311
aS'libcryptoopenssl-OpenSSL_0_9_7j'
p1312
aS'libcryptoopenssl-OpenSSL_0_9_7e'
p1313
aS'libcryptoopenssl-OpenSSL_0_9_7g'
p1314
aS'libcryptoopenssl-OpenSSL_0_9_7f'
p1315
aS'libcryptoopenssl-OpenSSL_0_9_8d'
p1316
aS'libcryptoopenssl-OpenSSL_0_9_8e'
p1317
aS'libcryptoopenssl-OpenSSL_0_9_8f'
p1318
aS'libcryptoopenssl-OpenSSL_0_9_8g'
p1319
aS'libcryptoopenssl-OpenSSL_0_9_8a'
p1320
aS'libcryptoopenssl-OpenSSL_0_9_8b'
p1321
aS'libcryptoopenssl-OpenSSL_0_9_8c'
p1322
aS'libcryptoopenssl-OpenSSL_0_9_8l'
p1323
aS'libcryptoopenssl-OpenSSL_0_9_8m'
p1324
aS'libcryptoopenssl-OpenSSL_0_9_8n'
p1325
aS'libcryptoopenssl-OpenSSL_0_9_8o'
p1326
aS'libcryptoopenssl-OpenSSL_0_9_8h'
p1327
aS'libcryptoopenssl-OpenSSL_0_9_8i'
p1328
aS'libcryptoopenssl-OpenSSL_0_9_8j'
p1329
aS'libcryptoopenssl-OpenSSL_0_9_8k'
p1330
aS'libcryptoopenssl-OpenSSL_0_9_8'
p1331
atp1332
Rp1333
sS'OBJ_NAME_remove'
p1334
g2
((lp1335
S'libcryptoopenssl-OpenSSL_0_9_8t'
p1336
atp1337
Rp1338
sS'RC2_decrypt'
p1339
g2
((lp1340
S'libcryptoopenssl-OpenSSL_0_9_7m'
p1341
aS'libcryptoopenssl-OpenSSL_0_9_7l'
p1342
aS'libcryptoopenssl-OpenSSL_0_9_7i'
p1343
aS'libcryptoopenssl-OpenSSL_0_9_7h'
p1344
aS'libcryptoopenssl-OpenSSL_0_9_7k'
p1345
aS'libcryptoopenssl-OpenSSL_0_9_7j'
p1346
aS'libcryptoopenssl-OpenSSL_0_9_7e'
p1347
aS'libcryptoopenssl-OpenSSL_0_9_7d'
p1348
aS'libcryptoopenssl-OpenSSL_0_9_7g'
p1349
aS'libcryptoopenssl-OpenSSL_0_9_7f'
p1350
aS'libcryptoopenssl-OpenSSL_0_9_7a'
p1351
aS'libcryptoopenssl-OpenSSL_0_9_7c'
p1352
aS'libcryptoopenssl-OpenSSL_0_9_7b'
p1353
aS'libcryptoopenssl-OpenSSL_0_9_8t'
p1354
aS'libcryptoopenssl-OpenSSL_0_9_8u'
p1355
aS'libcryptoopenssl-OpenSSL_0_9_8v'
p1356
aS'libcryptoopenssl-OpenSSL_0_9_8w'
p1357
aS'libcryptoopenssl-OpenSSL_0_9_8p'
p1358
aS'libcryptoopenssl-OpenSSL_0_9_8q'
p1359
aS'libcryptoopenssl-OpenSSL_0_9_8r'
p1360
aS'libcryptoopenssl-OpenSSL_0_9_8s'
p1361
aS'libcryptoopenssl-OpenSSL_0_9_8x'
p1362
aS'libcryptoopenssl-OpenSSL_0_9_8y'
p1363
aS'libcryptoopenssl-OpenSSL_0_9_8d'
p1364
aS'libcryptoopenssl-OpenSSL_0_9_8e'
p1365
aS'libcryptoopenssl-OpenSSL_0_9_8f'
p1366
aS'libcryptoopenssl-OpenSSL_0_9_8g'
p1367
aS'libcryptoopenssl-OpenSSL_0_9_8a'
p1368
aS'libcryptoopenssl-OpenSSL_0_9_8b'
p1369
aS'libcryptoopenssl-OpenSSL_0_9_8c'
p1370
aS'libcryptoopenssl-OpenSSL_0_9_8l'
p1371
aS'libcryptoopenssl-OpenSSL_0_9_8m'
p1372
aS'libcryptoopenssl-OpenSSL_0_9_8n'
p1373
aS'libcryptoopenssl-OpenSSL_0_9_8o'
p1374
aS'libcryptoopenssl-OpenSSL_0_9_8h'
p1375
aS'libcryptoopenssl-OpenSSL_0_9_8i'
p1376
aS'libcryptoopenssl-OpenSSL_0_9_8j'
p1377
aS'libcryptoopenssl-OpenSSL_0_9_8k'
p1378
aS'libcryptoopenssl-OpenSSL_0_9_8'
p1379
aS'libcryptoopenssl-OpenSSL_0_9_7'
p1380
atp1381
Rp1382
sS'free_string'
p1383
g2
((lp1384
tp1385
Rp1386
sS'BN_lshift'
p1387
g2
((lp1388
tp1389
Rp1390
sS'ASN1_STRING_cmp'
p1391
g2
((lp1392
S'libcryptoopenssl-OpenSSL_0_9_8t'
p1393
atp1394
Rp1395
sS'tls1_setup_key_block'
p1396
g2
((lp1397
S'libsslopenssl-OpenSSL_0_9_8l'
p1398
aS'libsslopenssl-OpenSSL_0_9_8m'
p1399
aS'libsslopenssl-OpenSSL_0_9_8n'
p1400
aS'libsslopenssl-OpenSSL_0_9_8o'
p1401
aS'libsslopenssl-OpenSSL_0_9_8e'
p1402
aS'libsslopenssl-OpenSSL_0_9_8f'
p1403
aS'libsslopenssl-OpenSSL_0_9_8g'
p1404
aS'libsslopenssl-OpenSSL_0_9_8x'
p1405
aS'libsslopenssl-OpenSSL_0_9_8y'
p1406
aS'libsslopenssl-OpenSSL_0_9_8t'
p1407
aS'libsslopenssl-OpenSSL_0_9_8u'
p1408
aS'libsslopenssl-OpenSSL_0_9_8v'
p1409
aS'libsslopenssl-OpenSSL_0_9_8w'
p1410
aS'libsslopenssl-OpenSSL_0_9_8p'
p1411
aS'libsslopenssl-OpenSSL_0_9_8q'
p1412
aS'libsslopenssl-OpenSSL_0_9_8r'
p1413
aS'libsslopenssl-OpenSSL_0_9_8s'
p1414
atp1415
Rp1416
sS'OBJ_NAME_do_all'
p1417
g2
((lp1418
S'libcryptoopenssl-OpenSSL_0_9_7m'
p1419
aS'libcryptoopenssl-OpenSSL_0_9_7l'
p1420
aS'libcryptoopenssl-OpenSSL_0_9_7i'
p1421
aS'libcryptoopenssl-OpenSSL_0_9_7h'
p1422
aS'libcryptoopenssl-OpenSSL_0_9_7k'
p1423
aS'libcryptoopenssl-OpenSSL_0_9_7j'
p1424
aS'libcryptoopenssl-OpenSSL_0_9_7e'
p1425
aS'libcryptoopenssl-OpenSSL_0_9_7d'
p1426
aS'libcryptoopenssl-OpenSSL_0_9_7g'
p1427
aS'libcryptoopenssl-OpenSSL_0_9_7f'
p1428
aS'libcryptoopenssl-OpenSSL_0_9_7a'
p1429
aS'libcryptoopenssl-OpenSSL_0_9_7c'
p1430
aS'libcryptoopenssl-OpenSSL_0_9_7b'
p1431
aS'libcryptoopenssl-OpenSSL_0_9_8t'
p1432
aS'libcryptoopenssl-OpenSSL_0_9_8u'
p1433
aS'libcryptoopenssl-OpenSSL_0_9_8v'
p1434
aS'libcryptoopenssl-OpenSSL_0_9_8w'
p1435
aS'libcryptoopenssl-OpenSSL_0_9_8p'
p1436
aS'libcryptoopenssl-OpenSSL_0_9_8q'
p1437
aS'libcryptoopenssl-OpenSSL_0_9_8r'
p1438
aS'libcryptoopenssl-OpenSSL_0_9_8s'
p1439
aS'libcryptoopenssl-OpenSSL_0_9_8x'
p1440
aS'libcryptoopenssl-OpenSSL_0_9_8y'
p1441
aS'libcryptoopenssl-OpenSSL_0_9_8d'
p1442
aS'libcryptoopenssl-OpenSSL_0_9_8e'
p1443
aS'libcryptoopenssl-OpenSSL_0_9_8f'
p1444
aS'libcryptoopenssl-OpenSSL_0_9_8g'
p1445
aS'libcryptoopenssl-OpenSSL_0_9_8a'
p1446
aS'libcryptoopenssl-OpenSSL_0_9_8b'
p1447
aS'libcryptoopenssl-OpenSSL_0_9_8c'
p1448
aS'libcryptoopenssl-OpenSSL_0_9_8l'
p1449
aS'libcryptoopenssl-OpenSSL_0_9_8m'
p1450
aS'libcryptoopenssl-OpenSSL_0_9_8n'
p1451
aS'libcryptoopenssl-OpenSSL_0_9_8o'
p1452
aS'libcryptoopenssl-OpenSSL_0_9_8h'
p1453
aS'libcryptoopenssl-OpenSSL_0_9_8i'
p1454
aS'libcryptoopenssl-OpenSSL_0_9_8j'
p1455
aS'libcryptoopenssl-OpenSSL_0_9_8k'
p1456
aS'libcryptoopenssl-OpenSSL_0_9_8'
p1457
aS'libcryptoopenssl-OpenSSL_0_9_7'
p1458
atp1459
Rp1460
sS'write_string'
p1461
g2
((lp1462
S'libcryptoopenssl-OpenSSL_1_0_2'
p1463
aS'libcryptoopenssl-OpenSSL_1_0_1'
p1464
aS'libcryptoopenssl-OpenSSL_1_0_0'
p1465
aS'libcryptoopenssl-OpenSSL_1_0_0t'
p1466
aS'libcryptoopenssl-OpenSSL_1_0_0p'
p1467
aS'libcryptoopenssl-OpenSSL_1_0_0q'
p1468
aS'libcryptoopenssl-OpenSSL_1_0_0r'
p1469
aS'libcryptoopenssl-OpenSSL_1_0_0s'
p1470
aS'libcryptoopenssl-OpenSSL_1_0_0l'
p1471
aS'libcryptoopenssl-OpenSSL_1_0_0m'
p1472
aS'libcryptoopenssl-OpenSSL_1_0_0n'
p1473
aS'libcryptoopenssl-OpenSSL_1_0_0o'
p1474
aS'libcryptoopenssl-OpenSSL_1_0_0h'
p1475
aS'libcryptoopenssl-OpenSSL_1_0_0i'
p1476
aS'libcryptoopenssl-OpenSSL_1_0_0j'
p1477
aS'libcryptoopenssl-OpenSSL_1_0_0k'
p1478
aS'libcryptoopenssl-OpenSSL_1_0_0d'
p1479
aS'libcryptoopenssl-OpenSSL_1_0_0e'
p1480
aS'libcryptoopenssl-OpenSSL_1_0_0f'
p1481
aS'libcryptoopenssl-OpenSSL_1_0_0g'
p1482
aS'libcryptoopenssl-OpenSSL_1_0_0a'
p1483
aS'libcryptoopenssl-OpenSSL_1_0_0b'
p1484
aS'libcryptoopenssl-OpenSSL_1_0_0c'
p1485
aS'libcryptoopenssl-OpenSSL_0_9_8t'
p1486
aS'libcryptoopenssl-OpenSSL_0_9_8u'
p1487
aS'libcryptoopenssl-OpenSSL_0_9_8v'
p1488
aS'libcryptoopenssl-OpenSSL_0_9_8w'
p1489
aS'libcryptoopenssl-OpenSSL_0_9_8p'
p1490
aS'libcryptoopenssl-OpenSSL_0_9_8q'
p1491
aS'libcryptoopenssl-OpenSSL_0_9_8r'
p1492
aS'libcryptoopenssl-OpenSSL_0_9_8s'
p1493
aS'libcryptoopenssl-OpenSSL_0_9_8x'
p1494
aS'libcryptoopenssl-OpenSSL_0_9_8y'
p1495
aS'libcryptoopenssl-OpenSSL_0_9_8d'
p1496
aS'libcryptoopenssl-OpenSSL_0_9_8e'
p1497
aS'libcryptoopenssl-OpenSSL_0_9_8f'
p1498
aS'libcryptoopenssl-OpenSSL_0_9_8g'
p1499
aS'libcryptoopenssl-OpenSSL_0_9_8a'
p1500
aS'libcryptoopenssl-OpenSSL_0_9_8b'
p1501
aS'libcryptoopenssl-OpenSSL_0_9_8c'
p1502
aS'libcryptoopenssl-OpenSSL_0_9_8l'
p1503
aS'libcryptoopenssl-OpenSSL_0_9_8m'
p1504
aS'libcryptoopenssl-OpenSSL_0_9_8n'
p1505
aS'libcryptoopenssl-OpenSSL_0_9_8o'
p1506
aS'libcryptoopenssl-OpenSSL_0_9_8h'
p1507
aS'libcryptoopenssl-OpenSSL_0_9_8i'
p1508
aS'libcryptoopenssl-OpenSSL_0_9_8j'
p1509
aS'libcryptoopenssl-OpenSSL_0_9_8k'
p1510
aS'libcryptoopenssl-OpenSSL_1_0_1t'
p1511
aS'libcryptoopenssl-OpenSSL_1_0_1s'
p1512
aS'libcryptoopenssl-OpenSSL_1_0_1r'
p1513
aS'libcryptoopenssl-OpenSSL_1_0_1q'
p1514
aS'libcryptoopenssl-OpenSSL_1_0_1p'
p1515
aS'libcryptoopenssl-OpenSSL_1_0_1o'
p1516
aS'libcryptoopenssl-OpenSSL_1_0_1n'
p1517
aS'libcryptoopenssl-OpenSSL_1_0_1m'
p1518
aS'libcryptoopenssl-OpenSSL_1_0_1l'
p1519
aS'libcryptoopenssl-OpenSSL_1_0_1k'
p1520
aS'libcryptoopenssl-OpenSSL_1_0_1j'
p1521
aS'libcryptoopenssl-OpenSSL_1_0_1i'
p1522
aS'libcryptoopenssl-OpenSSL_1_0_1h'
p1523
aS'libcryptoopenssl-OpenSSL_1_0_1g'
p1524
aS'libcryptoopenssl-OpenSSL_1_0_1f'
p1525
aS'libcryptoopenssl-OpenSSL_1_0_1e'
p1526
aS'libcryptoopenssl-OpenSSL_1_0_1d'
p1527
aS'libcryptoopenssl-OpenSSL_1_0_1c'
p1528
aS'libcryptoopenssl-OpenSSL_1_0_1b'
p1529
aS'libcryptoopenssl-OpenSSL_1_0_1a'
p1530
aS'libcryptoopenssl-OpenSSL_1_1_0'
p1531
aS'libcryptoopenssl-OpenSSL_1_0_2q'
p1532
aS'libcryptoopenssl-OpenSSL_1_0_2f'
p1533
aS'libcryptoopenssl-OpenSSL_1_0_2g'
p1534
aS'libcryptoopenssl-OpenSSL_1_0_2d'
p1535
aS'libcryptoopenssl-OpenSSL_1_0_2e'
p1536
aS'libcryptoopenssl-OpenSSL_1_0_2b'
p1537
aS'libcryptoopenssl-OpenSSL_1_0_2c'
p1538
aS'libcryptoopenssl-OpenSSL_1_0_2a'
p1539
aS'libcryptoopenssl-OpenSSL_1_0_2n'
p1540
aS'libcryptoopenssl-OpenSSL_1_0_2o'
p1541
aS'libcryptoopenssl-OpenSSL_1_0_2l'
p1542
aS'libcryptoopenssl-OpenSSL_1_0_2m'
p1543
aS'libcryptoopenssl-OpenSSL_1_0_2j'
p1544
aS'libcryptoopenssl-OpenSSL_1_0_2k'
p1545
aS'libcryptoopenssl-OpenSSL_1_0_2h'
p1546
aS'libcryptoopenssl-OpenSSL_1_0_2i'
p1547
aS'libcryptoopenssl-OpenSSL_0_9_7m'
p1548
aS'libcryptoopenssl-OpenSSL_0_9_7l'
p1549
aS'libcryptoopenssl-OpenSSL_0_9_7i'
p1550
aS'libcryptoopenssl-OpenSSL_0_9_7h'
p1551
aS'libcryptoopenssl-OpenSSL_0_9_7k'
p1552
aS'libcryptoopenssl-OpenSSL_0_9_7j'
p1553
aS'libcryptoopenssl-OpenSSL_0_9_7e'
p1554
aS'libcryptoopenssl-OpenSSL_0_9_7d'
p1555
aS'libcryptoopenssl-OpenSSL_0_9_7g'
p1556
aS'libcryptoopenssl-OpenSSL_0_9_7f'
p1557
aS'libcryptoopenssl-OpenSSL_0_9_7a'
p1558
aS'libcryptoopenssl-OpenSSL_0_9_7c'
p1559
aS'libcryptoopenssl-OpenSSL_0_9_7b'
p1560
aS'libcryptoopenssl-OpenSSL_0_9_8'
p1561
aS'libcryptoopenssl-OpenSSL_0_9_7'
p1562
atp1563
Rp1564
sS'ASN1_INTEGER_cmp'
p1565
g2
((lp1566
S'libcryptoopenssl-OpenSSL_0_9_8t'
p1567
atp1568
Rp1569
sS'X509_check_issued'
p1570
g2
((lp1571
S'libcryptoopenssl-OpenSSL_0_9_8t'
p1572
atp1573
Rp1574
sS'obj_name_hash'
p1575
g2
((lp1576
S'libcryptoopenssl-OpenSSL_0_9_8t'
p1577
atp1578
Rp1579
sS'cast5_ecb_cipher'
p1580
g2
((lp1581
S'libcryptoopenssl-OpenSSL_0_9_7m'
p1582
aS'libcryptoopenssl-OpenSSL_0_9_7l'
p1583
aS'libcryptoopenssl-OpenSSL_0_9_7i'
p1584
aS'libcryptoopenssl-OpenSSL_0_9_7h'
p1585
aS'libcryptoopenssl-OpenSSL_0_9_7k'
p1586
aS'libcryptoopenssl-OpenSSL_0_9_7j'
p1587
aS'libcryptoopenssl-OpenSSL_0_9_7e'
p1588
aS'libcryptoopenssl-OpenSSL_0_9_7d'
p1589
aS'libcryptoopenssl-OpenSSL_0_9_7g'
p1590
aS'libcryptoopenssl-OpenSSL_0_9_7f'
p1591
aS'libcryptoopenssl-OpenSSL_0_9_7a'
p1592
aS'libcryptoopenssl-OpenSSL_0_9_7c'
p1593
aS'libcryptoopenssl-OpenSSL_0_9_7b'
p1594
aS'libcryptoopenssl-OpenSSL_0_9_8t'
p1595
aS'libcryptoopenssl-OpenSSL_0_9_8u'
p1596
aS'libcryptoopenssl-OpenSSL_0_9_8v'
p1597
aS'libcryptoopenssl-OpenSSL_0_9_8w'
p1598
aS'libcryptoopenssl-OpenSSL_0_9_8p'
p1599
aS'libcryptoopenssl-OpenSSL_0_9_8q'
p1600
aS'libcryptoopenssl-OpenSSL_0_9_8r'
p1601
aS'libcryptoopenssl-OpenSSL_0_9_8s'
p1602
aS'libcryptoopenssl-OpenSSL_0_9_8x'
p1603
aS'libcryptoopenssl-OpenSSL_0_9_8y'
p1604
aS'libcryptoopenssl-OpenSSL_0_9_8d'
p1605
aS'libcryptoopenssl-OpenSSL_0_9_8e'
p1606
aS'libcryptoopenssl-OpenSSL_0_9_8f'
p1607
aS'libcryptoopenssl-OpenSSL_0_9_8g'
p1608
aS'libcryptoopenssl-OpenSSL_0_9_8a'
p1609
aS'libcryptoopenssl-OpenSSL_0_9_8b'
p1610
aS'libcryptoopenssl-OpenSSL_0_9_8c'
p1611
aS'libcryptoopenssl-OpenSSL_0_9_8l'
p1612
aS'libcryptoopenssl-OpenSSL_0_9_8m'
p1613
aS'libcryptoopenssl-OpenSSL_0_9_8n'
p1614
aS'libcryptoopenssl-OpenSSL_0_9_8o'
p1615
aS'libcryptoopenssl-OpenSSL_0_9_8h'
p1616
aS'libcryptoopenssl-OpenSSL_0_9_8i'
p1617
aS'libcryptoopenssl-OpenSSL_0_9_8j'
p1618
aS'libcryptoopenssl-OpenSSL_0_9_8k'
p1619
aS'libcryptoopenssl-OpenSSL_0_9_8'
p1620
aS'libcryptoopenssl-OpenSSL_0_9_7'
p1621
atp1622
Rp1623
sS'EVP_PKEY_size'
p1624
g2
((lp1625
S'libcryptoopenssl-OpenSSL_0_9_8t'
p1626
aS'libcryptoopenssl-OpenSSL_0_9_8u'
p1627
aS'libcryptoopenssl-OpenSSL_0_9_8v'
p1628
aS'libcryptoopenssl-OpenSSL_0_9_8w'
p1629
aS'libcryptoopenssl-OpenSSL_0_9_8p'
p1630
aS'libcryptoopenssl-OpenSSL_0_9_8q'
p1631
aS'libcryptoopenssl-OpenSSL_0_9_8r'
p1632
aS'libcryptoopenssl-OpenSSL_0_9_8s'
p1633
aS'libcryptoopenssl-OpenSSL_0_9_8x'
p1634
aS'libcryptoopenssl-OpenSSL_0_9_8y'
p1635
aS'libcryptoopenssl-OpenSSL_0_9_8e'
p1636
aS'libcryptoopenssl-OpenSSL_0_9_8f'
p1637
aS'libcryptoopenssl-OpenSSL_0_9_8g'
p1638
aS'libcryptoopenssl-OpenSSL_0_9_8l'
p1639
aS'libcryptoopenssl-OpenSSL_0_9_8m'
p1640
aS'libcryptoopenssl-OpenSSL_0_9_8n'
p1641
aS'libcryptoopenssl-OpenSSL_0_9_8o'
p1642
aS'libcryptoopenssl-OpenSSL_0_9_8h'
p1643
aS'libcryptoopenssl-OpenSSL_0_9_8i'
p1644
aS'libcryptoopenssl-OpenSSL_0_9_8j'
p1645
aS'libcryptoopenssl-OpenSSL_0_9_8k'
p1646
atp1647
Rp1648
sS'gf2m_Mdouble'
p1649
g2
((lp1650
tp1651
Rp1652
sS'RSA_eay_finish'
p1653
g2
((lp1654
tp1655
Rp1656
sS'OCSP_single_get0_status'
p1657
g2
((lp1658
S'libcryptoopenssl-OpenSSL_1_0_2e'
p1659
aS'libcryptoopenssl-OpenSSL_1_0_1j'
p1660
aS'libcryptoopenssl-OpenSSL_1_0_0e'
p1661
aS'libcryptoopenssl-OpenSSL_1_0_0n'
p1662
aS'libcryptoopenssl-OpenSSL_1_0_2q'
p1663
aS'libcryptoopenssl-OpenSSL_1_0_1'
p1664
aS'libcryptoopenssl-OpenSSL_1_0_0'
p1665
aS'libcryptoopenssl-OpenSSL_1_0_0l'
p1666
aS'libcryptoopenssl-OpenSSL_1_0_2b'
p1667
aS'libcryptoopenssl-OpenSSL_1_0_0m'
p1668
aS'libcryptoopenssl-OpenSSL_0_9_8e'
p1669
aS'libcryptoopenssl-OpenSSL_1_0_0t'
p1670
aS'libcryptoopenssl-OpenSSL_1_0_2i'
p1671
aS'libcryptoopenssl-OpenSSL_1_0_0p'
p1672
aS'libcryptoopenssl-OpenSSL_1_0_0q'
p1673
aS'libcryptoopenssl-OpenSSL_1_0_0r'
p1674
aS'libcryptoopenssl-OpenSSL_1_0_0s'
p1675
aS'libcryptoopenssl-OpenSSL_1_0_2f'
p1676
aS'libcryptoopenssl-OpenSSL_1_0_2g'
p1677
aS'libcryptoopenssl-OpenSSL_1_0_2d'
p1678
aS'libcryptoopenssl-OpenSSL_1_0_0o'
p1679
aS'libcryptoopenssl-OpenSSL_1_0_0h'
p1680
aS'libcryptoopenssl-OpenSSL_1_0_2c'
p1681
aS'libcryptoopenssl-OpenSSL_1_0_0j'
p1682
aS'libcryptoopenssl-OpenSSL_1_0_2a'
p1683
aS'libcryptoopenssl-OpenSSL_1_0_2n'
p1684
aS'libcryptoopenssl-OpenSSL_1_0_2o'
p1685
aS'libcryptoopenssl-OpenSSL_1_0_0f'
p1686
aS'libcryptoopenssl-OpenSSL_1_0_0g'
p1687
aS'libcryptoopenssl-OpenSSL_1_0_2j'
p1688
aS'libcryptoopenssl-OpenSSL_1_0_0a'
p1689
aS'libcryptoopenssl-OpenSSL_1_0_0b'
p1690
aS'libcryptoopenssl-OpenSSL_1_0_0c'
p1691
aS'libcryptoopenssl-OpenSSL_0_9_8t'
p1692
aS'libcryptoopenssl-OpenSSL_0_9_8u'
p1693
aS'libcryptoopenssl-OpenSSL_0_9_8v'
p1694
aS'libcryptoopenssl-OpenSSL_0_9_8w'
p1695
aS'libcryptoopenssl-OpenSSL_0_9_8p'
p1696
aS'libcryptoopenssl-OpenSSL_0_9_8q'
p1697
aS'libcryptoopenssl-OpenSSL_0_9_8r'
p1698
aS'libcryptoopenssl-OpenSSL_0_9_8s'
p1699
aS'libcryptoopenssl-OpenSSL_1_0_0k'
p1700
aS'libcryptoopenssl-OpenSSL_0_9_8x'
p1701
aS'libcryptoopenssl-OpenSSL_0_9_8y'
p1702
aS'libcryptoopenssl-OpenSSL_0_9_8d'
p1703
aS'libcryptoopenssl-OpenSSL_1_0_0d'
p1704
aS'libcryptoopenssl-OpenSSL_0_9_8f'
p1705
aS'libcryptoopenssl-OpenSSL_0_9_8g'
p1706
aS'libcryptoopenssl-OpenSSL_1_0_2l'
p1707
aS'libcryptoopenssl-OpenSSL_0_9_8a'
p1708
aS'libcryptoopenssl-OpenSSL_0_9_8b'
p1709
aS'libcryptoopenssl-OpenSSL_0_9_8c'
p1710
aS'libcryptoopenssl-OpenSSL_0_9_8l'
p1711
aS'libcryptoopenssl-OpenSSL_0_9_8m'
p1712
aS'libcryptoopenssl-OpenSSL_0_9_8n'
p1713
aS'libcryptoopenssl-OpenSSL_0_9_8o'
p1714
aS'libcryptoopenssl-OpenSSL_0_9_8h'
p1715
aS'libcryptoopenssl-OpenSSL_0_9_8i'
p1716
aS'libcryptoopenssl-OpenSSL_0_9_8j'
p1717
aS'libcryptoopenssl-OpenSSL_0_9_8k'
p1718
aS'libcryptoopenssl-OpenSSL_1_0_2k'
p1719
aS'libcryptoopenssl-OpenSSL_1_0_0i'
p1720
aS'libcryptoopenssl-OpenSSL_1_0_2m'
p1721
aS'libcryptoopenssl-OpenSSL_1_0_2'
p1722
aS'libcryptoopenssl-OpenSSL_0_9_8'
p1723
aS'libcryptoopenssl-OpenSSL_1_0_1t'
p1724
aS'libcryptoopenssl-OpenSSL_1_0_1s'
p1725
aS'libcryptoopenssl-OpenSSL_1_0_1r'
p1726
aS'libcryptoopenssl-OpenSSL_1_0_1q'
p1727
aS'libcryptoopenssl-OpenSSL_1_0_1p'
p1728
aS'libcryptoopenssl-OpenSSL_1_0_1o'
p1729
aS'libcryptoopenssl-OpenSSL_1_0_1n'
p1730
aS'libcryptoopenssl-OpenSSL_1_0_1m'
p1731
aS'libcryptoopenssl-OpenSSL_1_0_1l'
p1732
aS'libcryptoopenssl-OpenSSL_1_0_1k'
p1733
aS'libcryptoopenssl-OpenSSL_1_0_2h'
p1734
aS'libcryptoopenssl-OpenSSL_1_0_1i'
p1735
aS'libcryptoopenssl-OpenSSL_1_0_1h'
p1736
aS'libcryptoopenssl-OpenSSL_1_0_1g'
p1737
aS'libcryptoopenssl-OpenSSL_1_0_1f'
p1738
aS'libcryptoopenssl-OpenSSL_1_0_1e'
p1739
aS'libcryptoopenssl-OpenSSL_1_0_1d'
p1740
aS'libcryptoopenssl-OpenSSL_1_0_1c'
p1741
aS'libcryptoopenssl-OpenSSL_1_0_1b'
p1742
aS'libcryptoopenssl-OpenSSL_1_0_1a'
p1743
atp1744
Rp1745
sS'ssleay_rand_pseudo_bytes'
p1746
g2
((lp1747
S'libcryptoopenssl-OpenSSL_0_9_7m'
p1748
aS'libcryptoopenssl-OpenSSL_0_9_7l'
p1749
aS'libcryptoopenssl-OpenSSL_0_9_7i'
p1750
aS'libcryptoopenssl-OpenSSL_0_9_7h'
p1751
aS'libcryptoopenssl-OpenSSL_0_9_7k'
p1752
aS'libcryptoopenssl-OpenSSL_0_9_7j'
p1753
aS'libcryptoopenssl-OpenSSL_0_9_7e'
p1754
aS'libcryptoopenssl-OpenSSL_0_9_7d'
p1755
aS'libcryptoopenssl-OpenSSL_0_9_7g'
p1756
aS'libcryptoopenssl-OpenSSL_0_9_7f'
p1757
aS'libcryptoopenssl-OpenSSL_0_9_7a'
p1758
aS'libcryptoopenssl-OpenSSL_0_9_7c'
p1759
aS'libcryptoopenssl-OpenSSL_0_9_7b'
p1760
aS'libcryptoopenssl-OpenSSL_1_0_0t'
p1761
aS'libcryptoopenssl-OpenSSL_1_0_0p'
p1762
aS'libcryptoopenssl-OpenSSL_1_0_0q'
p1763
aS'libcryptoopenssl-OpenSSL_1_0_0r'
p1764
aS'libcryptoopenssl-OpenSSL_1_0_0s'
p1765
aS'libcryptoopenssl-OpenSSL_1_0_0l'
p1766
aS'libcryptoopenssl-OpenSSL_1_0_0m'
p1767
aS'libcryptoopenssl-OpenSSL_1_0_0n'
p1768
aS'libcryptoopenssl-OpenSSL_1_0_0o'
p1769
aS'libcryptoopenssl-OpenSSL_1_0_0h'
p1770
aS'libcryptoopenssl-OpenSSL_1_0_0i'
p1771
aS'libcryptoopenssl-OpenSSL_1_0_0j'
p1772
aS'libcryptoopenssl-OpenSSL_1_0_0k'
p1773
aS'libcryptoopenssl-OpenSSL_1_0_0d'
p1774
aS'libcryptoopenssl-OpenSSL_1_0_0e'
p1775
aS'libcryptoopenssl-OpenSSL_1_0_0f'
p1776
aS'libcryptoopenssl-OpenSSL_1_0_0g'
p1777
aS'libcryptoopenssl-OpenSSL_1_0_0a'
p1778
aS'libcryptoopenssl-OpenSSL_1_0_0b'
p1779
aS'libcryptoopenssl-OpenSSL_1_0_0c'
p1780
aS'libcryptoopenssl-OpenSSL_0_9_8t'
p1781
aS'libcryptoopenssl-OpenSSL_0_9_8u'
p1782
aS'libcryptoopenssl-OpenSSL_0_9_8v'
p1783
aS'libcryptoopenssl-OpenSSL_0_9_8w'
p1784
aS'libcryptoopenssl-OpenSSL_0_9_8p'
p1785
aS'libcryptoopenssl-OpenSSL_0_9_8q'
p1786
aS'libcryptoopenssl-OpenSSL_0_9_8r'
p1787
aS'libcryptoopenssl-OpenSSL_0_9_8s'
p1788
aS'libcryptoopenssl-OpenSSL_0_9_8x'
p1789
aS'libcryptoopenssl-OpenSSL_0_9_8y'
p1790
aS'libcryptoopenssl-OpenSSL_0_9_8d'
p1791
aS'libcryptoopenssl-OpenSSL_0_9_8e'
p1792
aS'libcryptoopenssl-OpenSSL_0_9_8f'
p1793
aS'libcryptoopenssl-OpenSSL_0_9_8g'
p1794
aS'libcryptoopenssl-OpenSSL_0_9_8a'
p1795
aS'libcryptoopenssl-OpenSSL_0_9_8b'
p1796
aS'libcryptoopenssl-OpenSSL_0_9_8c'
p1797
aS'libcryptoopenssl-OpenSSL_0_9_8l'
p1798
aS'libcryptoopenssl-OpenSSL_0_9_8m'
p1799
aS'libcryptoopenssl-OpenSSL_0_9_8n'
p1800
aS'libcryptoopenssl-OpenSSL_0_9_8o'
p1801
aS'libcryptoopenssl-OpenSSL_0_9_8h'
p1802
aS'libcryptoopenssl-OpenSSL_0_9_8i'
p1803
aS'libcryptoopenssl-OpenSSL_0_9_8j'
p1804
aS'libcryptoopenssl-OpenSSL_0_9_8k'
p1805
aS'libcryptoopenssl-OpenSSL_1_0_0'
p1806
aS'libcryptoopenssl-OpenSSL_0_9_8'
p1807
aS'libcryptoopenssl-OpenSSL_0_9_7'
p1808
atp1809
Rp1810
sS'ec_GF2m_simple_is_on_curve'
p1811
g2
((lp1812
tp1813
Rp1814
sS'X509_get0_pubkey_bitstr'
p1815
g2
((lp1816
S'libcryptoopenssl-OpenSSL_1_0_2e'
p1817
aS'libcryptoopenssl-OpenSSL_1_0_1j'
p1818
aS'libcryptoopenssl-OpenSSL_1_0_0e'
p1819
aS'libcryptoopenssl-OpenSSL_1_0_0n'
p1820
aS'libcryptoopenssl-OpenSSL_1_0_2q'
p1821
aS'libcryptoopenssl-OpenSSL_1_0_1'
p1822
aS'libcryptoopenssl-OpenSSL_1_0_0'
p1823
aS'libcryptoopenssl-OpenSSL_1_0_0l'
p1824
aS'libcryptoopenssl-OpenSSL_1_0_2b'
p1825
aS'libcryptoopenssl-OpenSSL_1_0_0m'
p1826
aS'libcryptoopenssl-OpenSSL_0_9_8e'
p1827
aS'libcryptoopenssl-OpenSSL_1_0_0t'
p1828
aS'libcryptoopenssl-OpenSSL_1_0_2i'
p1829
aS'libcryptoopenssl-OpenSSL_1_0_0p'
p1830
aS'libcryptoopenssl-OpenSSL_1_0_0q'
p1831
aS'libcryptoopenssl-OpenSSL_1_0_0r'
p1832
aS'libcryptoopenssl-OpenSSL_1_0_0s'
p1833
aS'libcryptoopenssl-OpenSSL_1_0_2f'
p1834
aS'libcryptoopenssl-OpenSSL_1_0_2g'
p1835
aS'libcryptoopenssl-OpenSSL_1_0_2d'
p1836
aS'libcryptoopenssl-OpenSSL_1_0_0o'
p1837
aS'libcryptoopenssl-OpenSSL_1_0_0h'
p1838
aS'libcryptoopenssl-OpenSSL_1_0_2c'
p1839
aS'libcryptoopenssl-OpenSSL_1_0_0j'
p1840
aS'libcryptoopenssl-OpenSSL_1_0_2a'
p1841
aS'libcryptoopenssl-OpenSSL_1_0_2n'
p1842
aS'libcryptoopenssl-OpenSSL_1_0_2o'
p1843
aS'libcryptoopenssl-OpenSSL_1_0_0f'
p1844
aS'libcryptoopenssl-OpenSSL_1_0_0g'
p1845
aS'libcryptoopenssl-OpenSSL_1_0_2j'
p1846
aS'libcryptoopenssl-OpenSSL_1_0_0a'
p1847
aS'libcryptoopenssl-OpenSSL_1_0_0b'
p1848
aS'libcryptoopenssl-OpenSSL_1_0_0c'
p1849
aS'libcryptoopenssl-OpenSSL_0_9_8t'
p1850
aS'libcryptoopenssl-OpenSSL_0_9_8u'
p1851
aS'libcryptoopenssl-OpenSSL_0_9_8v'
p1852
aS'libcryptoopenssl-OpenSSL_0_9_8w'
p1853
aS'libcryptoopenssl-OpenSSL_0_9_8p'
p1854
aS'libcryptoopenssl-OpenSSL_0_9_8q'
p1855
aS'libcryptoopenssl-OpenSSL_0_9_8r'
p1856
aS'libcryptoopenssl-OpenSSL_0_9_8s'
p1857
aS'libcryptoopenssl-OpenSSL_1_0_0k'
p1858
aS'libcryptoopenssl-OpenSSL_0_9_8x'
p1859
aS'libcryptoopenssl-OpenSSL_0_9_8y'
p1860
aS'libcryptoopenssl-OpenSSL_0_9_8d'
p1861
aS'libcryptoopenssl-OpenSSL_1_0_0d'
p1862
aS'libcryptoopenssl-OpenSSL_0_9_8f'
p1863
aS'libcryptoopenssl-OpenSSL_0_9_8g'
p1864
aS'libcryptoopenssl-OpenSSL_1_0_2l'
p1865
aS'libcryptoopenssl-OpenSSL_0_9_8a'
p1866
aS'libcryptoopenssl-OpenSSL_0_9_8b'
p1867
aS'libcryptoopenssl-OpenSSL_0_9_8c'
p1868
aS'libcryptoopenssl-OpenSSL_0_9_8l'
p1869
aS'libcryptoopenssl-OpenSSL_0_9_8m'
p1870
aS'libcryptoopenssl-OpenSSL_0_9_8n'
p1871
aS'libcryptoopenssl-OpenSSL_0_9_8o'
p1872
aS'libcryptoopenssl-OpenSSL_0_9_8h'
p1873
aS'libcryptoopenssl-OpenSSL_0_9_8i'
p1874
aS'libcryptoopenssl-OpenSSL_0_9_8j'
p1875
aS'libcryptoopenssl-OpenSSL_0_9_8k'
p1876
aS'libcryptoopenssl-OpenSSL_1_0_2k'
p1877
aS'libcryptoopenssl-OpenSSL_1_0_0i'
p1878
aS'libcryptoopenssl-OpenSSL_1_0_2m'
p1879
aS'libcryptoopenssl-OpenSSL_1_0_2'
p1880
aS'libcryptoopenssl-OpenSSL_0_9_8'
p1881
aS'libcryptoopenssl-OpenSSL_1_0_1t'
p1882
aS'libcryptoopenssl-OpenSSL_1_0_1s'
p1883
aS'libcryptoopenssl-OpenSSL_1_0_1r'
p1884
aS'libcryptoopenssl-OpenSSL_1_0_1q'
p1885
aS'libcryptoopenssl-OpenSSL_1_0_1p'
p1886
aS'libcryptoopenssl-OpenSSL_1_0_1o'
p1887
aS'libcryptoopenssl-OpenSSL_1_0_1n'
p1888
aS'libcryptoopenssl-OpenSSL_1_0_1m'
p1889
aS'libcryptoopenssl-OpenSSL_1_0_1l'
p1890
aS'libcryptoopenssl-OpenSSL_1_0_1k'
p1891
aS'libcryptoopenssl-OpenSSL_1_0_2h'
p1892
aS'libcryptoopenssl-OpenSSL_1_0_1i'
p1893
aS'libcryptoopenssl-OpenSSL_1_0_1h'
p1894
aS'libcryptoopenssl-OpenSSL_1_0_1g'
p1895
aS'libcryptoopenssl-OpenSSL_1_0_1f'
p1896
aS'libcryptoopenssl-OpenSSL_1_0_1e'
p1897
aS'libcryptoopenssl-OpenSSL_1_0_1d'
p1898
aS'libcryptoopenssl-OpenSSL_1_0_1c'
p1899
aS'libcryptoopenssl-OpenSSL_1_0_1b'
p1900
aS'libcryptoopenssl-OpenSSL_1_0_1a'
p1901
atp1902
Rp1903
sS'EC_POINT_get_affine_coordinates_GF2m'
p1904
g2
((lp1905
tp1906
Rp1907
sS'BN_mod_sqr'
p1908
g2
((lp1909
tp1910
Rp1911
sS'X509V3_EXT_add_nconf_sk'
p1912
g2
((lp1913
S'libcryptoopenssl-OpenSSL_0_9_8t'
p1914
atp1915
Rp1916
sS'X509_INFO_free'
p1917
g2
((lp1918
tp1919
Rp1920
sS'EVP_CIPHER_CTX_free'
p1921
g2
((lp1922
tp1923
Rp1924
sS'X509_STORE_load_locations'
p1925
g2
((lp1926
S'libcryptoopenssl-OpenSSL_1_0_2'
p1927
aS'libcryptoopenssl-OpenSSL_1_0_1'
p1928
aS'libcryptoopenssl-OpenSSL_1_0_0'
p1929
aS'libcryptoopenssl-OpenSSL_1_0_0t'
p1930
aS'libcryptoopenssl-OpenSSL_1_0_0p'
p1931
aS'libcryptoopenssl-OpenSSL_1_0_0q'
p1932
aS'libcryptoopenssl-OpenSSL_1_0_0r'
p1933
aS'libcryptoopenssl-OpenSSL_1_0_0s'
p1934
aS'libcryptoopenssl-OpenSSL_1_0_0l'
p1935
aS'libcryptoopenssl-OpenSSL_1_0_0m'
p1936
aS'libcryptoopenssl-OpenSSL_1_0_0n'
p1937
aS'libcryptoopenssl-OpenSSL_1_0_0o'
p1938
aS'libcryptoopenssl-OpenSSL_1_0_0h'
p1939
aS'libcryptoopenssl-OpenSSL_1_0_0i'
p1940
aS'libcryptoopenssl-OpenSSL_1_0_0j'
p1941
aS'libcryptoopenssl-OpenSSL_1_0_0k'
p1942
aS'libcryptoopenssl-OpenSSL_1_0_0d'
p1943
aS'libcryptoopenssl-OpenSSL_1_0_0e'
p1944
aS'libcryptoopenssl-OpenSSL_1_0_0f'
p1945
aS'libcryptoopenssl-OpenSSL_1_0_0g'
p1946
aS'libcryptoopenssl-OpenSSL_1_0_0a'
p1947
aS'libcryptoopenssl-OpenSSL_1_0_0b'
p1948
aS'libcryptoopenssl-OpenSSL_1_0_0c'
p1949
aS'libcryptoopenssl-OpenSSL_0_9_8t'
p1950
aS'libcryptoopenssl-OpenSSL_0_9_8u'
p1951
aS'libcryptoopenssl-OpenSSL_0_9_8v'
p1952
aS'libcryptoopenssl-OpenSSL_0_9_8w'
p1953
aS'libcryptoopenssl-OpenSSL_0_9_8p'
p1954
aS'libcryptoopenssl-OpenSSL_0_9_8q'
p1955
aS'libcryptoopenssl-OpenSSL_0_9_8r'
p1956
aS'libcryptoopenssl-OpenSSL_0_9_8s'
p1957
aS'libcryptoopenssl-OpenSSL_0_9_8x'
p1958
aS'libcryptoopenssl-OpenSSL_0_9_8y'
p1959
aS'libcryptoopenssl-OpenSSL_0_9_8d'
p1960
aS'libcryptoopenssl-OpenSSL_0_9_8e'
p1961
aS'libcryptoopenssl-OpenSSL_0_9_8f'
p1962
aS'libcryptoopenssl-OpenSSL_0_9_8g'
p1963
aS'libcryptoopenssl-OpenSSL_0_9_8a'
p1964
aS'libcryptoopenssl-OpenSSL_0_9_8b'
p1965
aS'libcryptoopenssl-OpenSSL_0_9_8c'
p1966
aS'libcryptoopenssl-OpenSSL_0_9_8l'
p1967
aS'libcryptoopenssl-OpenSSL_0_9_8m'
p1968
aS'libcryptoopenssl-OpenSSL_0_9_8n'
p1969
aS'libcryptoopenssl-OpenSSL_0_9_8o'
p1970
aS'libcryptoopenssl-OpenSSL_0_9_8h'
p1971
aS'libcryptoopenssl-OpenSSL_0_9_8i'
p1972
aS'libcryptoopenssl-OpenSSL_0_9_8j'
p1973
aS'libcryptoopenssl-OpenSSL_0_9_8k'
p1974
aS'libcryptoopenssl-OpenSSL_1_0_1t'
p1975
aS'libcryptoopenssl-OpenSSL_1_0_1s'
p1976
aS'libcryptoopenssl-OpenSSL_1_0_1r'
p1977
aS'libcryptoopenssl-OpenSSL_1_0_1q'
p1978
aS'libcryptoopenssl-OpenSSL_1_0_1p'
p1979
aS'libcryptoopenssl-OpenSSL_1_0_1o'
p1980
aS'libcryptoopenssl-OpenSSL_1_0_1n'
p1981
aS'libcryptoopenssl-OpenSSL_1_0_1m'
p1982
aS'libcryptoopenssl-OpenSSL_1_0_1l'
p1983
aS'libcryptoopenssl-OpenSSL_1_0_1k'
p1984
aS'libcryptoopenssl-OpenSSL_1_0_1j'
p1985
aS'libcryptoopenssl-OpenSSL_1_0_1i'
p1986
aS'libcryptoopenssl-OpenSSL_1_0_1h'
p1987
aS'libcryptoopenssl-OpenSSL_1_0_1g'
p1988
aS'libcryptoopenssl-OpenSSL_1_0_1f'
p1989
aS'libcryptoopenssl-OpenSSL_1_0_1e'
p1990
aS'libcryptoopenssl-OpenSSL_1_0_1d'
p1991
aS'libcryptoopenssl-OpenSSL_1_0_1c'
p1992
aS'libcryptoopenssl-OpenSSL_1_0_1b'
p1993
aS'libcryptoopenssl-OpenSSL_1_0_1a'
p1994
aS'libcryptoopenssl-OpenSSL_1_1_0'
p1995
aS'libcryptoopenssl-OpenSSL_1_0_2q'
p1996
aS'libcryptoopenssl-OpenSSL_1_0_2f'
p1997
aS'libcryptoopenssl-OpenSSL_1_0_2g'
p1998
aS'libcryptoopenssl-OpenSSL_1_0_2d'
p1999
aS'libcryptoopenssl-OpenSSL_1_0_2e'
p2000
aS'libcryptoopenssl-OpenSSL_1_0_2b'
p2001
aS'libcryptoopenssl-OpenSSL_1_0_2c'
p2002
aS'libcryptoopenssl-OpenSSL_1_0_2a'
p2003
aS'libcryptoopenssl-OpenSSL_1_0_2n'
p2004
aS'libcryptoopenssl-OpenSSL_1_0_2o'
p2005
aS'libcryptoopenssl-OpenSSL_1_0_2l'
p2006
aS'libcryptoopenssl-OpenSSL_1_0_2m'
p2007
aS'libcryptoopenssl-OpenSSL_1_0_2j'
p2008
aS'libcryptoopenssl-OpenSSL_1_0_2k'
p2009
aS'libcryptoopenssl-OpenSSL_1_0_2h'
p2010
aS'libcryptoopenssl-OpenSSL_1_0_2i'
p2011
aS'libcryptoopenssl-OpenSSL_0_9_7m'
p2012
aS'libcryptoopenssl-OpenSSL_0_9_7l'
p2013
aS'libcryptoopenssl-OpenSSL_0_9_7i'
p2014
aS'libcryptoopenssl-OpenSSL_0_9_7h'
p2015
aS'libcryptoopenssl-OpenSSL_0_9_7k'
p2016
aS'libcryptoopenssl-OpenSSL_0_9_7j'
p2017
aS'libcryptoopenssl-OpenSSL_0_9_7e'
p2018
aS'libcryptoopenssl-OpenSSL_0_9_7d'
p2019
aS'libcryptoopenssl-OpenSSL_0_9_7g'
p2020
aS'libcryptoopenssl-OpenSSL_0_9_7f'
p2021
aS'libcryptoopenssl-OpenSSL_0_9_7a'
p2022
aS'libcryptoopenssl-OpenSSL_0_9_7c'
p2023
aS'libcryptoopenssl-OpenSSL_0_9_7b'
p2024
aS'libcryptoopenssl-OpenSSL_1_1_0g'
p2025
aS'libcryptoopenssl-OpenSSL_1_1_0f'
p2026
aS'libcryptoopenssl-OpenSSL_1_1_0e'
p2027
aS'libcryptoopenssl-OpenSSL_1_1_0d'
p2028
aS'libcryptoopenssl-OpenSSL_1_1_0c'
p2029
aS'libcryptoopenssl-OpenSSL_1_1_0b'
p2030
aS'libcryptoopenssl-OpenSSL_1_1_0a'
p2031
aS'libcryptoopenssl-OpenSSL_1_1_0h'
p2032
aS'libcryptoopenssl-OpenSSL_0_9_8'
p2033
aS'libcryptoopenssl-OpenSSL_0_9_7'
p2034
atp2035
Rp2036
sS'BN_MONT_CTX_free'
p2037
g2
((lp2038
tp2039
Rp2040
sS'ec_GF2m_simple_mul'
p2041
g2
((lp2042
tp2043
Rp2044
sS'def_destroy'
p2045
g2
((lp2046
tp2047
Rp2048
sS'DES_ecb3_encrypt'
p2049
g2
((lp2050
S'libcryptoopenssl-OpenSSL_0_9_7m'
p2051
aS'libcryptoopenssl-OpenSSL_0_9_7l'
p2052
aS'libcryptoopenssl-OpenSSL_0_9_7i'
p2053
aS'libcryptoopenssl-OpenSSL_0_9_7h'
p2054
aS'libcryptoopenssl-OpenSSL_0_9_7k'
p2055
aS'libcryptoopenssl-OpenSSL_0_9_7j'
p2056
aS'libcryptoopenssl-OpenSSL_0_9_7e'
p2057
aS'libcryptoopenssl-OpenSSL_0_9_7d'
p2058
aS'libcryptoopenssl-OpenSSL_0_9_7g'
p2059
aS'libcryptoopenssl-OpenSSL_0_9_7f'
p2060
aS'libcryptoopenssl-OpenSSL_0_9_7a'
p2061
aS'libcryptoopenssl-OpenSSL_0_9_7c'
p2062
aS'libcryptoopenssl-OpenSSL_0_9_7b'
p2063
aS'libcryptoopenssl-OpenSSL_0_9_8t'
p2064
aS'libcryptoopenssl-OpenSSL_0_9_8u'
p2065
aS'libcryptoopenssl-OpenSSL_0_9_8v'
p2066
aS'libcryptoopenssl-OpenSSL_0_9_8w'
p2067
aS'libcryptoopenssl-OpenSSL_0_9_8p'
p2068
aS'libcryptoopenssl-OpenSSL_0_9_8q'
p2069
aS'libcryptoopenssl-OpenSSL_0_9_8r'
p2070
aS'libcryptoopenssl-OpenSSL_0_9_8s'
p2071
aS'libcryptoopenssl-OpenSSL_0_9_8x'
p2072
aS'libcryptoopenssl-OpenSSL_0_9_8y'
p2073
aS'libcryptoopenssl-OpenSSL_0_9_8d'
p2074
aS'libcryptoopenssl-OpenSSL_0_9_8e'
p2075
aS'libcryptoopenssl-OpenSSL_0_9_8f'
p2076
aS'libcryptoopenssl-OpenSSL_0_9_8g'
p2077
aS'libcryptoopenssl-OpenSSL_0_9_8a'
p2078
aS'libcryptoopenssl-OpenSSL_0_9_8b'
p2079
aS'libcryptoopenssl-OpenSSL_0_9_8c'
p2080
aS'libcryptoopenssl-OpenSSL_0_9_8l'
p2081
aS'libcryptoopenssl-OpenSSL_0_9_8m'
p2082
aS'libcryptoopenssl-OpenSSL_0_9_8n'
p2083
aS'libcryptoopenssl-OpenSSL_0_9_8o'
p2084
aS'libcryptoopenssl-OpenSSL_0_9_8h'
p2085
aS'libcryptoopenssl-OpenSSL_0_9_8i'
p2086
aS'libcryptoopenssl-OpenSSL_0_9_8j'
p2087
aS'libcryptoopenssl-OpenSSL_0_9_8k'
p2088
aS'libcryptoopenssl-OpenSSL_0_9_8'
p2089
aS'libcryptoopenssl-OpenSSL_0_9_7'
p2090
atp2091
Rp2092
sS'BN_sub'
p2093
g2
((lp2094
tp2095
Rp2096
sS'EC_KEY_free'
p2097
g2
((lp2098
tp2099
Rp2100
sS'tree_find_sk'
p2101
g2
((lp2102
S'libcryptoopenssl-OpenSSL_0_9_8t'
p2103
atp2104
Rp2105
sS'BN_MONT_CTX_set'
p2106
g2
((lp2107
tp2108
Rp2109
sS'BN_CTX_start'
p2110
g2
((lp2111
tp2112
Rp2113
sS'ec_GFp_simple_cmp'
p2114
g2
((lp2115
tp2116
Rp2117
sS'AES_ecb_encrypt'
p2118
g2
((lp2119
S'libcryptoopenssl-OpenSSL_0_9_7m'
p2120
aS'libcryptoopenssl-OpenSSL_0_9_7l'
p2121
aS'libcryptoopenssl-OpenSSL_0_9_7i'
p2122
aS'libcryptoopenssl-OpenSSL_0_9_7h'
p2123
aS'libcryptoopenssl-OpenSSL_0_9_7k'
p2124
aS'libcryptoopenssl-OpenSSL_0_9_7j'
p2125
aS'libcryptoopenssl-OpenSSL_0_9_7e'
p2126
aS'libcryptoopenssl-OpenSSL_0_9_7d'
p2127
aS'libcryptoopenssl-OpenSSL_0_9_7g'
p2128
aS'libcryptoopenssl-OpenSSL_0_9_7f'
p2129
aS'libcryptoopenssl-OpenSSL_0_9_7a'
p2130
aS'libcryptoopenssl-OpenSSL_0_9_7c'
p2131
aS'libcryptoopenssl-OpenSSL_0_9_7b'
p2132
aS'libcryptoopenssl-OpenSSL_0_9_8t'
p2133
aS'libcryptoopenssl-OpenSSL_0_9_8u'
p2134
aS'libcryptoopenssl-OpenSSL_0_9_8v'
p2135
aS'libcryptoopenssl-OpenSSL_0_9_8w'
p2136
aS'libcryptoopenssl-OpenSSL_0_9_8p'
p2137
aS'libcryptoopenssl-OpenSSL_0_9_8q'
p2138
aS'libcryptoopenssl-OpenSSL_0_9_8r'
p2139
aS'libcryptoopenssl-OpenSSL_0_9_8s'
p2140
aS'libcryptoopenssl-OpenSSL_0_9_8x'
p2141
aS'libcryptoopenssl-OpenSSL_0_9_8y'
p2142
aS'libcryptoopenssl-OpenSSL_0_9_8d'
p2143
aS'libcryptoopenssl-OpenSSL_0_9_8e'
p2144
aS'libcryptoopenssl-OpenSSL_0_9_8f'
p2145
aS'libcryptoopenssl-OpenSSL_0_9_8g'
p2146
aS'libcryptoopenssl-OpenSSL_0_9_8a'
p2147
aS'libcryptoopenssl-OpenSSL_0_9_8b'
p2148
aS'libcryptoopenssl-OpenSSL_0_9_8c'
p2149
aS'libcryptoopenssl-OpenSSL_0_9_8l'
p2150
aS'libcryptoopenssl-OpenSSL_0_9_8m'
p2151
aS'libcryptoopenssl-OpenSSL_0_9_8n'
p2152
aS'libcryptoopenssl-OpenSSL_0_9_8o'
p2153
aS'libcryptoopenssl-OpenSSL_0_9_8h'
p2154
aS'libcryptoopenssl-OpenSSL_0_9_8i'
p2155
aS'libcryptoopenssl-OpenSSL_0_9_8j'
p2156
aS'libcryptoopenssl-OpenSSL_0_9_8k'
p2157
aS'libcryptoopenssl-OpenSSL_0_9_8'
p2158
aS'libcryptoopenssl-OpenSSL_0_9_7'
p2159
atp2160
Rp2161
sS'BIO_write'
p2162
g2
((lp2163
S'libcryptoopenssl-OpenSSL_1_0_2e'
p2164
aS'libcryptoopenssl-OpenSSL_1_0_0n'
p2165
aS'libcryptoopenssl-OpenSSL_1_0_2q'
p2166
aS'libcryptoopenssl-OpenSSL_1_0_1'
p2167
aS'libcryptoopenssl-OpenSSL_1_0_0l'
p2168
aS'libcryptoopenssl-OpenSSL_1_0_2b'
p2169
aS'libcryptoopenssl-OpenSSL_1_0_0m'
p2170
aS'libcryptoopenssl-OpenSSL_1_0_0t'
p2171
aS'libcryptoopenssl-OpenSSL_1_0_2i'
p2172
aS'libcryptoopenssl-OpenSSL_1_0_0p'
p2173
aS'libcryptoopenssl-OpenSSL_1_0_0q'
p2174
aS'libcryptoopenssl-OpenSSL_1_0_0r'
p2175
aS'libcryptoopenssl-OpenSSL_1_0_0s'
p2176
aS'libcryptoopenssl-OpenSSL_1_0_2f'
p2177
aS'libcryptoopenssl-OpenSSL_1_0_2g'
p2178
aS'libcryptoopenssl-OpenSSL_1_0_2d'
p2179
aS'libcryptoopenssl-OpenSSL_1_0_0o'
p2180
aS'libcryptoopenssl-OpenSSL_1_0_0h'
p2181
aS'libcryptoopenssl-OpenSSL_1_0_2c'
p2182
aS'libcryptoopenssl-OpenSSL_1_0_0j'
p2183
aS'libcryptoopenssl-OpenSSL_1_0_2a'
p2184
aS'libcryptoopenssl-OpenSSL_1_0_2n'
p2185
aS'libcryptoopenssl-OpenSSL_1_0_2o'
p2186
aS'libcryptoopenssl-OpenSSL_1_0_0f'
p2187
aS'libcryptoopenssl-OpenSSL_1_0_0g'
p2188
aS'libcryptoopenssl-OpenSSL_1_0_2j'
p2189
aS'libcryptoopenssl-OpenSSL_1_0_2k'
p2190
aS'libcryptoopenssl-OpenSSL_1_0_2h'
p2191
aS'libcryptoopenssl-OpenSSL_1_0_0i'
p2192
aS'libcryptoopenssl-OpenSSL_0_9_8t'
p2193
aS'libcryptoopenssl-OpenSSL_0_9_8u'
p2194
aS'libcryptoopenssl-OpenSSL_0_9_8v'
p2195
aS'libcryptoopenssl-OpenSSL_0_9_8w'
p2196
aS'libcryptoopenssl-OpenSSL_0_9_8s'
p2197
aS'libcryptoopenssl-OpenSSL_1_0_0k'
p2198
aS'libcryptoopenssl-OpenSSL_0_9_8x'
p2199
aS'libcryptoopenssl-OpenSSL_0_9_8y'
p2200
aS'libcryptoopenssl-OpenSSL_1_0_2'
p2201
aS'libcryptoopenssl-OpenSSL_1_0_2l'
p2202
aS'libcryptoopenssl-OpenSSL_1_0_2m'
p2203
aS'libcryptoopenssl-OpenSSL_1_0_1t'
p2204
aS'libcryptoopenssl-OpenSSL_1_0_1s'
p2205
aS'libcryptoopenssl-OpenSSL_1_0_1r'
p2206
aS'libcryptoopenssl-OpenSSL_1_0_1q'
p2207
aS'libcryptoopenssl-OpenSSL_1_0_1p'
p2208
aS'libcryptoopenssl-OpenSSL_1_0_1o'
p2209
aS'libcryptoopenssl-OpenSSL_1_0_1n'
p2210
aS'libcryptoopenssl-OpenSSL_1_0_1m'
p2211
aS'libcryptoopenssl-OpenSSL_1_0_1l'
p2212
aS'libcryptoopenssl-OpenSSL_1_0_1k'
p2213
aS'libcryptoopenssl-OpenSSL_1_0_1j'
p2214
aS'libcryptoopenssl-OpenSSL_1_0_1i'
p2215
aS'libcryptoopenssl-OpenSSL_1_0_1h'
p2216
aS'libcryptoopenssl-OpenSSL_1_0_1g'
p2217
aS'libcryptoopenssl-OpenSSL_1_0_1f'
p2218
aS'libcryptoopenssl-OpenSSL_1_0_1e'
p2219
aS'libcryptoopenssl-OpenSSL_1_0_1d'
p2220
aS'libcryptoopenssl-OpenSSL_1_0_1c'
p2221
aS'libcryptoopenssl-OpenSSL_1_0_1b'
p2222
aS'libcryptoopenssl-OpenSSL_1_0_1a'
p2223
atp2224
Rp2225
sS'dh_finish'
p2226
g2
((lp2227
tp2228
Rp2229
sS'md2_block'
p2230
g2
((lp2231
S'libcryptoopenssl-OpenSSL_0_9_8t'
p2232
aS'libcryptoopenssl-OpenSSL_0_9_8u'
p2233
aS'libcryptoopenssl-OpenSSL_0_9_8v'
p2234
aS'libcryptoopenssl-OpenSSL_0_9_8w'
p2235
aS'libcryptoopenssl-OpenSSL_0_9_8p'
p2236
aS'libcryptoopenssl-OpenSSL_0_9_8q'
p2237
aS'libcryptoopenssl-OpenSSL_0_9_8r'
p2238
aS'libcryptoopenssl-OpenSSL_0_9_8s'
p2239
aS'libcryptoopenssl-OpenSSL_0_9_8x'
p2240
aS'libcryptoopenssl-OpenSSL_0_9_8y'
p2241
aS'libcryptoopenssl-OpenSSL_0_9_8d'
p2242
aS'libcryptoopenssl-OpenSSL_0_9_8f'
p2243
aS'libcryptoopenssl-OpenSSL_0_9_8g'
p2244
aS'libcryptoopenssl-OpenSSL_0_9_8a'
p2245
aS'libcryptoopenssl-OpenSSL_0_9_8b'
p2246
aS'libcryptoopenssl-OpenSSL_0_9_8l'
p2247
aS'libcryptoopenssl-OpenSSL_0_9_8m'
p2248
aS'libcryptoopenssl-OpenSSL_0_9_8n'
p2249
aS'libcryptoopenssl-OpenSSL_0_9_8o'
p2250
aS'libcryptoopenssl-OpenSSL_0_9_8h'
p2251
aS'libcryptoopenssl-OpenSSL_0_9_8i'
p2252
aS'libcryptoopenssl-OpenSSL_0_9_8j'
p2253
aS'libcryptoopenssl-OpenSSL_0_9_8k'
p2254
aS'libcryptoopenssl-OpenSSL_0_9_8'
p2255
atp2256
Rp2257
sS'EC_GROUP_get_order'
p2258
g2
((lp2259
tp2260
Rp2261
sS'BN_set_negative'
p2262
g2
((lp2263
tp2264
Rp2265
sS'ERR_peek_last_error'
p2266
g2
((lp2267
tp2268
Rp2269
sS'bn_mul_low_recursive'
p2270
g2
((lp2271
tp2272
Rp2273
sS'ec_GF2m_montgomery_point_multiply.part.0'
p2274
g2
((lp2275
tp2276
Rp2277
sS'BF_ecb_encrypt'
p2278
g2
((lp2279
S'libcryptoopenssl-OpenSSL_0_9_7m'
p2280
aS'libcryptoopenssl-OpenSSL_0_9_7l'
p2281
aS'libcryptoopenssl-OpenSSL_0_9_7i'
p2282
aS'libcryptoopenssl-OpenSSL_0_9_7h'
p2283
aS'libcryptoopenssl-OpenSSL_0_9_7k'
p2284
aS'libcryptoopenssl-OpenSSL_0_9_7j'
p2285
aS'libcryptoopenssl-OpenSSL_0_9_7e'
p2286
aS'libcryptoopenssl-OpenSSL_0_9_7d'
p2287
aS'libcryptoopenssl-OpenSSL_0_9_7g'
p2288
aS'libcryptoopenssl-OpenSSL_0_9_7f'
p2289
aS'libcryptoopenssl-OpenSSL_0_9_7a'
p2290
aS'libcryptoopenssl-OpenSSL_0_9_7c'
p2291
aS'libcryptoopenssl-OpenSSL_0_9_7b'
p2292
aS'libcryptoopenssl-OpenSSL_0_9_8t'
p2293
aS'libcryptoopenssl-OpenSSL_0_9_8u'
p2294
aS'libcryptoopenssl-OpenSSL_0_9_8v'
p2295
aS'libcryptoopenssl-OpenSSL_0_9_8w'
p2296
aS'libcryptoopenssl-OpenSSL_0_9_8p'
p2297
aS'libcryptoopenssl-OpenSSL_0_9_8q'
p2298
aS'libcryptoopenssl-OpenSSL_0_9_8r'
p2299
aS'libcryptoopenssl-OpenSSL_0_9_8s'
p2300
aS'libcryptoopenssl-OpenSSL_0_9_8x'
p2301
aS'libcryptoopenssl-OpenSSL_0_9_8y'
p2302
aS'libcryptoopenssl-OpenSSL_0_9_8d'
p2303
aS'libcryptoopenssl-OpenSSL_0_9_8e'
p2304
aS'libcryptoopenssl-OpenSSL_0_9_8f'
p2305
aS'libcryptoopenssl-OpenSSL_0_9_8g'
p2306
aS'libcryptoopenssl-OpenSSL_0_9_8a'
p2307
aS'libcryptoopenssl-OpenSSL_0_9_8b'
p2308
aS'libcryptoopenssl-OpenSSL_0_9_8c'
p2309
aS'libcryptoopenssl-OpenSSL_0_9_8l'
p2310
aS'libcryptoopenssl-OpenSSL_0_9_8m'
p2311
aS'libcryptoopenssl-OpenSSL_0_9_8n'
p2312
aS'libcryptoopenssl-OpenSSL_0_9_8o'
p2313
aS'libcryptoopenssl-OpenSSL_0_9_8h'
p2314
aS'libcryptoopenssl-OpenSSL_0_9_8i'
p2315
aS'libcryptoopenssl-OpenSSL_0_9_8j'
p2316
aS'libcryptoopenssl-OpenSSL_0_9_8k'
p2317
aS'libcryptoopenssl-OpenSSL_0_9_8'
p2318
aS'libcryptoopenssl-OpenSSL_0_9_7'
p2319
atp2320
Rp2321
sS'int_cleanup_cb_LHASH_DOALL'
p2322
g2
((lp2323
tp2324
Rp2325
sS'sk_free'
p2326
g2
((lp2327
tp2328
Rp2329
sS'X509_OBJECT_idx_by_subject'
p2330
g2
((lp2331
S'libcryptoopenssl-OpenSSL_0_9_7m'
p2332
aS'libcryptoopenssl-OpenSSL_0_9_7l'
p2333
aS'libcryptoopenssl-OpenSSL_0_9_7i'
p2334
aS'libcryptoopenssl-OpenSSL_0_9_7h'
p2335
aS'libcryptoopenssl-OpenSSL_0_9_7k'
p2336
aS'libcryptoopenssl-OpenSSL_0_9_7j'
p2337
aS'libcryptoopenssl-OpenSSL_0_9_7e'
p2338
aS'libcryptoopenssl-OpenSSL_0_9_7g'
p2339
aS'libcryptoopenssl-OpenSSL_0_9_7f'
p2340
aS'libcryptoopenssl-OpenSSL_0_9_8d'
p2341
aS'libcryptoopenssl-OpenSSL_0_9_8e'
p2342
aS'libcryptoopenssl-OpenSSL_0_9_8f'
p2343
aS'libcryptoopenssl-OpenSSL_0_9_8g'
p2344
aS'libcryptoopenssl-OpenSSL_0_9_8a'
p2345
aS'libcryptoopenssl-OpenSSL_0_9_8b'
p2346
aS'libcryptoopenssl-OpenSSL_0_9_8c'
p2347
aS'libcryptoopenssl-OpenSSL_0_9_8l'
p2348
aS'libcryptoopenssl-OpenSSL_0_9_8m'
p2349
aS'libcryptoopenssl-OpenSSL_0_9_8n'
p2350
aS'libcryptoopenssl-OpenSSL_0_9_8o'
p2351
aS'libcryptoopenssl-OpenSSL_0_9_8h'
p2352
aS'libcryptoopenssl-OpenSSL_0_9_8i'
p2353
aS'libcryptoopenssl-OpenSSL_0_9_8j'
p2354
aS'libcryptoopenssl-OpenSSL_0_9_8k'
p2355
aS'libcryptoopenssl-OpenSSL_0_9_8'
p2356
atp2357
Rp2358
sS'X509_certificate_type'
p2359
g2
((lp2360
S'libcryptoopenssl-OpenSSL_0_9_8t'
p2361
aS'libcryptoopenssl-OpenSSL_0_9_8u'
p2362
aS'libcryptoopenssl-OpenSSL_0_9_8v'
p2363
aS'libcryptoopenssl-OpenSSL_0_9_8w'
p2364
aS'libcryptoopenssl-OpenSSL_0_9_8p'
p2365
aS'libcryptoopenssl-OpenSSL_0_9_8q'
p2366
aS'libcryptoopenssl-OpenSSL_0_9_8r'
p2367
aS'libcryptoopenssl-OpenSSL_0_9_8s'
p2368
aS'libcryptoopenssl-OpenSSL_0_9_8x'
p2369
aS'libcryptoopenssl-OpenSSL_0_9_8y'
p2370
aS'libcryptoopenssl-OpenSSL_0_9_8e'
p2371
aS'libcryptoopenssl-OpenSSL_0_9_8f'
p2372
aS'libcryptoopenssl-OpenSSL_0_9_8g'
p2373
aS'libcryptoopenssl-OpenSSL_0_9_8l'
p2374
aS'libcryptoopenssl-OpenSSL_0_9_8m'
p2375
aS'libcryptoopenssl-OpenSSL_0_9_8n'
p2376
aS'libcryptoopenssl-OpenSSL_0_9_8o'
p2377
aS'libcryptoopenssl-OpenSSL_0_9_8h'
p2378
aS'libcryptoopenssl-OpenSSL_0_9_8i'
p2379
aS'libcryptoopenssl-OpenSSL_0_9_8j'
p2380
aS'libcryptoopenssl-OpenSSL_0_9_8k'
p2381
atp2382
Rp2383
sS'ssl3_get_message'
p2384
g2
((lp2385
tp2386
Rp2387
sS'sk_delete'
p2388
g2
((lp2389
S'libcryptoopenssl-OpenSSL_0_9_8t'
p2390
atp2391
Rp2392
sS'PEM_read_bio_ECPrivateKey'
p2393
g2
((lp2394
tp2395
Rp2396
sS'X509V3_add1_i2d'
p2397
g2
((lp2398
S'libcryptoopenssl-OpenSSL_0_9_8t'
p2399
atp2400
Rp2401
sS'BN_CTX_free'
p2402
g2
((lp2403
tp2404
Rp2405
sS'sha512_block_data_order'
p2406
g2
((lp2407
S'libcryptoopenssl-OpenSSL_0_9_8t'
p2408
aS'libcryptoopenssl-OpenSSL_0_9_8u'
p2409
aS'libcryptoopenssl-OpenSSL_0_9_8v'
p2410
aS'libcryptoopenssl-OpenSSL_0_9_8w'
p2411
aS'libcryptoopenssl-OpenSSL_0_9_8p'
p2412
aS'libcryptoopenssl-OpenSSL_0_9_8q'
p2413
aS'libcryptoopenssl-OpenSSL_0_9_8r'
p2414
aS'libcryptoopenssl-OpenSSL_0_9_8s'
p2415
aS'libcryptoopenssl-OpenSSL_0_9_8x'
p2416
aS'libcryptoopenssl-OpenSSL_0_9_8y'
p2417
aS'libcryptoopenssl-OpenSSL_0_9_8m'
p2418
aS'libcryptoopenssl-OpenSSL_0_9_8n'
p2419
aS'libcryptoopenssl-OpenSSL_0_9_8o'
p2420
atp2421
Rp2422
sS'UI_get0_output_string'
p2423
g2
((lp2424
S'libcryptoopenssl-OpenSSL_1_0_2'
p2425
aS'libcryptoopenssl-OpenSSL_1_0_1'
p2426
aS'libcryptoopenssl-OpenSSL_1_0_0'
p2427
aS'libcryptoopenssl-OpenSSL_1_0_0t'
p2428
aS'libcryptoopenssl-OpenSSL_1_0_0p'
p2429
aS'libcryptoopenssl-OpenSSL_1_0_0q'
p2430
aS'libcryptoopenssl-OpenSSL_1_0_0r'
p2431
aS'libcryptoopenssl-OpenSSL_1_0_0s'
p2432
aS'libcryptoopenssl-OpenSSL_1_0_0l'
p2433
aS'libcryptoopenssl-OpenSSL_1_0_0m'
p2434
aS'libcryptoopenssl-OpenSSL_1_0_0n'
p2435
aS'libcryptoopenssl-OpenSSL_1_0_0o'
p2436
aS'libcryptoopenssl-OpenSSL_1_0_0h'
p2437
aS'libcryptoopenssl-OpenSSL_1_0_0i'
p2438
aS'libcryptoopenssl-OpenSSL_1_0_0j'
p2439
aS'libcryptoopenssl-OpenSSL_1_0_0k'
p2440
aS'libcryptoopenssl-OpenSSL_1_0_0d'
p2441
aS'libcryptoopenssl-OpenSSL_1_0_0e'
p2442
aS'libcryptoopenssl-OpenSSL_1_0_0f'
p2443
aS'libcryptoopenssl-OpenSSL_1_0_0g'
p2444
aS'libcryptoopenssl-OpenSSL_1_0_0a'
p2445
aS'libcryptoopenssl-OpenSSL_1_0_0b'
p2446
aS'libcryptoopenssl-OpenSSL_1_0_0c'
p2447
aS'libcryptoopenssl-OpenSSL_0_9_8t'
p2448
aS'libcryptoopenssl-OpenSSL_0_9_8u'
p2449
aS'libcryptoopenssl-OpenSSL_0_9_8v'
p2450
aS'libcryptoopenssl-OpenSSL_0_9_8w'
p2451
aS'libcryptoopenssl-OpenSSL_0_9_8p'
p2452
aS'libcryptoopenssl-OpenSSL_0_9_8q'
p2453
aS'libcryptoopenssl-OpenSSL_0_9_8r'
p2454
aS'libcryptoopenssl-OpenSSL_0_9_8s'
p2455
aS'libcryptoopenssl-OpenSSL_0_9_8x'
p2456
aS'libcryptoopenssl-OpenSSL_0_9_8y'
p2457
aS'libcryptoopenssl-OpenSSL_0_9_8d'
p2458
aS'libcryptoopenssl-OpenSSL_0_9_8e'
p2459
aS'libcryptoopenssl-OpenSSL_0_9_8f'
p2460
aS'libcryptoopenssl-OpenSSL_0_9_8g'
p2461
aS'libcryptoopenssl-OpenSSL_0_9_8a'
p2462
aS'libcryptoopenssl-OpenSSL_0_9_8b'
p2463
aS'libcryptoopenssl-OpenSSL_0_9_8c'
p2464
aS'libcryptoopenssl-OpenSSL_0_9_8l'
p2465
aS'libcryptoopenssl-OpenSSL_0_9_8m'
p2466
aS'libcryptoopenssl-OpenSSL_0_9_8n'
p2467
aS'libcryptoopenssl-OpenSSL_0_9_8o'
p2468
aS'libcryptoopenssl-OpenSSL_0_9_8h'
p2469
aS'libcryptoopenssl-OpenSSL_0_9_8i'
p2470
aS'libcryptoopenssl-OpenSSL_0_9_8j'
p2471
aS'libcryptoopenssl-OpenSSL_0_9_8k'
p2472
aS'libcryptoopenssl-OpenSSL_1_0_1t'
p2473
aS'libcryptoopenssl-OpenSSL_1_0_1s'
p2474
aS'libcryptoopenssl-OpenSSL_1_0_1r'
p2475
aS'libcryptoopenssl-OpenSSL_1_0_1q'
p2476
aS'libcryptoopenssl-OpenSSL_1_0_1p'
p2477
aS'libcryptoopenssl-OpenSSL_1_0_1o'
p2478
aS'libcryptoopenssl-OpenSSL_1_0_1n'
p2479
aS'libcryptoopenssl-OpenSSL_1_0_1m'
p2480
aS'libcryptoopenssl-OpenSSL_1_0_1l'
p2481
aS'libcryptoopenssl-OpenSSL_1_0_1k'
p2482
aS'libcryptoopenssl-OpenSSL_1_0_1j'
p2483
aS'libcryptoopenssl-OpenSSL_1_0_1i'
p2484
aS'libcryptoopenssl-OpenSSL_1_0_1h'
p2485
aS'libcryptoopenssl-OpenSSL_1_0_1g'
p2486
aS'libcryptoopenssl-OpenSSL_1_0_1f'
p2487
aS'libcryptoopenssl-OpenSSL_1_0_1e'
p2488
aS'libcryptoopenssl-OpenSSL_1_0_1d'
p2489
aS'libcryptoopenssl-OpenSSL_1_0_1c'
p2490
aS'libcryptoopenssl-OpenSSL_1_0_1b'
p2491
aS'libcryptoopenssl-OpenSSL_1_0_1a'
p2492
aS'libcryptoopenssl-OpenSSL_1_1_0'
p2493
aS'libcryptoopenssl-OpenSSL_1_0_2q'
p2494
aS'libcryptoopenssl-OpenSSL_1_0_2f'
p2495
aS'libcryptoopenssl-OpenSSL_1_0_2g'
p2496
aS'libcryptoopenssl-OpenSSL_1_0_2d'
p2497
aS'libcryptoopenssl-OpenSSL_1_0_2e'
p2498
aS'libcryptoopenssl-OpenSSL_1_0_2b'
p2499
aS'libcryptoopenssl-OpenSSL_1_0_2c'
p2500
aS'libcryptoopenssl-OpenSSL_1_0_2a'
p2501
aS'libcryptoopenssl-OpenSSL_1_0_2n'
p2502
aS'libcryptoopenssl-OpenSSL_1_0_2o'
p2503
aS'libcryptoopenssl-OpenSSL_1_0_2l'
p2504
aS'libcryptoopenssl-OpenSSL_1_0_2m'
p2505
aS'libcryptoopenssl-OpenSSL_1_0_2j'
p2506
aS'libcryptoopenssl-OpenSSL_1_0_2k'
p2507
aS'libcryptoopenssl-OpenSSL_1_0_2h'
p2508
aS'libcryptoopenssl-OpenSSL_1_0_2i'
p2509
aS'libcryptoopenssl-OpenSSL_0_9_7m'
p2510
aS'libcryptoopenssl-OpenSSL_0_9_7l'
p2511
aS'libcryptoopenssl-OpenSSL_0_9_7i'
p2512
aS'libcryptoopenssl-OpenSSL_0_9_7h'
p2513
aS'libcryptoopenssl-OpenSSL_0_9_7k'
p2514
aS'libcryptoopenssl-OpenSSL_0_9_7j'
p2515
aS'libcryptoopenssl-OpenSSL_0_9_7e'
p2516
aS'libcryptoopenssl-OpenSSL_0_9_7d'
p2517
aS'libcryptoopenssl-OpenSSL_0_9_7g'
p2518
aS'libcryptoopenssl-OpenSSL_0_9_7f'
p2519
aS'libcryptoopenssl-OpenSSL_0_9_7a'
p2520
aS'libcryptoopenssl-OpenSSL_0_9_7c'
p2521
aS'libcryptoopenssl-OpenSSL_0_9_7b'
p2522
aS'libcryptoopenssl-OpenSSL_0_9_8'
p2523
aS'libcryptoopenssl-OpenSSL_0_9_7'
p2524
atp2525
Rp2526
sS'BN_lshift1'
p2527
g2
((lp2528
tp2529
Rp2530
sS'X509v3_get_ext_by_critical'
p2531
g2
((lp2532
S'libcryptoopenssl-OpenSSL_0_9_8t'
p2533
atp2534
Rp2535
sS'DSA_SIG_free'
p2536
g2
((lp2537
S'libcryptoopenssl-OpenSSL_1_0_2'
p2538
aS'libcryptoopenssl-OpenSSL_1_0_1'
p2539
aS'libcryptoopenssl-OpenSSL_1_0_2q'
p2540
aS'libcryptoopenssl-OpenSSL_1_0_2f'
p2541
aS'libcryptoopenssl-OpenSSL_1_0_2g'
p2542
aS'libcryptoopenssl-OpenSSL_1_0_2d'
p2543
aS'libcryptoopenssl-OpenSSL_1_0_2e'
p2544
aS'libcryptoopenssl-OpenSSL_1_0_2b'
p2545
aS'libcryptoopenssl-OpenSSL_1_0_2c'
p2546
aS'libcryptoopenssl-OpenSSL_1_0_2a'
p2547
aS'libcryptoopenssl-OpenSSL_1_0_2n'
p2548
aS'libcryptoopenssl-OpenSSL_1_0_2o'
p2549
aS'libcryptoopenssl-OpenSSL_1_0_2l'
p2550
aS'libcryptoopenssl-OpenSSL_1_0_2m'
p2551
aS'libcryptoopenssl-OpenSSL_1_0_2j'
p2552
aS'libcryptoopenssl-OpenSSL_1_0_2k'
p2553
aS'libcryptoopenssl-OpenSSL_1_0_2h'
p2554
aS'libcryptoopenssl-OpenSSL_1_0_2i'
p2555
aS'libcryptoopenssl-OpenSSL_0_9_8t'
p2556
aS'libcryptoopenssl-OpenSSL_0_9_8u'
p2557
aS'libcryptoopenssl-OpenSSL_0_9_8v'
p2558
aS'libcryptoopenssl-OpenSSL_0_9_8w'
p2559
aS'libcryptoopenssl-OpenSSL_0_9_8p'
p2560
aS'libcryptoopenssl-OpenSSL_0_9_8q'
p2561
aS'libcryptoopenssl-OpenSSL_0_9_8r'
p2562
aS'libcryptoopenssl-OpenSSL_0_9_8s'
p2563
aS'libcryptoopenssl-OpenSSL_0_9_8x'
p2564
aS'libcryptoopenssl-OpenSSL_0_9_8y'
p2565
aS'libcryptoopenssl-OpenSSL_0_9_8m'
p2566
aS'libcryptoopenssl-OpenSSL_0_9_8n'
p2567
aS'libcryptoopenssl-OpenSSL_0_9_8o'
p2568
aS'libcryptoopenssl-OpenSSL_1_0_1t'
p2569
aS'libcryptoopenssl-OpenSSL_1_0_1s'
p2570
aS'libcryptoopenssl-OpenSSL_1_0_1r'
p2571
aS'libcryptoopenssl-OpenSSL_1_0_1q'
p2572
aS'libcryptoopenssl-OpenSSL_1_0_1p'
p2573
aS'libcryptoopenssl-OpenSSL_1_0_1o'
p2574
aS'libcryptoopenssl-OpenSSL_1_0_1n'
p2575
aS'libcryptoopenssl-OpenSSL_1_0_1m'
p2576
aS'libcryptoopenssl-OpenSSL_1_0_1l'
p2577
aS'libcryptoopenssl-OpenSSL_1_0_1k'
p2578
aS'libcryptoopenssl-OpenSSL_1_0_1j'
p2579
aS'libcryptoopenssl-OpenSSL_1_0_1i'
p2580
aS'libcryptoopenssl-OpenSSL_1_0_1h'
p2581
aS'libcryptoopenssl-OpenSSL_1_0_1g'
p2582
aS'libcryptoopenssl-OpenSSL_1_0_1f'
p2583
aS'libcryptoopenssl-OpenSSL_1_0_1e'
p2584
aS'libcryptoopenssl-OpenSSL_1_0_1d'
p2585
aS'libcryptoopenssl-OpenSSL_1_0_1c'
p2586
aS'libcryptoopenssl-OpenSSL_1_0_1b'
p2587
aS'libcryptoopenssl-OpenSSL_1_0_1a'
p2588
atp2589
Rp2590
sS'X509_NAME_delete_entry'
p2591
g2
((lp2592
S'libcryptoopenssl-OpenSSL_0_9_8t'
p2593
atp2594
Rp2595
sS'ASN1_TIME_set'
p2596
g2
((lp2597
S'libcryptoopenssl-OpenSSL_0_9_7m'
p2598
aS'libcryptoopenssl-OpenSSL_0_9_7l'
p2599
aS'libcryptoopenssl-OpenSSL_0_9_7i'
p2600
aS'libcryptoopenssl-OpenSSL_0_9_7h'
p2601
aS'libcryptoopenssl-OpenSSL_0_9_7k'
p2602
aS'libcryptoopenssl-OpenSSL_0_9_7j'
p2603
aS'libcryptoopenssl-OpenSSL_0_9_7e'
p2604
aS'libcryptoopenssl-OpenSSL_0_9_7d'
p2605
aS'libcryptoopenssl-OpenSSL_0_9_7g'
p2606
aS'libcryptoopenssl-OpenSSL_0_9_7f'
p2607
aS'libcryptoopenssl-OpenSSL_0_9_7a'
p2608
aS'libcryptoopenssl-OpenSSL_0_9_7c'
p2609
aS'libcryptoopenssl-OpenSSL_0_9_7b'
p2610
aS'libcryptoopenssl-OpenSSL_0_9_8t'
p2611
aS'libcryptoopenssl-OpenSSL_0_9_8u'
p2612
aS'libcryptoopenssl-OpenSSL_0_9_8v'
p2613
aS'libcryptoopenssl-OpenSSL_0_9_8w'
p2614
aS'libcryptoopenssl-OpenSSL_0_9_8p'
p2615
aS'libcryptoopenssl-OpenSSL_0_9_8q'
p2616
aS'libcryptoopenssl-OpenSSL_0_9_8r'
p2617
aS'libcryptoopenssl-OpenSSL_0_9_8s'
p2618
aS'libcryptoopenssl-OpenSSL_0_9_8x'
p2619
aS'libcryptoopenssl-OpenSSL_0_9_8y'
p2620
aS'libcryptoopenssl-OpenSSL_0_9_8d'
p2621
aS'libcryptoopenssl-OpenSSL_0_9_8e'
p2622
aS'libcryptoopenssl-OpenSSL_0_9_8f'
p2623
aS'libcryptoopenssl-OpenSSL_0_9_8g'
p2624
aS'libcryptoopenssl-OpenSSL_0_9_8a'
p2625
aS'libcryptoopenssl-OpenSSL_0_9_8b'
p2626
aS'libcryptoopenssl-OpenSSL_0_9_8c'
p2627
aS'libcryptoopenssl-OpenSSL_0_9_8l'
p2628
aS'libcryptoopenssl-OpenSSL_0_9_8m'
p2629
aS'libcryptoopenssl-OpenSSL_0_9_8n'
p2630
aS'libcryptoopenssl-OpenSSL_0_9_8o'
p2631
aS'libcryptoopenssl-OpenSSL_0_9_8h'
p2632
aS'libcryptoopenssl-OpenSSL_0_9_8i'
p2633
aS'libcryptoopenssl-OpenSSL_0_9_8j'
p2634
aS'libcryptoopenssl-OpenSSL_0_9_8k'
p2635
aS'libcryptoopenssl-OpenSSL_0_9_8'
p2636
atp2637
Rp2638
sS'ASN1_ENUMERATED_get'
p2639
g2
((lp2640
S'libcryptoopenssl-OpenSSL_1_0_2e'
p2641
aS'libcryptoopenssl-OpenSSL_1_0_1j'
p2642
aS'libcryptoopenssl-OpenSSL_1_0_0e'
p2643
aS'libcryptoopenssl-OpenSSL_1_0_0n'
p2644
aS'libcryptoopenssl-OpenSSL_1_0_2q'
p2645
aS'libcryptoopenssl-OpenSSL_1_0_1'
p2646
aS'libcryptoopenssl-OpenSSL_1_0_0'
p2647
aS'libcryptoopenssl-OpenSSL_1_0_0l'
p2648
aS'libcryptoopenssl-OpenSSL_1_0_2b'
p2649
aS'libcryptoopenssl-OpenSSL_1_0_0m'
p2650
aS'libcryptoopenssl-OpenSSL_0_9_8e'
p2651
aS'libcryptoopenssl-OpenSSL_1_0_0t'
p2652
aS'libcryptoopenssl-OpenSSL_1_0_2i'
p2653
aS'libcryptoopenssl-OpenSSL_1_0_0p'
p2654
aS'libcryptoopenssl-OpenSSL_1_0_0q'
p2655
aS'libcryptoopenssl-OpenSSL_1_0_0r'
p2656
aS'libcryptoopenssl-OpenSSL_1_0_0s'
p2657
aS'libcryptoopenssl-OpenSSL_1_0_2f'
p2658
aS'libcryptoopenssl-OpenSSL_1_0_2g'
p2659
aS'libcryptoopenssl-OpenSSL_1_0_2d'
p2660
aS'libcryptoopenssl-OpenSSL_1_0_0o'
p2661
aS'libcryptoopenssl-OpenSSL_1_0_0h'
p2662
aS'libcryptoopenssl-OpenSSL_1_0_2c'
p2663
aS'libcryptoopenssl-OpenSSL_1_0_0j'
p2664
aS'libcryptoopenssl-OpenSSL_1_0_2a'
p2665
aS'libcryptoopenssl-OpenSSL_1_0_2n'
p2666
aS'libcryptoopenssl-OpenSSL_1_0_2o'
p2667
aS'libcryptoopenssl-OpenSSL_1_0_0f'
p2668
aS'libcryptoopenssl-OpenSSL_1_0_0g'
p2669
aS'libcryptoopenssl-OpenSSL_1_0_2j'
p2670
aS'libcryptoopenssl-OpenSSL_1_0_0a'
p2671
aS'libcryptoopenssl-OpenSSL_1_0_0b'
p2672
aS'libcryptoopenssl-OpenSSL_1_0_0c'
p2673
aS'libcryptoopenssl-OpenSSL_0_9_8t'
p2674
aS'libcryptoopenssl-OpenSSL_0_9_8u'
p2675
aS'libcryptoopenssl-OpenSSL_0_9_8v'
p2676
aS'libcryptoopenssl-OpenSSL_0_9_8w'
p2677
aS'libcryptoopenssl-OpenSSL_0_9_8p'
p2678
aS'libcryptoopenssl-OpenSSL_0_9_8q'
p2679
aS'libcryptoopenssl-OpenSSL_0_9_8r'
p2680
aS'libcryptoopenssl-OpenSSL_0_9_8s'
p2681
aS'libcryptoopenssl-OpenSSL_1_0_0k'
p2682
aS'libcryptoopenssl-OpenSSL_0_9_8x'
p2683
aS'libcryptoopenssl-OpenSSL_0_9_8y'
p2684
aS'libcryptoopenssl-OpenSSL_0_9_8d'
p2685
aS'libcryptoopenssl-OpenSSL_1_0_0d'
p2686
aS'libcryptoopenssl-OpenSSL_0_9_8f'
p2687
aS'libcryptoopenssl-OpenSSL_0_9_8g'
p2688
aS'libcryptoopenssl-OpenSSL_1_0_2l'
p2689
aS'libcryptoopenssl-OpenSSL_0_9_8a'
p2690
aS'libcryptoopenssl-OpenSSL_0_9_8b'
p2691
aS'libcryptoopenssl-OpenSSL_0_9_8c'
p2692
aS'libcryptoopenssl-OpenSSL_0_9_8l'
p2693
aS'libcryptoopenssl-OpenSSL_0_9_8m'
p2694
aS'libcryptoopenssl-OpenSSL_0_9_8n'
p2695
aS'libcryptoopenssl-OpenSSL_0_9_8o'
p2696
aS'libcryptoopenssl-OpenSSL_0_9_8h'
p2697
aS'libcryptoopenssl-OpenSSL_0_9_8i'
p2698
aS'libcryptoopenssl-OpenSSL_0_9_8j'
p2699
aS'libcryptoopenssl-OpenSSL_0_9_8k'
p2700
aS'libcryptoopenssl-OpenSSL_1_0_2k'
p2701
aS'libcryptoopenssl-OpenSSL_1_0_0i'
p2702
aS'libcryptoopenssl-OpenSSL_1_0_2m'
p2703
aS'libcryptoopenssl-OpenSSL_1_0_2'
p2704
aS'libcryptoopenssl-OpenSSL_0_9_8'
p2705
aS'libcryptoopenssl-OpenSSL_1_0_1t'
p2706
aS'libcryptoopenssl-OpenSSL_1_0_1s'
p2707
aS'libcryptoopenssl-OpenSSL_1_0_1r'
p2708
aS'libcryptoopenssl-OpenSSL_1_0_1q'
p2709
aS'libcryptoopenssl-OpenSSL_1_0_1p'
p2710
aS'libcryptoopenssl-OpenSSL_1_0_1o'
p2711
aS'libcryptoopenssl-OpenSSL_1_0_1n'
p2712
aS'libcryptoopenssl-OpenSSL_1_0_1m'
p2713
aS'libcryptoopenssl-OpenSSL_1_0_1l'
p2714
aS'libcryptoopenssl-OpenSSL_1_0_1k'
p2715
aS'libcryptoopenssl-OpenSSL_1_0_2h'
p2716
aS'libcryptoopenssl-OpenSSL_1_0_1i'
p2717
aS'libcryptoopenssl-OpenSSL_1_0_1h'
p2718
aS'libcryptoopenssl-OpenSSL_1_0_1g'
p2719
aS'libcryptoopenssl-OpenSSL_1_0_1f'
p2720
aS'libcryptoopenssl-OpenSSL_1_0_1e'
p2721
aS'libcryptoopenssl-OpenSSL_1_0_1d'
p2722
aS'libcryptoopenssl-OpenSSL_1_0_1c'
p2723
aS'libcryptoopenssl-OpenSSL_1_0_1b'
p2724
aS'libcryptoopenssl-OpenSSL_1_0_1a'
p2725
atp2726
Rp2727
sS'i2d_ASN1_BOOLEAN'
p2728
g2
((lp2729
tp2730
Rp2731
sS'X509_VERIFY_PARAM_set1_name'
p2732
g2
((lp2733
tp2734
Rp2735
sS'bn_cmp_words'
p2736
g2
((lp2737
tp2738
Rp2739
sS'aes_192_ecb_cipher'
p2740
g2
((lp2741
S'libcryptoopenssl-OpenSSL_0_9_7m'
p2742
aS'libcryptoopenssl-OpenSSL_0_9_7l'
p2743
aS'libcryptoopenssl-OpenSSL_0_9_7i'
p2744
aS'libcryptoopenssl-OpenSSL_0_9_7h'
p2745
aS'libcryptoopenssl-OpenSSL_0_9_7k'
p2746
aS'libcryptoopenssl-OpenSSL_0_9_7j'
p2747
aS'libcryptoopenssl-OpenSSL_0_9_7e'
p2748
aS'libcryptoopenssl-OpenSSL_0_9_7d'
p2749
aS'libcryptoopenssl-OpenSSL_0_9_7g'
p2750
aS'libcryptoopenssl-OpenSSL_0_9_7f'
p2751
aS'libcryptoopenssl-OpenSSL_0_9_7a'
p2752
aS'libcryptoopenssl-OpenSSL_0_9_7c'
p2753
aS'libcryptoopenssl-OpenSSL_0_9_7b'
p2754
aS'libcryptoopenssl-OpenSSL_0_9_8t'
p2755
aS'libcryptoopenssl-OpenSSL_0_9_8u'
p2756
aS'libcryptoopenssl-OpenSSL_0_9_8v'
p2757
aS'libcryptoopenssl-OpenSSL_0_9_8w'
p2758
aS'libcryptoopenssl-OpenSSL_0_9_8p'
p2759
aS'libcryptoopenssl-OpenSSL_0_9_8q'
p2760
aS'libcryptoopenssl-OpenSSL_0_9_8r'
p2761
aS'libcryptoopenssl-OpenSSL_0_9_8s'
p2762
aS'libcryptoopenssl-OpenSSL_0_9_8x'
p2763
aS'libcryptoopenssl-OpenSSL_0_9_8y'
p2764
aS'libcryptoopenssl-OpenSSL_0_9_8d'
p2765
aS'libcryptoopenssl-OpenSSL_0_9_8e'
p2766
aS'libcryptoopenssl-OpenSSL_0_9_8f'
p2767
aS'libcryptoopenssl-OpenSSL_0_9_8g'
p2768
aS'libcryptoopenssl-OpenSSL_0_9_8a'
p2769
aS'libcryptoopenssl-OpenSSL_0_9_8b'
p2770
aS'libcryptoopenssl-OpenSSL_0_9_8c'
p2771
aS'libcryptoopenssl-OpenSSL_0_9_8l'
p2772
aS'libcryptoopenssl-OpenSSL_0_9_8m'
p2773
aS'libcryptoopenssl-OpenSSL_0_9_8n'
p2774
aS'libcryptoopenssl-OpenSSL_0_9_8o'
p2775
aS'libcryptoopenssl-OpenSSL_0_9_8h'
p2776
aS'libcryptoopenssl-OpenSSL_0_9_8i'
p2777
aS'libcryptoopenssl-OpenSSL_0_9_8j'
p2778
aS'libcryptoopenssl-OpenSSL_0_9_8k'
p2779
aS'libcryptoopenssl-OpenSSL_0_9_8'
p2780
aS'libcryptoopenssl-OpenSSL_0_9_7'
p2781
atp2782
Rp2783
sS'X509_pubkey_digest'
p2784
g2
((lp2785
S'libcryptoopenssl-OpenSSL_1_0_2e'
p2786
aS'libcryptoopenssl-OpenSSL_1_0_1j'
p2787
aS'libcryptoopenssl-OpenSSL_1_0_0e'
p2788
aS'libcryptoopenssl-OpenSSL_1_0_0n'
p2789
aS'libcryptoopenssl-OpenSSL_1_0_2q'
p2790
aS'libcryptoopenssl-OpenSSL_1_0_1'
p2791
aS'libcryptoopenssl-OpenSSL_1_0_0'
p2792
aS'libcryptoopenssl-OpenSSL_1_0_0l'
p2793
aS'libcryptoopenssl-OpenSSL_1_0_2b'
p2794
aS'libcryptoopenssl-OpenSSL_1_0_0m'
p2795
aS'libcryptoopenssl-OpenSSL_0_9_8e'
p2796
aS'libcryptoopenssl-OpenSSL_1_0_0t'
p2797
aS'libcryptoopenssl-OpenSSL_1_0_2i'
p2798
aS'libcryptoopenssl-OpenSSL_1_0_0p'
p2799
aS'libcryptoopenssl-OpenSSL_1_0_0q'
p2800
aS'libcryptoopenssl-OpenSSL_1_0_0r'
p2801
aS'libcryptoopenssl-OpenSSL_1_0_0s'
p2802
aS'libcryptoopenssl-OpenSSL_1_0_2f'
p2803
aS'libcryptoopenssl-OpenSSL_1_0_2g'
p2804
aS'libcryptoopenssl-OpenSSL_1_0_2d'
p2805
aS'libcryptoopenssl-OpenSSL_1_0_0o'
p2806
aS'libcryptoopenssl-OpenSSL_1_0_0h'
p2807
aS'libcryptoopenssl-OpenSSL_1_0_2c'
p2808
aS'libcryptoopenssl-OpenSSL_1_0_0j'
p2809
aS'libcryptoopenssl-OpenSSL_1_0_2a'
p2810
aS'libcryptoopenssl-OpenSSL_1_0_2n'
p2811
aS'libcryptoopenssl-OpenSSL_1_0_2o'
p2812
aS'libcryptoopenssl-OpenSSL_1_0_0f'
p2813
aS'libcryptoopenssl-OpenSSL_1_0_0g'
p2814
aS'libcryptoopenssl-OpenSSL_1_0_2j'
p2815
aS'libcryptoopenssl-OpenSSL_1_0_0a'
p2816
aS'libcryptoopenssl-OpenSSL_1_0_0b'
p2817
aS'libcryptoopenssl-OpenSSL_1_0_0c'
p2818
aS'libcryptoopenssl-OpenSSL_0_9_8t'
p2819
aS'libcryptoopenssl-OpenSSL_0_9_8u'
p2820
aS'libcryptoopenssl-OpenSSL_0_9_8v'
p2821
aS'libcryptoopenssl-OpenSSL_0_9_8w'
p2822
aS'libcryptoopenssl-OpenSSL_0_9_8p'
p2823
aS'libcryptoopenssl-OpenSSL_0_9_8q'
p2824
aS'libcryptoopenssl-OpenSSL_0_9_8r'
p2825
aS'libcryptoopenssl-OpenSSL_0_9_8s'
p2826
aS'libcryptoopenssl-OpenSSL_1_0_0k'
p2827
aS'libcryptoopenssl-OpenSSL_0_9_8x'
p2828
aS'libcryptoopenssl-OpenSSL_0_9_8y'
p2829
aS'libcryptoopenssl-OpenSSL_0_9_8d'
p2830
aS'libcryptoopenssl-OpenSSL_1_0_0d'
p2831
aS'libcryptoopenssl-OpenSSL_0_9_8f'
p2832
aS'libcryptoopenssl-OpenSSL_0_9_8g'
p2833
aS'libcryptoopenssl-OpenSSL_1_0_2l'
p2834
aS'libcryptoopenssl-OpenSSL_0_9_8a'
p2835
aS'libcryptoopenssl-OpenSSL_0_9_8b'
p2836
aS'libcryptoopenssl-OpenSSL_0_9_8c'
p2837
aS'libcryptoopenssl-OpenSSL_0_9_8l'
p2838
aS'libcryptoopenssl-OpenSSL_0_9_8m'
p2839
aS'libcryptoopenssl-OpenSSL_0_9_8n'
p2840
aS'libcryptoopenssl-OpenSSL_0_9_8o'
p2841
aS'libcryptoopenssl-OpenSSL_0_9_8h'
p2842
aS'libcryptoopenssl-OpenSSL_0_9_8i'
p2843
aS'libcryptoopenssl-OpenSSL_0_9_8j'
p2844
aS'libcryptoopenssl-OpenSSL_0_9_8k'
p2845
aS'libcryptoopenssl-OpenSSL_1_0_2k'
p2846
aS'libcryptoopenssl-OpenSSL_1_0_0i'
p2847
aS'libcryptoopenssl-OpenSSL_1_0_2m'
p2848
aS'libcryptoopenssl-OpenSSL_1_0_2'
p2849
aS'libcryptoopenssl-OpenSSL_0_9_8'
p2850
aS'libcryptoopenssl-OpenSSL_1_0_1t'
p2851
aS'libcryptoopenssl-OpenSSL_1_0_1s'
p2852
aS'libcryptoopenssl-OpenSSL_1_0_1r'
p2853
aS'libcryptoopenssl-OpenSSL_1_0_1q'
p2854
aS'libcryptoopenssl-OpenSSL_1_0_1p'
p2855
aS'libcryptoopenssl-OpenSSL_1_0_1o'
p2856
aS'libcryptoopenssl-OpenSSL_1_0_1n'
p2857
aS'libcryptoopenssl-OpenSSL_1_0_1m'
p2858
aS'libcryptoopenssl-OpenSSL_1_0_1l'
p2859
aS'libcryptoopenssl-OpenSSL_1_0_1k'
p2860
aS'libcryptoopenssl-OpenSSL_1_0_2h'
p2861
aS'libcryptoopenssl-OpenSSL_1_0_1i'
p2862
aS'libcryptoopenssl-OpenSSL_1_0_1h'
p2863
aS'libcryptoopenssl-OpenSSL_1_0_1g'
p2864
aS'libcryptoopenssl-OpenSSL_1_0_1f'
p2865
aS'libcryptoopenssl-OpenSSL_1_0_1e'
p2866
aS'libcryptoopenssl-OpenSSL_1_0_1d'
p2867
aS'libcryptoopenssl-OpenSSL_1_0_1c'
p2868
aS'libcryptoopenssl-OpenSSL_1_0_1b'
p2869
aS'libcryptoopenssl-OpenSSL_1_0_1a'
p2870
atp2871
Rp2872
sS'BN_sub_word'
p2873
g2
((lp2874
tp2875
Rp2876
sS'EC_POINT_free'
p2877
g2
((lp2878
tp2879
Rp2880
sS'lh_free'
p2881
g2
((lp2882
tp2883
Rp2884
sS'BN_mod_lshift_quick'
p2885
g2
((lp2886
tp2887
Rp2888
sS'bn_sub_words'
p2889
g2
((lp2890
tp2891
Rp2892
sS'ripemd160_block_data_order'
p2893
g2
((lp2894
S'libcryptoopenssl-OpenSSL_1_0_2e'
p2895
aS'libcryptoopenssl-OpenSSL_1_1_0'
p2896
aS'libcryptoopenssl-OpenSSL_1_0_0l'
p2897
aS'libcryptoopenssl-OpenSSL_1_0_1j'
p2898
aS'libcryptoopenssl-OpenSSL_1_0_0n'
p2899
aS'libcryptoopenssl-OpenSSL_1_1_0h'
p2900
aS'libcryptoopenssl-OpenSSL_1_0_2q'
p2901
aS'libcryptoopenssl-OpenSSL_1_0_1'
p2902
aS'libcryptoopenssl-OpenSSL_0_9_8q'
p2903
aS'libcryptoopenssl-OpenSSL_1_1_0g'
p2904
aS'libcryptoopenssl-OpenSSL_1_0_2b'
p2905
aS'libcryptoopenssl-OpenSSL_1_0_0m'
p2906
aS'libcryptoopenssl-OpenSSL_1_0_0t'
p2907
aS'libcryptoopenssl-OpenSSL_1_0_2i'
p2908
aS'libcryptoopenssl-OpenSSL_1_0_0p'
p2909
aS'libcryptoopenssl-OpenSSL_1_1_0e'
p2910
aS'libcryptoopenssl-OpenSSL_1_0_0r'
p2911
aS'libcryptoopenssl-OpenSSL_1_0_0s'
p2912
aS'libcryptoopenssl-OpenSSL_1_0_2f'
p2913
aS'libcryptoopenssl-OpenSSL_1_0_2g'
p2914
aS'libcryptoopenssl-OpenSSL_1_0_2d'
p2915
aS'libcryptoopenssl-OpenSSL_1_0_0o'
p2916
aS'libcryptoopenssl-OpenSSL_1_1_0c'
p2917
aS'libcryptoopenssl-OpenSSL_1_1_0b'
p2918
aS'libcryptoopenssl-OpenSSL_1_1_0a'
p2919
aS'libcryptoopenssl-OpenSSL_1_0_2a'
p2920
aS'libcryptoopenssl-OpenSSL_1_0_2n'
p2921
aS'libcryptoopenssl-OpenSSL_1_0_2o'
p2922
aS'libcryptoopenssl-OpenSSL_1_0_0f'
p2923
aS'libcryptoopenssl-OpenSSL_1_0_0g'
p2924
aS'libcryptoopenssl-OpenSSL_1_0_2j'
p2925
aS'libcryptoopenssl-OpenSSL_1_0_0a'
p2926
aS'libcryptoopenssl-OpenSSL_1_0_0b'
p2927
aS'libcryptoopenssl-OpenSSL_1_0_2c'
p2928
aS'libcryptoopenssl-OpenSSL_0_9_8t'
p2929
aS'libcryptoopenssl-OpenSSL_0_9_8u'
p2930
aS'libcryptoopenssl-OpenSSL_0_9_8v'
p2931
aS'libcryptoopenssl-OpenSSL_0_9_8w'
p2932
aS'libcryptoopenssl-OpenSSL_0_9_8p'
p2933
aS'libcryptoopenssl-OpenSSL_1_0_0j'
p2934
aS'libcryptoopenssl-OpenSSL_0_9_8r'
p2935
aS'libcryptoopenssl-OpenSSL_0_9_8s'
p2936
aS'libcryptoopenssl-OpenSSL_1_0_2k'
p2937
aS'libcryptoopenssl-OpenSSL_1_0_0c'
p2938
aS'libcryptoopenssl-OpenSSL_1_0_0k'
p2939
aS'libcryptoopenssl-OpenSSL_0_9_8x'
p2940
aS'libcryptoopenssl-OpenSSL_0_9_8y'
p2941
aS'libcryptoopenssl-OpenSSL_1_0_0d'
p2942
aS'libcryptoopenssl-OpenSSL_1_0_2l'
p2943
aS'libcryptoopenssl-OpenSSL_1_0_0e'
p2944
aS'libcryptoopenssl-OpenSSL_0_9_8m'
p2945
aS'libcryptoopenssl-OpenSSL_0_9_8n'
p2946
aS'libcryptoopenssl-OpenSSL_0_9_8o'
p2947
aS'libcryptoopenssl-OpenSSL_1_0_2'
p2948
aS'libcryptoopenssl-OpenSSL_1_1_0d'
p2949
aS'libcryptoopenssl-OpenSSL_1_0_0'
p2950
aS'libcryptoopenssl-OpenSSL_1_0_0i'
p2951
aS'libcryptoopenssl-OpenSSL_1_0_2m'
p2952
aS'libcryptoopenssl-OpenSSL_1_1_0f'
p2953
aS'libcryptoopenssl-OpenSSL_1_0_0q'
p2954
aS'libcryptoopenssl-OpenSSL_1_0_1t'
p2955
aS'libcryptoopenssl-OpenSSL_1_0_1s'
p2956
aS'libcryptoopenssl-OpenSSL_1_0_1r'
p2957
aS'libcryptoopenssl-OpenSSL_1_0_1q'
p2958
aS'libcryptoopenssl-OpenSSL_1_0_1p'
p2959
aS'libcryptoopenssl-OpenSSL_1_0_1o'
p2960
aS'libcryptoopenssl-OpenSSL_1_0_1n'
p2961
aS'libcryptoopenssl-OpenSSL_1_0_1m'
p2962
aS'libcryptoopenssl-OpenSSL_1_0_1l'
p2963
aS'libcryptoopenssl-OpenSSL_1_0_1k'
p2964
aS'libcryptoopenssl-OpenSSL_1_0_2h'
p2965
aS'libcryptoopenssl-OpenSSL_1_0_1i'
p2966
aS'libcryptoopenssl-OpenSSL_1_0_1h'
p2967
aS'libcryptoopenssl-OpenSSL_1_0_1g'
p2968
aS'libcryptoopenssl-OpenSSL_1_0_1f'
p2969
aS'libcryptoopenssl-OpenSSL_1_0_1e'
p2970
aS'libcryptoopenssl-OpenSSL_1_0_1d'
p2971
aS'libcryptoopenssl-OpenSSL_1_0_1c'
p2972
aS'libcryptoopenssl-OpenSSL_1_0_1b'
p2973
aS'libcryptoopenssl-OpenSSL_1_0_1a'
p2974
aS'libcryptoopenssl-OpenSSL_1_0_0h'
p2975
atp2976
Rp2977
sS'BN_add'
p2978
g2
((lp2979
tp2980
Rp2981
sS'CRYPTO_free'
p2982
g2
((lp2983
tp2984
Rp2985
sS'MD5_Update'
p2986
g2
((lp2987
S'libcryptoopenssl-OpenSSL_0_9_8t'
p2988
aS'libcryptoopenssl-OpenSSL_0_9_8u'
p2989
aS'libcryptoopenssl-OpenSSL_0_9_8v'
p2990
aS'libcryptoopenssl-OpenSSL_0_9_8w'
p2991
aS'libcryptoopenssl-OpenSSL_0_9_8p'
p2992
aS'libcryptoopenssl-OpenSSL_0_9_8q'
p2993
aS'libcryptoopenssl-OpenSSL_0_9_8r'
p2994
aS'libcryptoopenssl-OpenSSL_0_9_8s'
p2995
aS'libcryptoopenssl-OpenSSL_0_9_8x'
p2996
aS'libcryptoopenssl-OpenSSL_0_9_8y'
p2997
aS'libcryptoopenssl-OpenSSL_0_9_8m'
p2998
aS'libcryptoopenssl-OpenSSL_0_9_8n'
p2999
aS'libcryptoopenssl-OpenSSL_0_9_8o'
p3000
atp3001
Rp3002
sS'_CONF_add_string'
p3003
g2
((lp3004
tp3005
Rp3006
sS'ASN1_item_d2i_bio'
p3007
g2
((lp3008
tp3009
Rp3010
sS'BUF_strlcpy'
p3011
g2
((lp3012
tp3013
Rp3014
sS'ssl3_get_server_done'
p3015
g2
((lp3016
tp3017
Rp3018
sS'EC_POINT_is_at_infinity'
p3019
g2
((lp3020
tp3021
Rp3022
sS'i2c_ASN1_BIT_STRING'
p3023
g2
((lp3024
S'libcryptoopenssl-OpenSSL_1_0_1'
p3025
aS'libcryptoopenssl-OpenSSL_1_0_0'
p3026
aS'libcryptoopenssl-OpenSSL_1_0_0h'
p3027
aS'libcryptoopenssl-OpenSSL_1_0_0i'
p3028
aS'libcryptoopenssl-OpenSSL_1_0_0j'
p3029
aS'libcryptoopenssl-OpenSSL_1_0_0k'
p3030
aS'libcryptoopenssl-OpenSSL_1_0_0d'
p3031
aS'libcryptoopenssl-OpenSSL_1_0_0e'
p3032
aS'libcryptoopenssl-OpenSSL_1_0_0f'
p3033
aS'libcryptoopenssl-OpenSSL_1_0_0g'
p3034
aS'libcryptoopenssl-OpenSSL_1_0_0a'
p3035
aS'libcryptoopenssl-OpenSSL_1_0_0b'
p3036
aS'libcryptoopenssl-OpenSSL_1_0_0c'
p3037
aS'libcryptoopenssl-OpenSSL_0_9_8t'
p3038
aS'libcryptoopenssl-OpenSSL_0_9_8u'
p3039
aS'libcryptoopenssl-OpenSSL_0_9_8v'
p3040
aS'libcryptoopenssl-OpenSSL_0_9_8w'
p3041
aS'libcryptoopenssl-OpenSSL_0_9_8p'
p3042
aS'libcryptoopenssl-OpenSSL_0_9_8q'
p3043
aS'libcryptoopenssl-OpenSSL_0_9_8r'
p3044
aS'libcryptoopenssl-OpenSSL_0_9_8s'
p3045
aS'libcryptoopenssl-OpenSSL_0_9_8x'
p3046
aS'libcryptoopenssl-OpenSSL_0_9_8y'
p3047
aS'libcryptoopenssl-OpenSSL_0_9_8d'
p3048
aS'libcryptoopenssl-OpenSSL_0_9_8e'
p3049
aS'libcryptoopenssl-OpenSSL_0_9_8f'
p3050
aS'libcryptoopenssl-OpenSSL_0_9_8g'
p3051
aS'libcryptoopenssl-OpenSSL_0_9_8b'
p3052
aS'libcryptoopenssl-OpenSSL_0_9_8c'
p3053
aS'libcryptoopenssl-OpenSSL_0_9_8l'
p3054
aS'libcryptoopenssl-OpenSSL_0_9_8m'
p3055
aS'libcryptoopenssl-OpenSSL_0_9_8n'
p3056
aS'libcryptoopenssl-OpenSSL_0_9_8o'
p3057
aS'libcryptoopenssl-OpenSSL_0_9_8h'
p3058
aS'libcryptoopenssl-OpenSSL_0_9_8i'
p3059
aS'libcryptoopenssl-OpenSSL_0_9_8j'
p3060
aS'libcryptoopenssl-OpenSSL_0_9_8k'
p3061
aS'libcryptoopenssl-OpenSSL_1_0_1e'
p3062
aS'libcryptoopenssl-OpenSSL_1_0_1d'
p3063
aS'libcryptoopenssl-OpenSSL_1_0_1c'
p3064
aS'libcryptoopenssl-OpenSSL_1_0_1b'
p3065
aS'libcryptoopenssl-OpenSSL_1_0_1a'
p3066
atp3067
Rp3068
sS'BN_mod_exp_mont'
p3069
g2
((lp3070
tp3071
Rp3072
sS'ASN1_item_digest'
p3073
g2
((lp3074
tp3075
Rp3076
sS'UI_get_string_type'
p3077
g2
((lp3078
S'libcryptoopenssl-OpenSSL_1_0_2'
p3079
aS'libcryptoopenssl-OpenSSL_1_0_1'
p3080
aS'libcryptoopenssl-OpenSSL_1_0_0'
p3081
aS'libcryptoopenssl-OpenSSL_1_0_0t'
p3082
aS'libcryptoopenssl-OpenSSL_1_0_0p'
p3083
aS'libcryptoopenssl-OpenSSL_1_0_0q'
p3084
aS'libcryptoopenssl-OpenSSL_1_0_0r'
p3085
aS'libcryptoopenssl-OpenSSL_1_0_0s'
p3086
aS'libcryptoopenssl-OpenSSL_1_0_0l'
p3087
aS'libcryptoopenssl-OpenSSL_1_0_0m'
p3088
aS'libcryptoopenssl-OpenSSL_1_0_0n'
p3089
aS'libcryptoopenssl-OpenSSL_1_0_0o'
p3090
aS'libcryptoopenssl-OpenSSL_1_0_0h'
p3091
aS'libcryptoopenssl-OpenSSL_1_0_0i'
p3092
aS'libcryptoopenssl-OpenSSL_1_0_0j'
p3093
aS'libcryptoopenssl-OpenSSL_1_0_0k'
p3094
aS'libcryptoopenssl-OpenSSL_1_0_0d'
p3095
aS'libcryptoopenssl-OpenSSL_1_0_0e'
p3096
aS'libcryptoopenssl-OpenSSL_1_0_0f'
p3097
aS'libcryptoopenssl-OpenSSL_1_0_0g'
p3098
aS'libcryptoopenssl-OpenSSL_1_0_0a'
p3099
aS'libcryptoopenssl-OpenSSL_1_0_0b'
p3100
aS'libcryptoopenssl-OpenSSL_1_0_0c'
p3101
aS'libcryptoopenssl-OpenSSL_0_9_8t'
p3102
aS'libcryptoopenssl-OpenSSL_0_9_8u'
p3103
aS'libcryptoopenssl-OpenSSL_0_9_8v'
p3104
aS'libcryptoopenssl-OpenSSL_0_9_8w'
p3105
aS'libcryptoopenssl-OpenSSL_0_9_8p'
p3106
aS'libcryptoopenssl-OpenSSL_0_9_8q'
p3107
aS'libcryptoopenssl-OpenSSL_0_9_8r'
p3108
aS'libcryptoopenssl-OpenSSL_0_9_8s'
p3109
aS'libcryptoopenssl-OpenSSL_0_9_8x'
p3110
aS'libcryptoopenssl-OpenSSL_0_9_8y'
p3111
aS'libcryptoopenssl-OpenSSL_0_9_8d'
p3112
aS'libcryptoopenssl-OpenSSL_0_9_8e'
p3113
aS'libcryptoopenssl-OpenSSL_0_9_8f'
p3114
aS'libcryptoopenssl-OpenSSL_0_9_8g'
p3115
aS'libcryptoopenssl-OpenSSL_0_9_8a'
p3116
aS'libcryptoopenssl-OpenSSL_0_9_8b'
p3117
aS'libcryptoopenssl-OpenSSL_0_9_8c'
p3118
aS'libcryptoopenssl-OpenSSL_0_9_8l'
p3119
aS'libcryptoopenssl-OpenSSL_0_9_8m'
p3120
aS'libcryptoopenssl-OpenSSL_0_9_8n'
p3121
aS'libcryptoopenssl-OpenSSL_0_9_8o'
p3122
aS'libcryptoopenssl-OpenSSL_0_9_8h'
p3123
aS'libcryptoopenssl-OpenSSL_0_9_8i'
p3124
aS'libcryptoopenssl-OpenSSL_0_9_8j'
p3125
aS'libcryptoopenssl-OpenSSL_0_9_8k'
p3126
aS'libcryptoopenssl-OpenSSL_1_0_1t'
p3127
aS'libcryptoopenssl-OpenSSL_1_0_1s'
p3128
aS'libcryptoopenssl-OpenSSL_1_0_1r'
p3129
aS'libcryptoopenssl-OpenSSL_1_0_1q'
p3130
aS'libcryptoopenssl-OpenSSL_1_0_1p'
p3131
aS'libcryptoopenssl-OpenSSL_1_0_1o'
p3132
aS'libcryptoopenssl-OpenSSL_1_0_1n'
p3133
aS'libcryptoopenssl-OpenSSL_1_0_1m'
p3134
aS'libcryptoopenssl-OpenSSL_1_0_1l'
p3135
aS'libcryptoopenssl-OpenSSL_1_0_1k'
p3136
aS'libcryptoopenssl-OpenSSL_1_0_1j'
p3137
aS'libcryptoopenssl-OpenSSL_1_0_1i'
p3138
aS'libcryptoopenssl-OpenSSL_1_0_1h'
p3139
aS'libcryptoopenssl-OpenSSL_1_0_1g'
p3140
aS'libcryptoopenssl-OpenSSL_1_0_1f'
p3141
aS'libcryptoopenssl-OpenSSL_1_0_1e'
p3142
aS'libcryptoopenssl-OpenSSL_1_0_1d'
p3143
aS'libcryptoopenssl-OpenSSL_1_0_1c'
p3144
aS'libcryptoopenssl-OpenSSL_1_0_1b'
p3145
aS'libcryptoopenssl-OpenSSL_1_0_1a'
p3146
aS'libcryptoopenssl-OpenSSL_1_1_0'
p3147
aS'libcryptoopenssl-OpenSSL_1_0_2q'
p3148
aS'libcryptoopenssl-OpenSSL_1_0_2f'
p3149
aS'libcryptoopenssl-OpenSSL_1_0_2g'
p3150
aS'libcryptoopenssl-OpenSSL_1_0_2d'
p3151
aS'libcryptoopenssl-OpenSSL_1_0_2e'
p3152
aS'libcryptoopenssl-OpenSSL_1_0_2b'
p3153
aS'libcryptoopenssl-OpenSSL_1_0_2c'
p3154
aS'libcryptoopenssl-OpenSSL_1_0_2a'
p3155
aS'libcryptoopenssl-OpenSSL_1_0_2n'
p3156
aS'libcryptoopenssl-OpenSSL_1_0_2o'
p3157
aS'libcryptoopenssl-OpenSSL_1_0_2l'
p3158
aS'libcryptoopenssl-OpenSSL_1_0_2m'
p3159
aS'libcryptoopenssl-OpenSSL_1_0_2j'
p3160
aS'libcryptoopenssl-OpenSSL_1_0_2k'
p3161
aS'libcryptoopenssl-OpenSSL_1_0_2h'
p3162
aS'libcryptoopenssl-OpenSSL_1_0_2i'
p3163
aS'libcryptoopenssl-OpenSSL_0_9_7m'
p3164
aS'libcryptoopenssl-OpenSSL_0_9_7l'
p3165
aS'libcryptoopenssl-OpenSSL_0_9_7i'
p3166
aS'libcryptoopenssl-OpenSSL_0_9_7h'
p3167
aS'libcryptoopenssl-OpenSSL_0_9_7k'
p3168
aS'libcryptoopenssl-OpenSSL_0_9_7j'
p3169
aS'libcryptoopenssl-OpenSSL_0_9_7e'
p3170
aS'libcryptoopenssl-OpenSSL_0_9_7d'
p3171
aS'libcryptoopenssl-OpenSSL_0_9_7g'
p3172
aS'libcryptoopenssl-OpenSSL_0_9_7f'
p3173
aS'libcryptoopenssl-OpenSSL_0_9_7a'
p3174
aS'libcryptoopenssl-OpenSSL_0_9_7c'
p3175
aS'libcryptoopenssl-OpenSSL_0_9_7b'
p3176
aS'libcryptoopenssl-OpenSSL_0_9_8'
p3177
aS'libcryptoopenssl-OpenSSL_0_9_7'
p3178
atp3179
Rp3180
sS'dtls1_clear'
p3181
g2
((lp3182
S'libsslopenssl-OpenSSL_1_0_1'
p3183
aS'libsslopenssl-OpenSSL_1_0_1e'
p3184
aS'libsslopenssl-OpenSSL_1_0_1g'
p3185
aS'libsslopenssl-OpenSSL_1_0_1f'
p3186
aS'libsslopenssl-OpenSSL_1_0_0f'
p3187
aS'libsslopenssl-OpenSSL_1_0_1d'
p3188
aS'libsslopenssl-OpenSSL_1_0_1c'
p3189
aS'libsslopenssl-OpenSSL_1_0_1b'
p3190
aS'libsslopenssl-OpenSSL_1_0_1a'
p3191
aS'libsslopenssl-OpenSSL_1_0_0l'
p3192
aS'libsslopenssl-OpenSSL_1_0_0g'
p3193
aS'libsslopenssl-OpenSSL_1_0_0k'
p3194
atp3195
Rp3196
sS'PKCS7_SIGNER_INFO_set'
p3197
g2
((lp3198
S'libcryptoopenssl-OpenSSL_0_9_8t'
p3199
aS'libcryptoopenssl-OpenSSL_0_9_8u'
p3200
aS'libcryptoopenssl-OpenSSL_0_9_8v'
p3201
aS'libcryptoopenssl-OpenSSL_0_9_8w'
p3202
aS'libcryptoopenssl-OpenSSL_0_9_8p'
p3203
aS'libcryptoopenssl-OpenSSL_0_9_8q'
p3204
aS'libcryptoopenssl-OpenSSL_0_9_8r'
p3205
aS'libcryptoopenssl-OpenSSL_0_9_8s'
p3206
aS'libcryptoopenssl-OpenSSL_0_9_8x'
p3207
aS'libcryptoopenssl-OpenSSL_0_9_8y'
p3208
aS'libcryptoopenssl-OpenSSL_0_9_8e'
p3209
aS'libcryptoopenssl-OpenSSL_0_9_8f'
p3210
aS'libcryptoopenssl-OpenSSL_0_9_8g'
p3211
aS'libcryptoopenssl-OpenSSL_0_9_8l'
p3212
aS'libcryptoopenssl-OpenSSL_0_9_8m'
p3213
aS'libcryptoopenssl-OpenSSL_0_9_8n'
p3214
aS'libcryptoopenssl-OpenSSL_0_9_8o'
p3215
aS'libcryptoopenssl-OpenSSL_0_9_8h'
p3216
aS'libcryptoopenssl-OpenSSL_0_9_8i'
p3217
aS'libcryptoopenssl-OpenSSL_0_9_8j'
p3218
aS'libcryptoopenssl-OpenSSL_0_9_8k'
p3219
atp3220
Rp3221
sS'obj_name_cmp'
p3222
g2
((lp3223
S'libcryptoopenssl-OpenSSL_0_9_8t'
p3224
atp3225
Rp3226
sS'BN_ucmp'
p3227
g2
((lp3228
tp3229
Rp3230
sS'BN_mod_mul_montgomery'
p3231
g2
((lp3232
tp3233
Rp3234
sS'_x86_64_AES_encrypt'
p3235
g2
((lp3236
S'libcryptoopenssl-OpenSSL_0_9_8t'
p3237
aS'libcryptoopenssl-OpenSSL_0_9_8u'
p3238
aS'libcryptoopenssl-OpenSSL_0_9_8v'
p3239
aS'libcryptoopenssl-OpenSSL_0_9_8w'
p3240
aS'libcryptoopenssl-OpenSSL_0_9_8p'
p3241
aS'libcryptoopenssl-OpenSSL_0_9_8q'
p3242
aS'libcryptoopenssl-OpenSSL_0_9_8r'
p3243
aS'libcryptoopenssl-OpenSSL_0_9_8s'
p3244
aS'libcryptoopenssl-OpenSSL_0_9_8x'
p3245
aS'libcryptoopenssl-OpenSSL_0_9_8y'
p3246
aS'libcryptoopenssl-OpenSSL_0_9_8m'
p3247
aS'libcryptoopenssl-OpenSSL_0_9_8n'
p3248
aS'libcryptoopenssl-OpenSSL_0_9_8o'
p3249
atp3250
Rp3251
sS'idea_ofb64_encrypt'
p3252
g2
((lp3253
S'libcryptoopenssl-OpenSSL_0_9_7m'
p3254
aS'libcryptoopenssl-OpenSSL_0_9_7l'
p3255
aS'libcryptoopenssl-OpenSSL_0_9_7i'
p3256
aS'libcryptoopenssl-OpenSSL_0_9_7h'
p3257
aS'libcryptoopenssl-OpenSSL_0_9_7k'
p3258
aS'libcryptoopenssl-OpenSSL_0_9_7j'
p3259
aS'libcryptoopenssl-OpenSSL_0_9_7e'
p3260
aS'libcryptoopenssl-OpenSSL_0_9_7d'
p3261
aS'libcryptoopenssl-OpenSSL_0_9_7g'
p3262
aS'libcryptoopenssl-OpenSSL_0_9_7f'
p3263
aS'libcryptoopenssl-OpenSSL_0_9_7a'
p3264
aS'libcryptoopenssl-OpenSSL_0_9_7c'
p3265
aS'libcryptoopenssl-OpenSSL_0_9_7b'
p3266
aS'libcryptoopenssl-OpenSSL_0_9_8t'
p3267
aS'libcryptoopenssl-OpenSSL_0_9_8u'
p3268
aS'libcryptoopenssl-OpenSSL_0_9_8v'
p3269
aS'libcryptoopenssl-OpenSSL_0_9_8w'
p3270
aS'libcryptoopenssl-OpenSSL_0_9_8p'
p3271
aS'libcryptoopenssl-OpenSSL_0_9_8q'
p3272
aS'libcryptoopenssl-OpenSSL_0_9_8r'
p3273
aS'libcryptoopenssl-OpenSSL_0_9_8s'
p3274
aS'libcryptoopenssl-OpenSSL_0_9_8x'
p3275
aS'libcryptoopenssl-OpenSSL_0_9_8y'
p3276
aS'libcryptoopenssl-OpenSSL_0_9_8d'
p3277
aS'libcryptoopenssl-OpenSSL_0_9_8e'
p3278
aS'libcryptoopenssl-OpenSSL_0_9_8f'
p3279
aS'libcryptoopenssl-OpenSSL_0_9_8g'
p3280
aS'libcryptoopenssl-OpenSSL_0_9_8a'
p3281
aS'libcryptoopenssl-OpenSSL_0_9_8b'
p3282
aS'libcryptoopenssl-OpenSSL_0_9_8c'
p3283
aS'libcryptoopenssl-OpenSSL_0_9_8l'
p3284
aS'libcryptoopenssl-OpenSSL_0_9_8m'
p3285
aS'libcryptoopenssl-OpenSSL_0_9_8n'
p3286
aS'libcryptoopenssl-OpenSSL_0_9_8o'
p3287
aS'libcryptoopenssl-OpenSSL_0_9_8h'
p3288
aS'libcryptoopenssl-OpenSSL_0_9_8i'
p3289
aS'libcryptoopenssl-OpenSSL_0_9_8j'
p3290
aS'libcryptoopenssl-OpenSSL_0_9_8k'
p3291
aS'libcryptoopenssl-OpenSSL_0_9_8'
p3292
aS'libcryptoopenssl-OpenSSL_0_9_7'
p3293
atp3294
Rp3295
sS'RC2_ecb_encrypt'
p3296
g2
((lp3297
S'libcryptoopenssl-OpenSSL_0_9_7m'
p3298
aS'libcryptoopenssl-OpenSSL_0_9_7l'
p3299
aS'libcryptoopenssl-OpenSSL_0_9_7i'
p3300
aS'libcryptoopenssl-OpenSSL_0_9_7h'
p3301
aS'libcryptoopenssl-OpenSSL_0_9_7k'
p3302
aS'libcryptoopenssl-OpenSSL_0_9_7j'
p3303
aS'libcryptoopenssl-OpenSSL_0_9_7e'
p3304
aS'libcryptoopenssl-OpenSSL_0_9_7d'
p3305
aS'libcryptoopenssl-OpenSSL_0_9_7g'
p3306
aS'libcryptoopenssl-OpenSSL_0_9_7f'
p3307
aS'libcryptoopenssl-OpenSSL_0_9_7a'
p3308
aS'libcryptoopenssl-OpenSSL_0_9_7c'
p3309
aS'libcryptoopenssl-OpenSSL_0_9_7b'
p3310
aS'libcryptoopenssl-OpenSSL_0_9_8t'
p3311
aS'libcryptoopenssl-OpenSSL_0_9_8u'
p3312
aS'libcryptoopenssl-OpenSSL_0_9_8v'
p3313
aS'libcryptoopenssl-OpenSSL_0_9_8w'
p3314
aS'libcryptoopenssl-OpenSSL_0_9_8p'
p3315
aS'libcryptoopenssl-OpenSSL_0_9_8q'
p3316
aS'libcryptoopenssl-OpenSSL_0_9_8r'
p3317
aS'libcryptoopenssl-OpenSSL_0_9_8s'
p3318
aS'libcryptoopenssl-OpenSSL_0_9_8x'
p3319
aS'libcryptoopenssl-OpenSSL_0_9_8y'
p3320
aS'libcryptoopenssl-OpenSSL_0_9_8d'
p3321
aS'libcryptoopenssl-OpenSSL_0_9_8e'
p3322
aS'libcryptoopenssl-OpenSSL_0_9_8f'
p3323
aS'libcryptoopenssl-OpenSSL_0_9_8g'
p3324
aS'libcryptoopenssl-OpenSSL_0_9_8a'
p3325
aS'libcryptoopenssl-OpenSSL_0_9_8b'
p3326
aS'libcryptoopenssl-OpenSSL_0_9_8c'
p3327
aS'libcryptoopenssl-OpenSSL_0_9_8l'
p3328
aS'libcryptoopenssl-OpenSSL_0_9_8m'
p3329
aS'libcryptoopenssl-OpenSSL_0_9_8n'
p3330
aS'libcryptoopenssl-OpenSSL_0_9_8o'
p3331
aS'libcryptoopenssl-OpenSSL_0_9_8h'
p3332
aS'libcryptoopenssl-OpenSSL_0_9_8i'
p3333
aS'libcryptoopenssl-OpenSSL_0_9_8j'
p3334
aS'libcryptoopenssl-OpenSSL_0_9_8k'
p3335
aS'libcryptoopenssl-OpenSSL_0_9_8'
p3336
aS'libcryptoopenssl-OpenSSL_0_9_7'
p3337
atp3338
Rp3339
sS'_x86_64_AES_set_encrypt_key'
p3340
g2
((lp3341
S'libcryptoopenssl-OpenSSL_0_9_8t'
p3342
aS'libcryptoopenssl-OpenSSL_0_9_8u'
p3343
aS'libcryptoopenssl-OpenSSL_0_9_8v'
p3344
aS'libcryptoopenssl-OpenSSL_0_9_8w'
p3345
aS'libcryptoopenssl-OpenSSL_0_9_8p'
p3346
aS'libcryptoopenssl-OpenSSL_0_9_8q'
p3347
aS'libcryptoopenssl-OpenSSL_0_9_8r'
p3348
aS'libcryptoopenssl-OpenSSL_0_9_8s'
p3349
aS'libcryptoopenssl-OpenSSL_0_9_8x'
p3350
aS'libcryptoopenssl-OpenSSL_0_9_8y'
p3351
aS'libcryptoopenssl-OpenSSL_0_9_8o'
p3352
atp3353
Rp3354
sS'BN_BLINDING_free'
p3355
g2
((lp3356
tp3357
Rp3358
sS'ec_GFp_simple_set_compressed_coordinates'
p3359
g2
((lp3360
tp3361
Rp3362
sS'bn_sqr_recursive'
p3363
g2
((lp3364
tp3365
Rp3366
sS'BN_CTX_new'
p3367
g2
((lp3368
tp3369
Rp3370
sS'X509_NAME_get_entry'
p3371
g2
((lp3372
S'libcryptoopenssl-OpenSSL_0_9_8t'
p3373
atp3374
Rp3375
sS'buffer_ctrl'
p3376
g2
((lp3377
S'libcryptoopenssl-OpenSSL_1_0_2e'
p3378
aS'libcryptoopenssl-OpenSSL_1_0_0n'
p3379
aS'libcryptoopenssl-OpenSSL_1_0_2q'
p3380
aS'libcryptoopenssl-OpenSSL_1_0_1'
p3381
aS'libcryptoopenssl-OpenSSL_1_0_0l'
p3382
aS'libcryptoopenssl-OpenSSL_1_0_2b'
p3383
aS'libcryptoopenssl-OpenSSL_1_0_0m'
p3384
aS'libcryptoopenssl-OpenSSL_1_0_0t'
p3385
aS'libcryptoopenssl-OpenSSL_1_0_2i'
p3386
aS'libcryptoopenssl-OpenSSL_1_0_0p'
p3387
aS'libcryptoopenssl-OpenSSL_1_0_0q'
p3388
aS'libcryptoopenssl-OpenSSL_1_0_0r'
p3389
aS'libcryptoopenssl-OpenSSL_1_0_0s'
p3390
aS'libcryptoopenssl-OpenSSL_1_0_2f'
p3391
aS'libcryptoopenssl-OpenSSL_1_0_2g'
p3392
aS'libcryptoopenssl-OpenSSL_1_0_2d'
p3393
aS'libcryptoopenssl-OpenSSL_1_0_0o'
p3394
aS'libcryptoopenssl-OpenSSL_1_0_0h'
p3395
aS'libcryptoopenssl-OpenSSL_1_0_2c'
p3396
aS'libcryptoopenssl-OpenSSL_1_0_0j'
p3397
aS'libcryptoopenssl-OpenSSL_1_0_2a'
p3398
aS'libcryptoopenssl-OpenSSL_1_0_2n'
p3399
aS'libcryptoopenssl-OpenSSL_1_0_2o'
p3400
aS'libcryptoopenssl-OpenSSL_1_0_0f'
p3401
aS'libcryptoopenssl-OpenSSL_1_0_0g'
p3402
aS'libcryptoopenssl-OpenSSL_1_0_2j'
p3403
aS'libcryptoopenssl-OpenSSL_1_0_2k'
p3404
aS'libcryptoopenssl-OpenSSL_1_0_2h'
p3405
aS'libcryptoopenssl-OpenSSL_1_0_0i'
p3406
aS'libcryptoopenssl-OpenSSL_0_9_8t'
p3407
aS'libcryptoopenssl-OpenSSL_0_9_8u'
p3408
aS'libcryptoopenssl-OpenSSL_0_9_8v'
p3409
aS'libcryptoopenssl-OpenSSL_0_9_8w'
p3410
aS'libcryptoopenssl-OpenSSL_0_9_8s'
p3411
aS'libcryptoopenssl-OpenSSL_1_0_0k'
p3412
aS'libcryptoopenssl-OpenSSL_0_9_8x'
p3413
aS'libcryptoopenssl-OpenSSL_0_9_8y'
p3414
aS'libcryptoopenssl-OpenSSL_1_0_2'
p3415
aS'libcryptoopenssl-OpenSSL_1_0_2l'
p3416
aS'libcryptoopenssl-OpenSSL_1_0_2m'
p3417
aS'libcryptoopenssl-OpenSSL_1_0_1t'
p3418
aS'libcryptoopenssl-OpenSSL_1_0_1s'
p3419
aS'libcryptoopenssl-OpenSSL_1_0_1r'
p3420
aS'libcryptoopenssl-OpenSSL_1_0_1q'
p3421
aS'libcryptoopenssl-OpenSSL_1_0_1p'
p3422
aS'libcryptoopenssl-OpenSSL_1_0_1o'
p3423
aS'libcryptoopenssl-OpenSSL_1_0_1n'
p3424
aS'libcryptoopenssl-OpenSSL_1_0_1m'
p3425
aS'libcryptoopenssl-OpenSSL_1_0_1l'
p3426
aS'libcryptoopenssl-OpenSSL_1_0_1k'
p3427
aS'libcryptoopenssl-OpenSSL_1_0_1j'
p3428
aS'libcryptoopenssl-OpenSSL_1_0_1i'
p3429
aS'libcryptoopenssl-OpenSSL_1_0_1h'
p3430
aS'libcryptoopenssl-OpenSSL_1_0_1g'
p3431
aS'libcryptoopenssl-OpenSSL_1_0_1f'
p3432
aS'libcryptoopenssl-OpenSSL_1_0_1e'
p3433
aS'libcryptoopenssl-OpenSSL_1_0_1d'
p3434
aS'libcryptoopenssl-OpenSSL_1_0_1c'
p3435
aS'libcryptoopenssl-OpenSSL_1_0_1b'
p3436
aS'libcryptoopenssl-OpenSSL_1_0_1a'
p3437
atp3438
Rp3439
sS'def_load_bio'
p3440
g2
((lp3441
tp3442
Rp3443
sS'BN_CTX_get'
p3444
g2
((lp3445
tp3446
Rp3447
sS'bf_ecb_cipher'
p3448
g2
((lp3449
S'libcryptoopenssl-OpenSSL_0_9_7m'
p3450
aS'libcryptoopenssl-OpenSSL_0_9_7l'
p3451
aS'libcryptoopenssl-OpenSSL_0_9_7i'
p3452
aS'libcryptoopenssl-OpenSSL_0_9_7h'
p3453
aS'libcryptoopenssl-OpenSSL_0_9_7k'
p3454
aS'libcryptoopenssl-OpenSSL_0_9_7j'
p3455
aS'libcryptoopenssl-OpenSSL_0_9_7e'
p3456
aS'libcryptoopenssl-OpenSSL_0_9_7d'
p3457
aS'libcryptoopenssl-OpenSSL_0_9_7g'
p3458
aS'libcryptoopenssl-OpenSSL_0_9_7f'
p3459
aS'libcryptoopenssl-OpenSSL_0_9_7a'
p3460
aS'libcryptoopenssl-OpenSSL_0_9_7c'
p3461
aS'libcryptoopenssl-OpenSSL_0_9_7b'
p3462
aS'libcryptoopenssl-OpenSSL_0_9_8t'
p3463
aS'libcryptoopenssl-OpenSSL_0_9_8u'
p3464
aS'libcryptoopenssl-OpenSSL_0_9_8v'
p3465
aS'libcryptoopenssl-OpenSSL_0_9_8w'
p3466
aS'libcryptoopenssl-OpenSSL_0_9_8p'
p3467
aS'libcryptoopenssl-OpenSSL_0_9_8q'
p3468
aS'libcryptoopenssl-OpenSSL_0_9_8r'
p3469
aS'libcryptoopenssl-OpenSSL_0_9_8s'
p3470
aS'libcryptoopenssl-OpenSSL_0_9_8x'
p3471
aS'libcryptoopenssl-OpenSSL_0_9_8y'
p3472
aS'libcryptoopenssl-OpenSSL_0_9_8d'
p3473
aS'libcryptoopenssl-OpenSSL_0_9_8e'
p3474
aS'libcryptoopenssl-OpenSSL_0_9_8f'
p3475
aS'libcryptoopenssl-OpenSSL_0_9_8g'
p3476
aS'libcryptoopenssl-OpenSSL_0_9_8a'
p3477
aS'libcryptoopenssl-OpenSSL_0_9_8b'
p3478
aS'libcryptoopenssl-OpenSSL_0_9_8c'
p3479
aS'libcryptoopenssl-OpenSSL_0_9_8l'
p3480
aS'libcryptoopenssl-OpenSSL_0_9_8m'
p3481
aS'libcryptoopenssl-OpenSSL_0_9_8n'
p3482
aS'libcryptoopenssl-OpenSSL_0_9_8o'
p3483
aS'libcryptoopenssl-OpenSSL_0_9_8h'
p3484
aS'libcryptoopenssl-OpenSSL_0_9_8i'
p3485
aS'libcryptoopenssl-OpenSSL_0_9_8j'
p3486
aS'libcryptoopenssl-OpenSSL_0_9_8k'
p3487
aS'libcryptoopenssl-OpenSSL_0_9_8'
p3488
aS'libcryptoopenssl-OpenSSL_0_9_7'
p3489
atp3490
Rp3491
sS'PEM_read_ECPrivateKey'
p3492
g2
((lp3493
tp3494
Rp3495
sS'lh_strhash'
p3496
g2
((lp3497
S'libcryptoopenssl-OpenSSL_0_9_8t'
p3498
atp3499
Rp3500
sS'X509V3_conf_free'
p3501
g2
((lp3502
tp3503
Rp3504
sS'ASN1_STRING_set0'
p3505
g2
((lp3506
tp3507
Rp3508
sS'BN_mul'
p3509
g2
((lp3510
tp3511
Rp3512
sS'bn_mul_normal'
p3513
g2
((lp3514
tp3515
Rp3516
sS'xptable_free'
p3517
g2
((lp3518
tp3519
Rp3520
sS'ec_GFp_simple_group_check_discriminant'
p3521
g2
((lp3522
tp3523
Rp3524
sS'd2i_ocsp_nonce'
p3525
g2
((lp3526
tp3527
Rp3528
sS'BN_mul_word'
p3529
g2
((lp3530
tp3531
Rp3532
sS'idea_ecb_encrypt'
p3533
g2
((lp3534
S'libcryptoopenssl-OpenSSL_0_9_7m'
p3535
aS'libcryptoopenssl-OpenSSL_0_9_7l'
p3536
aS'libcryptoopenssl-OpenSSL_0_9_7i'
p3537
aS'libcryptoopenssl-OpenSSL_0_9_7h'
p3538
aS'libcryptoopenssl-OpenSSL_0_9_7k'
p3539
aS'libcryptoopenssl-OpenSSL_0_9_7j'
p3540
aS'libcryptoopenssl-OpenSSL_0_9_7e'
p3541
aS'libcryptoopenssl-OpenSSL_0_9_7d'
p3542
aS'libcryptoopenssl-OpenSSL_0_9_7g'
p3543
aS'libcryptoopenssl-OpenSSL_0_9_7f'
p3544
aS'libcryptoopenssl-OpenSSL_0_9_7a'
p3545
aS'libcryptoopenssl-OpenSSL_0_9_7c'
p3546
aS'libcryptoopenssl-OpenSSL_0_9_7b'
p3547
aS'libcryptoopenssl-OpenSSL_0_9_8t'
p3548
aS'libcryptoopenssl-OpenSSL_0_9_8u'
p3549
aS'libcryptoopenssl-OpenSSL_0_9_8v'
p3550
aS'libcryptoopenssl-OpenSSL_0_9_8w'
p3551
aS'libcryptoopenssl-OpenSSL_0_9_8p'
p3552
aS'libcryptoopenssl-OpenSSL_0_9_8q'
p3553
aS'libcryptoopenssl-OpenSSL_0_9_8r'
p3554
aS'libcryptoopenssl-OpenSSL_0_9_8s'
p3555
aS'libcryptoopenssl-OpenSSL_0_9_8x'
p3556
aS'libcryptoopenssl-OpenSSL_0_9_8y'
p3557
aS'libcryptoopenssl-OpenSSL_0_9_8d'
p3558
aS'libcryptoopenssl-OpenSSL_0_9_8e'
p3559
aS'libcryptoopenssl-OpenSSL_0_9_8f'
p3560
aS'libcryptoopenssl-OpenSSL_0_9_8g'
p3561
aS'libcryptoopenssl-OpenSSL_0_9_8a'
p3562
aS'libcryptoopenssl-OpenSSL_0_9_8b'
p3563
aS'libcryptoopenssl-OpenSSL_0_9_8c'
p3564
aS'libcryptoopenssl-OpenSSL_0_9_8l'
p3565
aS'libcryptoopenssl-OpenSSL_0_9_8m'
p3566
aS'libcryptoopenssl-OpenSSL_0_9_8n'
p3567
aS'libcryptoopenssl-OpenSSL_0_9_8o'
p3568
aS'libcryptoopenssl-OpenSSL_0_9_8h'
p3569
aS'libcryptoopenssl-OpenSSL_0_9_8i'
p3570
aS'libcryptoopenssl-OpenSSL_0_9_8j'
p3571
aS'libcryptoopenssl-OpenSSL_0_9_8k'
p3572
aS'libcryptoopenssl-OpenSSL_0_9_8'
p3573
aS'libcryptoopenssl-OpenSSL_0_9_7'
p3574
atp3575
Rp3576
sS'idea_encrypt'
p3577
g2
((lp3578
S'libcryptoopenssl-OpenSSL_0_9_7m'
p3579
aS'libcryptoopenssl-OpenSSL_0_9_7l'
p3580
aS'libcryptoopenssl-OpenSSL_0_9_7i'
p3581
aS'libcryptoopenssl-OpenSSL_0_9_7h'
p3582
aS'libcryptoopenssl-OpenSSL_0_9_7k'
p3583
aS'libcryptoopenssl-OpenSSL_0_9_7j'
p3584
aS'libcryptoopenssl-OpenSSL_0_9_7e'
p3585
aS'libcryptoopenssl-OpenSSL_0_9_7d'
p3586
aS'libcryptoopenssl-OpenSSL_0_9_7g'
p3587
aS'libcryptoopenssl-OpenSSL_0_9_7f'
p3588
aS'libcryptoopenssl-OpenSSL_0_9_7a'
p3589
aS'libcryptoopenssl-OpenSSL_0_9_7c'
p3590
aS'libcryptoopenssl-OpenSSL_0_9_7b'
p3591
aS'libcryptoopenssl-OpenSSL_0_9_8t'
p3592
aS'libcryptoopenssl-OpenSSL_0_9_8u'
p3593
aS'libcryptoopenssl-OpenSSL_0_9_8v'
p3594
aS'libcryptoopenssl-OpenSSL_0_9_8w'
p3595
aS'libcryptoopenssl-OpenSSL_0_9_8p'
p3596
aS'libcryptoopenssl-OpenSSL_0_9_8q'
p3597
aS'libcryptoopenssl-OpenSSL_0_9_8r'
p3598
aS'libcryptoopenssl-OpenSSL_0_9_8s'
p3599
aS'libcryptoopenssl-OpenSSL_0_9_8x'
p3600
aS'libcryptoopenssl-OpenSSL_0_9_8y'
p3601
aS'libcryptoopenssl-OpenSSL_0_9_8d'
p3602
aS'libcryptoopenssl-OpenSSL_0_9_8e'
p3603
aS'libcryptoopenssl-OpenSSL_0_9_8f'
p3604
aS'libcryptoopenssl-OpenSSL_0_9_8g'
p3605
aS'libcryptoopenssl-OpenSSL_0_9_8a'
p3606
aS'libcryptoopenssl-OpenSSL_0_9_8b'
p3607
aS'libcryptoopenssl-OpenSSL_0_9_8c'
p3608
aS'libcryptoopenssl-OpenSSL_0_9_8l'
p3609
aS'libcryptoopenssl-OpenSSL_0_9_8m'
p3610
aS'libcryptoopenssl-OpenSSL_0_9_8n'
p3611
aS'libcryptoopenssl-OpenSSL_0_9_8o'
p3612
aS'libcryptoopenssl-OpenSSL_0_9_8h'
p3613
aS'libcryptoopenssl-OpenSSL_0_9_8i'
p3614
aS'libcryptoopenssl-OpenSSL_0_9_8j'
p3615
aS'libcryptoopenssl-OpenSSL_0_9_8k'
p3616
aS'libcryptoopenssl-OpenSSL_0_9_8'
p3617
aS'libcryptoopenssl-OpenSSL_0_9_7'
p3618
atp3619
Rp3620
sS'ssl_check_serverhello_tlsext'
p3621
g2
((lp3622
tp3623
Rp3624
sS'ASN1_put_object'
p3625
g2
((lp3626
tp3627
Rp3628
sS'BN_exp'
p3629
g2
((lp3630
tp3631
Rp3632
sS'asn1_ex_i2c'
p3633
g2
((lp3634
S'libcryptoopenssl-OpenSSL_1_0_1'
p3635
aS'libcryptoopenssl-OpenSSL_1_0_0'
p3636
aS'libcryptoopenssl-OpenSSL_1_0_0h'
p3637
aS'libcryptoopenssl-OpenSSL_1_0_0i'
p3638
aS'libcryptoopenssl-OpenSSL_1_0_0j'
p3639
aS'libcryptoopenssl-OpenSSL_1_0_0k'
p3640
aS'libcryptoopenssl-OpenSSL_1_0_0d'
p3641
aS'libcryptoopenssl-OpenSSL_1_0_0e'
p3642
aS'libcryptoopenssl-OpenSSL_1_0_0f'
p3643
aS'libcryptoopenssl-OpenSSL_1_0_0g'
p3644
aS'libcryptoopenssl-OpenSSL_1_0_0a'
p3645
aS'libcryptoopenssl-OpenSSL_1_0_0b'
p3646
aS'libcryptoopenssl-OpenSSL_1_0_0c'
p3647
aS'libcryptoopenssl-OpenSSL_0_9_8t'
p3648
aS'libcryptoopenssl-OpenSSL_0_9_8u'
p3649
aS'libcryptoopenssl-OpenSSL_0_9_8v'
p3650
aS'libcryptoopenssl-OpenSSL_0_9_8w'
p3651
aS'libcryptoopenssl-OpenSSL_0_9_8p'
p3652
aS'libcryptoopenssl-OpenSSL_0_9_8q'
p3653
aS'libcryptoopenssl-OpenSSL_0_9_8r'
p3654
aS'libcryptoopenssl-OpenSSL_0_9_8s'
p3655
aS'libcryptoopenssl-OpenSSL_0_9_8x'
p3656
aS'libcryptoopenssl-OpenSSL_0_9_8y'
p3657
aS'libcryptoopenssl-OpenSSL_0_9_8d'
p3658
aS'libcryptoopenssl-OpenSSL_0_9_8e'
p3659
aS'libcryptoopenssl-OpenSSL_0_9_8f'
p3660
aS'libcryptoopenssl-OpenSSL_0_9_8g'
p3661
aS'libcryptoopenssl-OpenSSL_0_9_8b'
p3662
aS'libcryptoopenssl-OpenSSL_0_9_8c'
p3663
aS'libcryptoopenssl-OpenSSL_0_9_8l'
p3664
aS'libcryptoopenssl-OpenSSL_0_9_8m'
p3665
aS'libcryptoopenssl-OpenSSL_0_9_8n'
p3666
aS'libcryptoopenssl-OpenSSL_0_9_8o'
p3667
aS'libcryptoopenssl-OpenSSL_0_9_8h'
p3668
aS'libcryptoopenssl-OpenSSL_0_9_8i'
p3669
aS'libcryptoopenssl-OpenSSL_0_9_8j'
p3670
aS'libcryptoopenssl-OpenSSL_0_9_8k'
p3671
aS'libcryptoopenssl-OpenSSL_1_0_1e'
p3672
aS'libcryptoopenssl-OpenSSL_1_0_1d'
p3673
aS'libcryptoopenssl-OpenSSL_1_0_1c'
p3674
aS'libcryptoopenssl-OpenSSL_1_0_1b'
p3675
aS'libcryptoopenssl-OpenSSL_1_0_1a'
p3676
atp3677
Rp3678
sS'sk_num'
p3679
g2
((lp3680
S'libcryptoopenssl-OpenSSL_0_9_8t'
p3681
atp3682
Rp3683
sS'free_dir'
p3684
g2
((lp3685
tp3686
Rp3687
sS'DSA_size'
p3688
g2
((lp3689
tp3690
Rp3691
sS'BN_GF2m_poly2arr'
p3692
g2
((lp3693
tp3694
Rp3695
sS'BN_cmp'
p3696
g2
((lp3697
tp3698
Rp3699
sS'obj_trust'
p3700
g2
((lp3701
S'libcryptoopenssl-OpenSSL_0_9_8t'
p3702
atp3703
Rp3704
sS'BN_num_bits_word'
p3705
g2
((lp3706
tp3707
Rp3708
sS'BN_rshift'
p3709
g2
((lp3710
tp3711
Rp3712
sS'i2s_ASN1_ENUMERATED_TABLE'
p3713
g2
((lp3714
S'libcryptoopenssl-OpenSSL_1_0_2e'
p3715
aS'libcryptoopenssl-OpenSSL_1_0_1j'
p3716
aS'libcryptoopenssl-OpenSSL_1_0_0e'
p3717
aS'libcryptoopenssl-OpenSSL_1_0_0n'
p3718
aS'libcryptoopenssl-OpenSSL_1_0_2q'
p3719
aS'libcryptoopenssl-OpenSSL_1_0_1'
p3720
aS'libcryptoopenssl-OpenSSL_1_0_0'
p3721
aS'libcryptoopenssl-OpenSSL_1_0_0l'
p3722
aS'libcryptoopenssl-OpenSSL_1_0_2b'
p3723
aS'libcryptoopenssl-OpenSSL_1_0_0m'
p3724
aS'libcryptoopenssl-OpenSSL_0_9_8e'
p3725
aS'libcryptoopenssl-OpenSSL_1_0_0t'
p3726
aS'libcryptoopenssl-OpenSSL_1_0_2i'
p3727
aS'libcryptoopenssl-OpenSSL_1_0_0p'
p3728
aS'libcryptoopenssl-OpenSSL_1_0_0q'
p3729
aS'libcryptoopenssl-OpenSSL_1_0_0r'
p3730
aS'libcryptoopenssl-OpenSSL_1_0_0s'
p3731
aS'libcryptoopenssl-OpenSSL_1_0_2f'
p3732
aS'libcryptoopenssl-OpenSSL_1_0_2g'
p3733
aS'libcryptoopenssl-OpenSSL_1_0_2d'
p3734
aS'libcryptoopenssl-OpenSSL_1_0_0o'
p3735
aS'libcryptoopenssl-OpenSSL_1_0_0h'
p3736
aS'libcryptoopenssl-OpenSSL_1_0_2c'
p3737
aS'libcryptoopenssl-OpenSSL_1_0_0j'
p3738
aS'libcryptoopenssl-OpenSSL_1_0_2a'
p3739
aS'libcryptoopenssl-OpenSSL_1_0_2n'
p3740
aS'libcryptoopenssl-OpenSSL_1_0_2o'
p3741
aS'libcryptoopenssl-OpenSSL_1_0_0f'
p3742
aS'libcryptoopenssl-OpenSSL_1_0_0g'
p3743
aS'libcryptoopenssl-OpenSSL_1_0_2j'
p3744
aS'libcryptoopenssl-OpenSSL_1_0_0a'
p3745
aS'libcryptoopenssl-OpenSSL_1_0_0b'
p3746
aS'libcryptoopenssl-OpenSSL_1_0_0c'
p3747
aS'libcryptoopenssl-OpenSSL_0_9_8t'
p3748
aS'libcryptoopenssl-OpenSSL_0_9_8u'
p3749
aS'libcryptoopenssl-OpenSSL_0_9_8v'
p3750
aS'libcryptoopenssl-OpenSSL_0_9_8w'
p3751
aS'libcryptoopenssl-OpenSSL_0_9_8p'
p3752
aS'libcryptoopenssl-OpenSSL_0_9_8q'
p3753
aS'libcryptoopenssl-OpenSSL_0_9_8r'
p3754
aS'libcryptoopenssl-OpenSSL_0_9_8s'
p3755
aS'libcryptoopenssl-OpenSSL_1_0_0k'
p3756
aS'libcryptoopenssl-OpenSSL_0_9_8x'
p3757
aS'libcryptoopenssl-OpenSSL_0_9_8y'
p3758
aS'libcryptoopenssl-OpenSSL_0_9_8d'
p3759
aS'libcryptoopenssl-OpenSSL_1_0_0d'
p3760
aS'libcryptoopenssl-OpenSSL_0_9_8f'
p3761
aS'libcryptoopenssl-OpenSSL_0_9_8g'
p3762
aS'libcryptoopenssl-OpenSSL_1_0_2l'
p3763
aS'libcryptoopenssl-OpenSSL_0_9_8a'
p3764
aS'libcryptoopenssl-OpenSSL_0_9_8b'
p3765
aS'libcryptoopenssl-OpenSSL_0_9_8c'
p3766
aS'libcryptoopenssl-OpenSSL_0_9_8l'
p3767
aS'libcryptoopenssl-OpenSSL_0_9_8m'
p3768
aS'libcryptoopenssl-OpenSSL_0_9_8n'
p3769
aS'libcryptoopenssl-OpenSSL_0_9_8o'
p3770
aS'libcryptoopenssl-OpenSSL_0_9_8h'
p3771
aS'libcryptoopenssl-OpenSSL_0_9_8i'
p3772
aS'libcryptoopenssl-OpenSSL_0_9_8j'
p3773
aS'libcryptoopenssl-OpenSSL_0_9_8k'
p3774
aS'libcryptoopenssl-OpenSSL_1_0_2k'
p3775
aS'libcryptoopenssl-OpenSSL_1_0_0i'
p3776
aS'libcryptoopenssl-OpenSSL_1_0_2m'
p3777
aS'libcryptoopenssl-OpenSSL_1_0_2'
p3778
aS'libcryptoopenssl-OpenSSL_0_9_8'
p3779
aS'libcryptoopenssl-OpenSSL_1_0_1t'
p3780
aS'libcryptoopenssl-OpenSSL_1_0_1s'
p3781
aS'libcryptoopenssl-OpenSSL_1_0_1r'
p3782
aS'libcryptoopenssl-OpenSSL_1_0_1q'
p3783
aS'libcryptoopenssl-OpenSSL_1_0_1p'
p3784
aS'libcryptoopenssl-OpenSSL_1_0_1o'
p3785
aS'libcryptoopenssl-OpenSSL_1_0_1n'
p3786
aS'libcryptoopenssl-OpenSSL_1_0_1m'
p3787
aS'libcryptoopenssl-OpenSSL_1_0_1l'
p3788
aS'libcryptoopenssl-OpenSSL_1_0_1k'
p3789
aS'libcryptoopenssl-OpenSSL_1_0_2h'
p3790
aS'libcryptoopenssl-OpenSSL_1_0_1i'
p3791
aS'libcryptoopenssl-OpenSSL_1_0_1h'
p3792
aS'libcryptoopenssl-OpenSSL_1_0_1g'
p3793
aS'libcryptoopenssl-OpenSSL_1_0_1f'
p3794
aS'libcryptoopenssl-OpenSSL_1_0_1e'
p3795
aS'libcryptoopenssl-OpenSSL_1_0_1d'
p3796
aS'libcryptoopenssl-OpenSSL_1_0_1c'
p3797
aS'libcryptoopenssl-OpenSSL_1_0_1b'
p3798
aS'libcryptoopenssl-OpenSSL_1_0_1a'
p3799
atp3800
Rp3801
sS'BN_CTX_end'
p3802
g2
((lp3803
tp3804
Rp3805
sS'ec_GFp_simple_dbl'
p3806
g2
((lp3807
tp3808
Rp3809
sS'i2v_GENERAL_NAMES'
p3810
g2
((lp3811
S'libcryptoopenssl-OpenSSL_0_9_8t'
p3812
atp3813
Rp3814
sS'ASN1_object_size'
p3815
g2
((lp3816
tp3817
Rp3818
sS'aes_256_ecb_cipher'
p3819
g2
((lp3820
S'libcryptoopenssl-OpenSSL_0_9_7m'
p3821
aS'libcryptoopenssl-OpenSSL_0_9_7l'
p3822
aS'libcryptoopenssl-OpenSSL_0_9_7i'
p3823
aS'libcryptoopenssl-OpenSSL_0_9_7h'
p3824
aS'libcryptoopenssl-OpenSSL_0_9_7k'
p3825
aS'libcryptoopenssl-OpenSSL_0_9_7j'
p3826
aS'libcryptoopenssl-OpenSSL_0_9_7e'
p3827
aS'libcryptoopenssl-OpenSSL_0_9_7d'
p3828
aS'libcryptoopenssl-OpenSSL_0_9_7g'
p3829
aS'libcryptoopenssl-OpenSSL_0_9_7f'
p3830
aS'libcryptoopenssl-OpenSSL_0_9_7a'
p3831
aS'libcryptoopenssl-OpenSSL_0_9_7c'
p3832
aS'libcryptoopenssl-OpenSSL_0_9_7b'
p3833
aS'libcryptoopenssl-OpenSSL_0_9_8t'
p3834
aS'libcryptoopenssl-OpenSSL_0_9_8u'
p3835
aS'libcryptoopenssl-OpenSSL_0_9_8v'
p3836
aS'libcryptoopenssl-OpenSSL_0_9_8w'
p3837
aS'libcryptoopenssl-OpenSSL_0_9_8p'
p3838
aS'libcryptoopenssl-OpenSSL_0_9_8q'
p3839
aS'libcryptoopenssl-OpenSSL_0_9_8r'
p3840
aS'libcryptoopenssl-OpenSSL_0_9_8s'
p3841
aS'libcryptoopenssl-OpenSSL_0_9_8x'
p3842
aS'libcryptoopenssl-OpenSSL_0_9_8y'
p3843
aS'libcryptoopenssl-OpenSSL_0_9_8d'
p3844
aS'libcryptoopenssl-OpenSSL_0_9_8e'
p3845
aS'libcryptoopenssl-OpenSSL_0_9_8f'
p3846
aS'libcryptoopenssl-OpenSSL_0_9_8g'
p3847
aS'libcryptoopenssl-OpenSSL_0_9_8a'
p3848
aS'libcryptoopenssl-OpenSSL_0_9_8b'
p3849
aS'libcryptoopenssl-OpenSSL_0_9_8c'
p3850
aS'libcryptoopenssl-OpenSSL_0_9_8l'
p3851
aS'libcryptoopenssl-OpenSSL_0_9_8m'
p3852
aS'libcryptoopenssl-OpenSSL_0_9_8n'
p3853
aS'libcryptoopenssl-OpenSSL_0_9_8o'
p3854
aS'libcryptoopenssl-OpenSSL_0_9_8h'
p3855
aS'libcryptoopenssl-OpenSSL_0_9_8i'
p3856
aS'libcryptoopenssl-OpenSSL_0_9_8j'
p3857
aS'libcryptoopenssl-OpenSSL_0_9_8k'
p3858
aS'libcryptoopenssl-OpenSSL_0_9_8'
p3859
aS'libcryptoopenssl-OpenSSL_0_9_7'
p3860
atp3861
Rp3862
sS'X509_NAME_add_entry'
p3863
g2
((lp3864
S'libcryptoopenssl-OpenSSL_0_9_8t'
p3865
atp3866
Rp3867
sS'bn_mul_low_normal'
p3868
g2
((lp3869
tp3870
Rp3871
sS'BN_mod_word'
p3872
g2
((lp3873
tp3874
Rp3875
sS'ASN1_STRING_free'
p3876
g2
((lp3877
tp3878
Rp3879
sS'RC2_encrypt'
p3880
g2
((lp3881
S'libcryptoopenssl-OpenSSL_0_9_7m'
p3882
aS'libcryptoopenssl-OpenSSL_0_9_7l'
p3883
aS'libcryptoopenssl-OpenSSL_0_9_7i'
p3884
aS'libcryptoopenssl-OpenSSL_0_9_7h'
p3885
aS'libcryptoopenssl-OpenSSL_0_9_7k'
p3886
aS'libcryptoopenssl-OpenSSL_0_9_7j'
p3887
aS'libcryptoopenssl-OpenSSL_0_9_7e'
p3888
aS'libcryptoopenssl-OpenSSL_0_9_7d'
p3889
aS'libcryptoopenssl-OpenSSL_0_9_7g'
p3890
aS'libcryptoopenssl-OpenSSL_0_9_7f'
p3891
aS'libcryptoopenssl-OpenSSL_0_9_7a'
p3892
aS'libcryptoopenssl-OpenSSL_0_9_7c'
p3893
aS'libcryptoopenssl-OpenSSL_0_9_7b'
p3894
aS'libcryptoopenssl-OpenSSL_0_9_8t'
p3895
aS'libcryptoopenssl-OpenSSL_0_9_8u'
p3896
aS'libcryptoopenssl-OpenSSL_0_9_8v'
p3897
aS'libcryptoopenssl-OpenSSL_0_9_8w'
p3898
aS'libcryptoopenssl-OpenSSL_0_9_8p'
p3899
aS'libcryptoopenssl-OpenSSL_0_9_8q'
p3900
aS'libcryptoopenssl-OpenSSL_0_9_8r'
p3901
aS'libcryptoopenssl-OpenSSL_0_9_8s'
p3902
aS'libcryptoopenssl-OpenSSL_0_9_8x'
p3903
aS'libcryptoopenssl-OpenSSL_0_9_8y'
p3904
aS'libcryptoopenssl-OpenSSL_0_9_8d'
p3905
aS'libcryptoopenssl-OpenSSL_0_9_8e'
p3906
aS'libcryptoopenssl-OpenSSL_0_9_8f'
p3907
aS'libcryptoopenssl-OpenSSL_0_9_8g'
p3908
aS'libcryptoopenssl-OpenSSL_0_9_8a'
p3909
aS'libcryptoopenssl-OpenSSL_0_9_8b'
p3910
aS'libcryptoopenssl-OpenSSL_0_9_8c'
p3911
aS'libcryptoopenssl-OpenSSL_0_9_8l'
p3912
aS'libcryptoopenssl-OpenSSL_0_9_8m'
p3913
aS'libcryptoopenssl-OpenSSL_0_9_8n'
p3914
aS'libcryptoopenssl-OpenSSL_0_9_8o'
p3915
aS'libcryptoopenssl-OpenSSL_0_9_8h'
p3916
aS'libcryptoopenssl-OpenSSL_0_9_8i'
p3917
aS'libcryptoopenssl-OpenSSL_0_9_8j'
p3918
aS'libcryptoopenssl-OpenSSL_0_9_8k'
p3919
aS'libcryptoopenssl-OpenSSL_0_9_8'
p3920
aS'libcryptoopenssl-OpenSSL_0_9_7'
p3921
atp3922
Rp3923
sS'sha_block_data_order'
p3924
g2
((lp3925
S'libcryptoopenssl-OpenSSL_1_0_2e'
p3926
aS'libcryptoopenssl-OpenSSL_1_0_1j'
p3927
aS'libcryptoopenssl-OpenSSL_1_0_0n'
p3928
aS'libcryptoopenssl-OpenSSL_1_0_2q'
p3929
aS'libcryptoopenssl-OpenSSL_1_0_1'
p3930
aS'libcryptoopenssl-OpenSSL_1_0_0'
p3931
aS'libcryptoopenssl-OpenSSL_1_0_0l'
p3932
aS'libcryptoopenssl-OpenSSL_1_0_2b'
p3933
aS'libcryptoopenssl-OpenSSL_1_0_0m'
p3934
aS'libcryptoopenssl-OpenSSL_1_0_0t'
p3935
aS'libcryptoopenssl-OpenSSL_1_0_2i'
p3936
aS'libcryptoopenssl-OpenSSL_1_0_0p'
p3937
aS'libcryptoopenssl-OpenSSL_1_0_0q'
p3938
aS'libcryptoopenssl-OpenSSL_1_0_0r'
p3939
aS'libcryptoopenssl-OpenSSL_1_0_0s'
p3940
aS'libcryptoopenssl-OpenSSL_1_0_2f'
p3941
aS'libcryptoopenssl-OpenSSL_1_0_2g'
p3942
aS'libcryptoopenssl-OpenSSL_1_0_2d'
p3943
aS'libcryptoopenssl-OpenSSL_1_0_0o'
p3944
aS'libcryptoopenssl-OpenSSL_1_0_0h'
p3945
aS'libcryptoopenssl-OpenSSL_1_0_2c'
p3946
aS'libcryptoopenssl-OpenSSL_1_0_0j'
p3947
aS'libcryptoopenssl-OpenSSL_1_0_2a'
p3948
aS'libcryptoopenssl-OpenSSL_1_0_2n'
p3949
aS'libcryptoopenssl-OpenSSL_1_0_2o'
p3950
aS'libcryptoopenssl-OpenSSL_1_0_0f'
p3951
aS'libcryptoopenssl-OpenSSL_1_0_0g'
p3952
aS'libcryptoopenssl-OpenSSL_1_0_2j'
p3953
aS'libcryptoopenssl-OpenSSL_1_0_0a'
p3954
aS'libcryptoopenssl-OpenSSL_1_0_0b'
p3955
aS'libcryptoopenssl-OpenSSL_1_0_0c'
p3956
aS'libcryptoopenssl-OpenSSL_0_9_8t'
p3957
aS'libcryptoopenssl-OpenSSL_0_9_8u'
p3958
aS'libcryptoopenssl-OpenSSL_0_9_8v'
p3959
aS'libcryptoopenssl-OpenSSL_0_9_8w'
p3960
aS'libcryptoopenssl-OpenSSL_0_9_8p'
p3961
aS'libcryptoopenssl-OpenSSL_0_9_8q'
p3962
aS'libcryptoopenssl-OpenSSL_0_9_8r'
p3963
aS'libcryptoopenssl-OpenSSL_0_9_8s'
p3964
aS'libcryptoopenssl-OpenSSL_1_0_0k'
p3965
aS'libcryptoopenssl-OpenSSL_0_9_8x'
p3966
aS'libcryptoopenssl-OpenSSL_0_9_8y'
p3967
aS'libcryptoopenssl-OpenSSL_1_0_0d'
p3968
aS'libcryptoopenssl-OpenSSL_1_0_0e'
p3969
aS'libcryptoopenssl-OpenSSL_0_9_8m'
p3970
aS'libcryptoopenssl-OpenSSL_0_9_8n'
p3971
aS'libcryptoopenssl-OpenSSL_0_9_8o'
p3972
aS'libcryptoopenssl-OpenSSL_1_0_2'
p3973
aS'libcryptoopenssl-OpenSSL_1_0_2l'
p3974
aS'libcryptoopenssl-OpenSSL_1_0_2k'
p3975
aS'libcryptoopenssl-OpenSSL_1_0_0i'
p3976
aS'libcryptoopenssl-OpenSSL_1_0_2m'
p3977
aS'libcryptoopenssl-OpenSSL_1_0_1t'
p3978
aS'libcryptoopenssl-OpenSSL_1_0_1s'
p3979
aS'libcryptoopenssl-OpenSSL_1_0_1r'
p3980
aS'libcryptoopenssl-OpenSSL_1_0_1q'
p3981
aS'libcryptoopenssl-OpenSSL_1_0_1p'
p3982
aS'libcryptoopenssl-OpenSSL_1_0_1o'
p3983
aS'libcryptoopenssl-OpenSSL_1_0_1n'
p3984
aS'libcryptoopenssl-OpenSSL_1_0_1m'
p3985
aS'libcryptoopenssl-OpenSSL_1_0_1l'
p3986
aS'libcryptoopenssl-OpenSSL_1_0_1k'
p3987
aS'libcryptoopenssl-OpenSSL_1_0_2h'
p3988
aS'libcryptoopenssl-OpenSSL_1_0_1i'
p3989
aS'libcryptoopenssl-OpenSSL_1_0_1h'
p3990
aS'libcryptoopenssl-OpenSSL_1_0_1g'
p3991
aS'libcryptoopenssl-OpenSSL_1_0_1f'
p3992
aS'libcryptoopenssl-OpenSSL_1_0_1e'
p3993
aS'libcryptoopenssl-OpenSSL_1_0_1d'
p3994
aS'libcryptoopenssl-OpenSSL_1_0_1c'
p3995
aS'libcryptoopenssl-OpenSSL_1_0_1b'
p3996
aS'libcryptoopenssl-OpenSSL_1_0_1a'
p3997
atp3998
Rp3999
sS'ec_GF2m_simple_group_set_curve'
p4000
g2
((lp4001
tp4002
Rp4003
sS'UI_process'
p4004
g2
((lp4005
S'libcryptoopenssl-OpenSSL_0_9_8t'
p4006
atp4007
Rp4008
sS'BN_mod_exp_mont_word'
p4009
g2
((lp4010
tp4011
Rp4012
sS'X509_NAME_get_index_by_OBJ'
p4013
g2
((lp4014
S'libcryptoopenssl-OpenSSL_0_9_8t'
p4015
atp4016
Rp4017
sS'BN_clear_free'
p4018
g2
((lp4019
tp4020
Rp4021
sS'BN_free'
p4022
g2
((lp4023
tp4024
Rp4025
sS'CRYPTO_malloc'
p4026
g2
((lp4027
tp4028
Rp4029
sS'dsa_finish'
p4030
g2
((lp4031
tp4032
Rp4033
sS'sha256_block_data_order'
p4034
g2
((lp4035
S'libcryptoopenssl-OpenSSL_0_9_8t'
p4036
aS'libcryptoopenssl-OpenSSL_0_9_8u'
p4037
aS'libcryptoopenssl-OpenSSL_0_9_8v'
p4038
aS'libcryptoopenssl-OpenSSL_0_9_8w'
p4039
aS'libcryptoopenssl-OpenSSL_0_9_8p'
p4040
aS'libcryptoopenssl-OpenSSL_0_9_8q'
p4041
aS'libcryptoopenssl-OpenSSL_0_9_8r'
p4042
aS'libcryptoopenssl-OpenSSL_0_9_8s'
p4043
aS'libcryptoopenssl-OpenSSL_0_9_8x'
p4044
aS'libcryptoopenssl-OpenSSL_0_9_8y'
p4045
aS'libcryptoopenssl-OpenSSL_0_9_8m'
p4046
aS'libcryptoopenssl-OpenSSL_0_9_8n'
p4047
aS'libcryptoopenssl-OpenSSL_0_9_8o'
p4048
atp4049
Rp4050
sS'add_hash'
p4051
g2
((lp4052
S'libcryptoopenssl-OpenSSL_0_9_8t'
p4053
atp4054
Rp4055
sS'ec_GF2m_simple_group_copy'
p4056
g2
((lp4057
tp4058
Rp4059
sS'aes_128_ecb_cipher'
p4060
g2
((lp4061
S'libcryptoopenssl-OpenSSL_0_9_7m'
p4062
aS'libcryptoopenssl-OpenSSL_0_9_7l'
p4063
aS'libcryptoopenssl-OpenSSL_0_9_7i'
p4064
aS'libcryptoopenssl-OpenSSL_0_9_7h'
p4065
aS'libcryptoopenssl-OpenSSL_0_9_7k'
p4066
aS'libcryptoopenssl-OpenSSL_0_9_7j'
p4067
aS'libcryptoopenssl-OpenSSL_0_9_7e'
p4068
aS'libcryptoopenssl-OpenSSL_0_9_7d'
p4069
aS'libcryptoopenssl-OpenSSL_0_9_7g'
p4070
aS'libcryptoopenssl-OpenSSL_0_9_7f'
p4071
aS'libcryptoopenssl-OpenSSL_0_9_7a'
p4072
aS'libcryptoopenssl-OpenSSL_0_9_7c'
p4073
aS'libcryptoopenssl-OpenSSL_0_9_7b'
p4074
aS'libcryptoopenssl-OpenSSL_0_9_8t'
p4075
aS'libcryptoopenssl-OpenSSL_0_9_8u'
p4076
aS'libcryptoopenssl-OpenSSL_0_9_8v'
p4077
aS'libcryptoopenssl-OpenSSL_0_9_8w'
p4078
aS'libcryptoopenssl-OpenSSL_0_9_8p'
p4079
aS'libcryptoopenssl-OpenSSL_0_9_8q'
p4080
aS'libcryptoopenssl-OpenSSL_0_9_8r'
p4081
aS'libcryptoopenssl-OpenSSL_0_9_8s'
p4082
aS'libcryptoopenssl-OpenSSL_0_9_8x'
p4083
aS'libcryptoopenssl-OpenSSL_0_9_8y'
p4084
aS'libcryptoopenssl-OpenSSL_0_9_8d'
p4085
aS'libcryptoopenssl-OpenSSL_0_9_8e'
p4086
aS'libcryptoopenssl-OpenSSL_0_9_8f'
p4087
aS'libcryptoopenssl-OpenSSL_0_9_8g'
p4088
aS'libcryptoopenssl-OpenSSL_0_9_8a'
p4089
aS'libcryptoopenssl-OpenSSL_0_9_8b'
p4090
aS'libcryptoopenssl-OpenSSL_0_9_8c'
p4091
aS'libcryptoopenssl-OpenSSL_0_9_8l'
p4092
aS'libcryptoopenssl-OpenSSL_0_9_8m'
p4093
aS'libcryptoopenssl-OpenSSL_0_9_8n'
p4094
aS'libcryptoopenssl-OpenSSL_0_9_8o'
p4095
aS'libcryptoopenssl-OpenSSL_0_9_8h'
p4096
aS'libcryptoopenssl-OpenSSL_0_9_8i'
p4097
aS'libcryptoopenssl-OpenSSL_0_9_8j'
p4098
aS'libcryptoopenssl-OpenSSL_0_9_8k'
p4099
aS'libcryptoopenssl-OpenSSL_0_9_8'
p4100
aS'libcryptoopenssl-OpenSSL_0_9_7'
p4101
atp4102
Rp4103
sS'buffer_free'
p4104
g2
((lp4105
tp4106
Rp4107
sS'X509_STORE_set_default_paths'
p4108
g2
((lp4109
S'libcryptoopenssl-OpenSSL_1_0_2'
p4110
aS'libcryptoopenssl-OpenSSL_1_0_1'
p4111
aS'libcryptoopenssl-OpenSSL_1_0_0'
p4112
aS'libcryptoopenssl-OpenSSL_1_0_0t'
p4113
aS'libcryptoopenssl-OpenSSL_1_0_0p'
p4114
aS'libcryptoopenssl-OpenSSL_1_0_0q'
p4115
aS'libcryptoopenssl-OpenSSL_1_0_0r'
p4116
aS'libcryptoopenssl-OpenSSL_1_0_0s'
p4117
aS'libcryptoopenssl-OpenSSL_1_0_0l'
p4118
aS'libcryptoopenssl-OpenSSL_1_0_0m'
p4119
aS'libcryptoopenssl-OpenSSL_1_0_0n'
p4120
aS'libcryptoopenssl-OpenSSL_1_0_0o'
p4121
aS'libcryptoopenssl-OpenSSL_1_0_0h'
p4122
aS'libcryptoopenssl-OpenSSL_1_0_0i'
p4123
aS'libcryptoopenssl-OpenSSL_1_0_0j'
p4124
aS'libcryptoopenssl-OpenSSL_1_0_0k'
p4125
aS'libcryptoopenssl-OpenSSL_1_0_0d'
p4126
aS'libcryptoopenssl-OpenSSL_1_0_0e'
p4127
aS'libcryptoopenssl-OpenSSL_1_0_0f'
p4128
aS'libcryptoopenssl-OpenSSL_1_0_0g'
p4129
aS'libcryptoopenssl-OpenSSL_1_0_0a'
p4130
aS'libcryptoopenssl-OpenSSL_1_0_0b'
p4131
aS'libcryptoopenssl-OpenSSL_1_0_0c'
p4132
aS'libcryptoopenssl-OpenSSL_0_9_8t'
p4133
aS'libcryptoopenssl-OpenSSL_0_9_8u'
p4134
aS'libcryptoopenssl-OpenSSL_0_9_8v'
p4135
aS'libcryptoopenssl-OpenSSL_0_9_8w'
p4136
aS'libcryptoopenssl-OpenSSL_0_9_8p'
p4137
aS'libcryptoopenssl-OpenSSL_0_9_8q'
p4138
aS'libcryptoopenssl-OpenSSL_0_9_8r'
p4139
aS'libcryptoopenssl-OpenSSL_0_9_8s'
p4140
aS'libcryptoopenssl-OpenSSL_0_9_8x'
p4141
aS'libcryptoopenssl-OpenSSL_0_9_8y'
p4142
aS'libcryptoopenssl-OpenSSL_0_9_8d'
p4143
aS'libcryptoopenssl-OpenSSL_0_9_8e'
p4144
aS'libcryptoopenssl-OpenSSL_0_9_8f'
p4145
aS'libcryptoopenssl-OpenSSL_0_9_8g'
p4146
aS'libcryptoopenssl-OpenSSL_0_9_8a'
p4147
aS'libcryptoopenssl-OpenSSL_0_9_8b'
p4148
aS'libcryptoopenssl-OpenSSL_0_9_8c'
p4149
aS'libcryptoopenssl-OpenSSL_0_9_8l'
p4150
aS'libcryptoopenssl-OpenSSL_0_9_8m'
p4151
aS'libcryptoopenssl-OpenSSL_0_9_8n'
p4152
aS'libcryptoopenssl-OpenSSL_0_9_8o'
p4153
aS'libcryptoopenssl-OpenSSL_0_9_8h'
p4154
aS'libcryptoopenssl-OpenSSL_0_9_8i'
p4155
aS'libcryptoopenssl-OpenSSL_0_9_8j'
p4156
aS'libcryptoopenssl-OpenSSL_0_9_8k'
p4157
aS'libcryptoopenssl-OpenSSL_1_0_1t'
p4158
aS'libcryptoopenssl-OpenSSL_1_0_1s'
p4159
aS'libcryptoopenssl-OpenSSL_1_0_1r'
p4160
aS'libcryptoopenssl-OpenSSL_1_0_1q'
p4161
aS'libcryptoopenssl-OpenSSL_1_0_1p'
p4162
aS'libcryptoopenssl-OpenSSL_1_0_1o'
p4163
aS'libcryptoopenssl-OpenSSL_1_0_1n'
p4164
aS'libcryptoopenssl-OpenSSL_1_0_1m'
p4165
aS'libcryptoopenssl-OpenSSL_1_0_1l'
p4166
aS'libcryptoopenssl-OpenSSL_1_0_1k'
p4167
aS'libcryptoopenssl-OpenSSL_1_0_1j'
p4168
aS'libcryptoopenssl-OpenSSL_1_0_1i'
p4169
aS'libcryptoopenssl-OpenSSL_1_0_1h'
p4170
aS'libcryptoopenssl-OpenSSL_1_0_1g'
p4171
aS'libcryptoopenssl-OpenSSL_1_0_1f'
p4172
aS'libcryptoopenssl-OpenSSL_1_0_1e'
p4173
aS'libcryptoopenssl-OpenSSL_1_0_1d'
p4174
aS'libcryptoopenssl-OpenSSL_1_0_1c'
p4175
aS'libcryptoopenssl-OpenSSL_1_0_1b'
p4176
aS'libcryptoopenssl-OpenSSL_1_0_1a'
p4177
aS'libcryptoopenssl-OpenSSL_1_1_0'
p4178
aS'libcryptoopenssl-OpenSSL_1_0_2q'
p4179
aS'libcryptoopenssl-OpenSSL_1_0_2f'
p4180
aS'libcryptoopenssl-OpenSSL_1_0_2g'
p4181
aS'libcryptoopenssl-OpenSSL_1_0_2d'
p4182
aS'libcryptoopenssl-OpenSSL_1_0_2e'
p4183
aS'libcryptoopenssl-OpenSSL_1_0_2b'
p4184
aS'libcryptoopenssl-OpenSSL_1_0_2c'
p4185
aS'libcryptoopenssl-OpenSSL_1_0_2a'
p4186
aS'libcryptoopenssl-OpenSSL_1_0_2n'
p4187
aS'libcryptoopenssl-OpenSSL_1_0_2o'
p4188
aS'libcryptoopenssl-OpenSSL_1_0_2l'
p4189
aS'libcryptoopenssl-OpenSSL_1_0_2m'
p4190
aS'libcryptoopenssl-OpenSSL_1_0_2j'
p4191
aS'libcryptoopenssl-OpenSSL_1_0_2k'
p4192
aS'libcryptoopenssl-OpenSSL_1_0_2h'
p4193
aS'libcryptoopenssl-OpenSSL_1_0_2i'
p4194
aS'libcryptoopenssl-OpenSSL_0_9_7m'
p4195
aS'libcryptoopenssl-OpenSSL_0_9_7l'
p4196
aS'libcryptoopenssl-OpenSSL_0_9_7i'
p4197
aS'libcryptoopenssl-OpenSSL_0_9_7h'
p4198
aS'libcryptoopenssl-OpenSSL_0_9_7k'
p4199
aS'libcryptoopenssl-OpenSSL_0_9_7j'
p4200
aS'libcryptoopenssl-OpenSSL_0_9_7e'
p4201
aS'libcryptoopenssl-OpenSSL_0_9_7d'
p4202
aS'libcryptoopenssl-OpenSSL_0_9_7g'
p4203
aS'libcryptoopenssl-OpenSSL_0_9_7f'
p4204
aS'libcryptoopenssl-OpenSSL_0_9_7a'
p4205
aS'libcryptoopenssl-OpenSSL_0_9_7c'
p4206
aS'libcryptoopenssl-OpenSSL_0_9_7b'
p4207
aS'libcryptoopenssl-OpenSSL_1_1_0g'
p4208
aS'libcryptoopenssl-OpenSSL_1_1_0f'
p4209
aS'libcryptoopenssl-OpenSSL_1_1_0e'
p4210
aS'libcryptoopenssl-OpenSSL_1_1_0d'
p4211
aS'libcryptoopenssl-OpenSSL_1_1_0c'
p4212
aS'libcryptoopenssl-OpenSSL_1_1_0b'
p4213
aS'libcryptoopenssl-OpenSSL_1_1_0a'
p4214
aS'libcryptoopenssl-OpenSSL_1_1_0h'
p4215
aS'libcryptoopenssl-OpenSSL_0_9_8'
p4216
aS'libcryptoopenssl-OpenSSL_0_9_7'
p4217
atp4218
Rp4219
sS'SHA384_Update'
p4220
g2
((lp4221
S'libcryptoopenssl-OpenSSL_0_9_8t'
p4222
aS'libcryptoopenssl-OpenSSL_0_9_8u'
p4223
aS'libcryptoopenssl-OpenSSL_0_9_8v'
p4224
aS'libcryptoopenssl-OpenSSL_0_9_8w'
p4225
aS'libcryptoopenssl-OpenSSL_0_9_8p'
p4226
aS'libcryptoopenssl-OpenSSL_0_9_8q'
p4227
aS'libcryptoopenssl-OpenSSL_0_9_8r'
p4228
aS'libcryptoopenssl-OpenSSL_0_9_8s'
p4229
aS'libcryptoopenssl-OpenSSL_0_9_8x'
p4230
aS'libcryptoopenssl-OpenSSL_0_9_8y'
p4231
aS'libcryptoopenssl-OpenSSL_0_9_8m'
p4232
aS'libcryptoopenssl-OpenSSL_0_9_8n'
p4233
aS'libcryptoopenssl-OpenSSL_0_9_8o'
p4234
atp4235
Rp4236
sS'SXNET_get_id_INTEGER'
p4237
g2
((lp4238
S'libcryptoopenssl-OpenSSL_0_9_8t'
p4239
atp4240
Rp4241
sS'dtls1_clear_queues.isra.1'
p4242
g2
((lp4243
S'libsslopenssl-OpenSSL_1_0_1'
p4244
aS'libsslopenssl-OpenSSL_1_0_1e'
p4245
aS'libsslopenssl-OpenSSL_1_0_1g'
p4246
aS'libsslopenssl-OpenSSL_1_0_1f'
p4247
aS'libsslopenssl-OpenSSL_1_0_0f'
p4248
aS'libsslopenssl-OpenSSL_1_0_1d'
p4249
aS'libsslopenssl-OpenSSL_1_0_1c'
p4250
aS'libsslopenssl-OpenSSL_1_0_1b'
p4251
aS'libsslopenssl-OpenSSL_1_0_1a'
p4252
aS'libsslopenssl-OpenSSL_1_0_0l'
p4253
aS'libsslopenssl-OpenSSL_1_0_0g'
p4254
aS'libsslopenssl-OpenSSL_1_0_0k'
p4255
atp4256
Rp4257
sS'X509_PKEY_free'
p4258
g2
((lp4259
tp4260
Rp4261
sS'CAST_ecb_encrypt'
p4262
g2
((lp4263
S'libcryptoopenssl-OpenSSL_0_9_7m'
p4264
aS'libcryptoopenssl-OpenSSL_0_9_7l'
p4265
aS'libcryptoopenssl-OpenSSL_0_9_7i'
p4266
aS'libcryptoopenssl-OpenSSL_0_9_7h'
p4267
aS'libcryptoopenssl-OpenSSL_0_9_7k'
p4268
aS'libcryptoopenssl-OpenSSL_0_9_7j'
p4269
aS'libcryptoopenssl-OpenSSL_0_9_7e'
p4270
aS'libcryptoopenssl-OpenSSL_0_9_7d'
p4271
aS'libcryptoopenssl-OpenSSL_0_9_7g'
p4272
aS'libcryptoopenssl-OpenSSL_0_9_7f'
p4273
aS'libcryptoopenssl-OpenSSL_0_9_7a'
p4274
aS'libcryptoopenssl-OpenSSL_0_9_7c'
p4275
aS'libcryptoopenssl-OpenSSL_0_9_7b'
p4276
aS'libcryptoopenssl-OpenSSL_0_9_8t'
p4277
aS'libcryptoopenssl-OpenSSL_0_9_8u'
p4278
aS'libcryptoopenssl-OpenSSL_0_9_8v'
p4279
aS'libcryptoopenssl-OpenSSL_0_9_8w'
p4280
aS'libcryptoopenssl-OpenSSL_0_9_8p'
p4281
aS'libcryptoopenssl-OpenSSL_0_9_8q'
p4282
aS'libcryptoopenssl-OpenSSL_0_9_8r'
p4283
aS'libcryptoopenssl-OpenSSL_0_9_8s'
p4284
aS'libcryptoopenssl-OpenSSL_0_9_8x'
p4285
aS'libcryptoopenssl-OpenSSL_0_9_8y'
p4286
aS'libcryptoopenssl-OpenSSL_0_9_8d'
p4287
aS'libcryptoopenssl-OpenSSL_0_9_8e'
p4288
aS'libcryptoopenssl-OpenSSL_0_9_8f'
p4289
aS'libcryptoopenssl-OpenSSL_0_9_8g'
p4290
aS'libcryptoopenssl-OpenSSL_0_9_8a'
p4291
aS'libcryptoopenssl-OpenSSL_0_9_8b'
p4292
aS'libcryptoopenssl-OpenSSL_0_9_8c'
p4293
aS'libcryptoopenssl-OpenSSL_0_9_8l'
p4294
aS'libcryptoopenssl-OpenSSL_0_9_8m'
p4295
aS'libcryptoopenssl-OpenSSL_0_9_8n'
p4296
aS'libcryptoopenssl-OpenSSL_0_9_8o'
p4297
aS'libcryptoopenssl-OpenSSL_0_9_8h'
p4298
aS'libcryptoopenssl-OpenSSL_0_9_8i'
p4299
aS'libcryptoopenssl-OpenSSL_0_9_8j'
p4300
aS'libcryptoopenssl-OpenSSL_0_9_8k'
p4301
aS'libcryptoopenssl-OpenSSL_0_9_8'
p4302
aS'libcryptoopenssl-OpenSSL_0_9_7'
p4303
atp4304
Rp4305
sS'EVP_PKEY_type'
p4306
g2
((lp4307
S'libcryptoopenssl-OpenSSL_0_9_8t'
p4308
aS'libcryptoopenssl-OpenSSL_0_9_8u'
p4309
aS'libcryptoopenssl-OpenSSL_0_9_8v'
p4310
aS'libcryptoopenssl-OpenSSL_0_9_8w'
p4311
aS'libcryptoopenssl-OpenSSL_0_9_8p'
p4312
aS'libcryptoopenssl-OpenSSL_0_9_8q'
p4313
aS'libcryptoopenssl-OpenSSL_0_9_8r'
p4314
aS'libcryptoopenssl-OpenSSL_0_9_8s'
p4315
aS'libcryptoopenssl-OpenSSL_0_9_8x'
p4316
aS'libcryptoopenssl-OpenSSL_0_9_8y'
p4317
aS'libcryptoopenssl-OpenSSL_0_9_8e'
p4318
aS'libcryptoopenssl-OpenSSL_0_9_8f'
p4319
aS'libcryptoopenssl-OpenSSL_0_9_8g'
p4320
aS'libcryptoopenssl-OpenSSL_0_9_8l'
p4321
aS'libcryptoopenssl-OpenSSL_0_9_8m'
p4322
aS'libcryptoopenssl-OpenSSL_0_9_8n'
p4323
aS'libcryptoopenssl-OpenSSL_0_9_8o'
p4324
aS'libcryptoopenssl-OpenSSL_0_9_8h'
p4325
aS'libcryptoopenssl-OpenSSL_0_9_8i'
p4326
aS'libcryptoopenssl-OpenSSL_0_9_8j'
p4327
aS'libcryptoopenssl-OpenSSL_0_9_8k'
p4328
atp4329
Rp4330
sS'RIPEMD160_Update'
p4331
g2
((lp4332
S'libcryptoopenssl-OpenSSL_1_0_2e'
p4333
aS'libcryptoopenssl-OpenSSL_1_1_0'
p4334
aS'libcryptoopenssl-OpenSSL_1_0_0l'
p4335
aS'libcryptoopenssl-OpenSSL_1_0_1j'
p4336
aS'libcryptoopenssl-OpenSSL_1_0_0n'
p4337
aS'libcryptoopenssl-OpenSSL_1_1_0h'
p4338
aS'libcryptoopenssl-OpenSSL_1_0_2q'
p4339
aS'libcryptoopenssl-OpenSSL_1_0_1'
p4340
aS'libcryptoopenssl-OpenSSL_0_9_8q'
p4341
aS'libcryptoopenssl-OpenSSL_1_1_0g'
p4342
aS'libcryptoopenssl-OpenSSL_1_0_2b'
p4343
aS'libcryptoopenssl-OpenSSL_1_0_0m'
p4344
aS'libcryptoopenssl-OpenSSL_1_0_0t'
p4345
aS'libcryptoopenssl-OpenSSL_1_0_2i'
p4346
aS'libcryptoopenssl-OpenSSL_1_0_0p'
p4347
aS'libcryptoopenssl-OpenSSL_1_1_0e'
p4348
aS'libcryptoopenssl-OpenSSL_1_0_0r'
p4349
aS'libcryptoopenssl-OpenSSL_1_0_0s'
p4350
aS'libcryptoopenssl-OpenSSL_1_0_2f'
p4351
aS'libcryptoopenssl-OpenSSL_1_0_2g'
p4352
aS'libcryptoopenssl-OpenSSL_1_0_2d'
p4353
aS'libcryptoopenssl-OpenSSL_1_0_0o'
p4354
aS'libcryptoopenssl-OpenSSL_1_1_0c'
p4355
aS'libcryptoopenssl-OpenSSL_1_1_0b'
p4356
aS'libcryptoopenssl-OpenSSL_1_1_0a'
p4357
aS'libcryptoopenssl-OpenSSL_1_0_2a'
p4358
aS'libcryptoopenssl-OpenSSL_1_0_2n'
p4359
aS'libcryptoopenssl-OpenSSL_1_0_2o'
p4360
aS'libcryptoopenssl-OpenSSL_1_0_0f'
p4361
aS'libcryptoopenssl-OpenSSL_1_0_0g'
p4362
aS'libcryptoopenssl-OpenSSL_1_0_2j'
p4363
aS'libcryptoopenssl-OpenSSL_1_0_0a'
p4364
aS'libcryptoopenssl-OpenSSL_1_0_0b'
p4365
aS'libcryptoopenssl-OpenSSL_1_0_2c'
p4366
aS'libcryptoopenssl-OpenSSL_0_9_8t'
p4367
aS'libcryptoopenssl-OpenSSL_0_9_8u'
p4368
aS'libcryptoopenssl-OpenSSL_0_9_8v'
p4369
aS'libcryptoopenssl-OpenSSL_0_9_8w'
p4370
aS'libcryptoopenssl-OpenSSL_0_9_8p'
p4371
aS'libcryptoopenssl-OpenSSL_1_0_0j'
p4372
aS'libcryptoopenssl-OpenSSL_0_9_8r'
p4373
aS'libcryptoopenssl-OpenSSL_0_9_8s'
p4374
aS'libcryptoopenssl-OpenSSL_1_0_2k'
p4375
aS'libcryptoopenssl-OpenSSL_1_0_0c'
p4376
aS'libcryptoopenssl-OpenSSL_1_0_0k'
p4377
aS'libcryptoopenssl-OpenSSL_0_9_8x'
p4378
aS'libcryptoopenssl-OpenSSL_0_9_8y'
p4379
aS'libcryptoopenssl-OpenSSL_1_0_0d'
p4380
aS'libcryptoopenssl-OpenSSL_1_0_2l'
p4381
aS'libcryptoopenssl-OpenSSL_1_0_0e'
p4382
aS'libcryptoopenssl-OpenSSL_0_9_8m'
p4383
aS'libcryptoopenssl-OpenSSL_0_9_8n'
p4384
aS'libcryptoopenssl-OpenSSL_0_9_8o'
p4385
aS'libcryptoopenssl-OpenSSL_1_0_2'
p4386
aS'libcryptoopenssl-OpenSSL_1_1_0d'
p4387
aS'libcryptoopenssl-OpenSSL_1_0_0'
p4388
aS'libcryptoopenssl-OpenSSL_1_0_0i'
p4389
aS'libcryptoopenssl-OpenSSL_1_0_2m'
p4390
aS'libcryptoopenssl-OpenSSL_1_1_0f'
p4391
aS'libcryptoopenssl-OpenSSL_1_0_0q'
p4392
aS'libcryptoopenssl-OpenSSL_1_0_1t'
p4393
aS'libcryptoopenssl-OpenSSL_1_0_1s'
p4394
aS'libcryptoopenssl-OpenSSL_1_0_1r'
p4395
aS'libcryptoopenssl-OpenSSL_1_0_1q'
p4396
aS'libcryptoopenssl-OpenSSL_1_0_1p'
p4397
aS'libcryptoopenssl-OpenSSL_1_0_1o'
p4398
aS'libcryptoopenssl-OpenSSL_1_0_1n'
p4399
aS'libcryptoopenssl-OpenSSL_1_0_1m'
p4400
aS'libcryptoopenssl-OpenSSL_1_0_1l'
p4401
aS'libcryptoopenssl-OpenSSL_1_0_1k'
p4402
aS'libcryptoopenssl-OpenSSL_1_0_2h'
p4403
aS'libcryptoopenssl-OpenSSL_1_0_1i'
p4404
aS'libcryptoopenssl-OpenSSL_1_0_1h'
p4405
aS'libcryptoopenssl-OpenSSL_1_0_1g'
p4406
aS'libcryptoopenssl-OpenSSL_1_0_1f'
p4407
aS'libcryptoopenssl-OpenSSL_1_0_1e'
p4408
aS'libcryptoopenssl-OpenSSL_1_0_1d'
p4409
aS'libcryptoopenssl-OpenSSL_1_0_1c'
p4410
aS'libcryptoopenssl-OpenSSL_1_0_1b'
p4411
aS'libcryptoopenssl-OpenSSL_1_0_1a'
p4412
aS'libcryptoopenssl-OpenSSL_1_0_0h'
p4413
atp4414
Rp4415
sS'MD2_Final'
p4416
g2
((lp4417
S'libcryptoopenssl-OpenSSL_0_9_8t'
p4418
aS'libcryptoopenssl-OpenSSL_0_9_8u'
p4419
aS'libcryptoopenssl-OpenSSL_0_9_8v'
p4420
aS'libcryptoopenssl-OpenSSL_0_9_8w'
p4421
aS'libcryptoopenssl-OpenSSL_0_9_8p'
p4422
aS'libcryptoopenssl-OpenSSL_0_9_8q'
p4423
aS'libcryptoopenssl-OpenSSL_0_9_8r'
p4424
aS'libcryptoopenssl-OpenSSL_0_9_8s'
p4425
aS'libcryptoopenssl-OpenSSL_0_9_8x'
p4426
aS'libcryptoopenssl-OpenSSL_0_9_8y'
p4427
aS'libcryptoopenssl-OpenSSL_0_9_8d'
p4428
aS'libcryptoopenssl-OpenSSL_0_9_8f'
p4429
aS'libcryptoopenssl-OpenSSL_0_9_8g'
p4430
aS'libcryptoopenssl-OpenSSL_0_9_8a'
p4431
aS'libcryptoopenssl-OpenSSL_0_9_8b'
p4432
aS'libcryptoopenssl-OpenSSL_0_9_8l'
p4433
aS'libcryptoopenssl-OpenSSL_0_9_8m'
p4434
aS'libcryptoopenssl-OpenSSL_0_9_8n'
p4435
aS'libcryptoopenssl-OpenSSL_0_9_8o'
p4436
aS'libcryptoopenssl-OpenSSL_0_9_8h'
p4437
aS'libcryptoopenssl-OpenSSL_0_9_8i'
p4438
aS'libcryptoopenssl-OpenSSL_0_9_8j'
p4439
aS'libcryptoopenssl-OpenSSL_0_9_8k'
p4440
aS'libcryptoopenssl-OpenSSL_0_9_8'
p4441
atp4442
Rp4443
sS'EC_EX_DATA_clear_free_data'
p4444
g2
((lp4445
tp4446
Rp4447
sS'OCSP_resp_find'
p4448
g2
((lp4449
S'libcryptoopenssl-OpenSSL_0_9_8t'
p4450
atp4451
Rp4452
sS'AES_ofb128_encrypt'
p4453
g2
((lp4454
S'libcryptoopenssl-OpenSSL_0_9_8t'
p4455
aS'libcryptoopenssl-OpenSSL_0_9_8u'
p4456
aS'libcryptoopenssl-OpenSSL_0_9_8v'
p4457
aS'libcryptoopenssl-OpenSSL_0_9_8w'
p4458
aS'libcryptoopenssl-OpenSSL_0_9_8p'
p4459
aS'libcryptoopenssl-OpenSSL_0_9_8q'
p4460
aS'libcryptoopenssl-OpenSSL_0_9_8r'
p4461
aS'libcryptoopenssl-OpenSSL_0_9_8s'
p4462
aS'libcryptoopenssl-OpenSSL_0_9_8x'
p4463
aS'libcryptoopenssl-OpenSSL_0_9_8y'
p4464
aS'libcryptoopenssl-OpenSSL_0_9_8m'
p4465
aS'libcryptoopenssl-OpenSSL_0_9_8n'
p4466
aS'libcryptoopenssl-OpenSSL_0_9_8o'
p4467
atp4468
Rp4469
sS'EC_EX_DATA_free_all_data'
p4470
g2
((lp4471
tp4472
Rp4473
sS'ec_pre_comp_free'
p4474
g2
((lp4475
tp4476
Rp4477
sS'policy_cache_find_data'
p4478
g2
((lp4479
S'libcryptoopenssl-OpenSSL_0_9_8t'
p4480
atp4481
Rp4482
sS'EVP_PKEY_bits'
p4483
g2
((lp4484
tp4485
Rp4486
sS'ssl3_cleanup_key_block'
p4487
g2
((lp4488
S'libsslopenssl-OpenSSL_0_9_8l'
p4489
aS'libsslopenssl-OpenSSL_0_9_8m'
p4490
aS'libsslopenssl-OpenSSL_0_9_8n'
p4491
aS'libsslopenssl-OpenSSL_0_9_8o'
p4492
aS'libsslopenssl-OpenSSL_0_9_8e'
p4493
aS'libsslopenssl-OpenSSL_0_9_8f'
p4494
aS'libsslopenssl-OpenSSL_0_9_8g'
p4495
aS'libsslopenssl-OpenSSL_0_9_8x'
p4496
aS'libsslopenssl-OpenSSL_0_9_8y'
p4497
aS'libsslopenssl-OpenSSL_0_9_8t'
p4498
aS'libsslopenssl-OpenSSL_0_9_8u'
p4499
aS'libsslopenssl-OpenSSL_0_9_8v'
p4500
aS'libsslopenssl-OpenSSL_0_9_8w'
p4501
aS'libsslopenssl-OpenSSL_0_9_8p'
p4502
aS'libsslopenssl-OpenSSL_0_9_8q'
p4503
aS'libsslopenssl-OpenSSL_0_9_8r'
p4504
aS'libsslopenssl-OpenSSL_0_9_8s'
p4505
atp4506
Rp4507
sS'OCSP_id_issuer_cmp'
p4508
g2
((lp4509
S'libcryptoopenssl-OpenSSL_0_9_8t'
p4510
atp4511
Rp4512
sS'ERR_peek_error'
p4513
g2
((lp4514
S'libcryptoopenssl-OpenSSL_0_9_7m'
p4515
aS'libcryptoopenssl-OpenSSL_0_9_7l'
p4516
aS'libcryptoopenssl-OpenSSL_0_9_7i'
p4517
aS'libcryptoopenssl-OpenSSL_0_9_7h'
p4518
aS'libcryptoopenssl-OpenSSL_0_9_7k'
p4519
aS'libcryptoopenssl-OpenSSL_0_9_7j'
p4520
aS'libcryptoopenssl-OpenSSL_0_9_7e'
p4521
aS'libcryptoopenssl-OpenSSL_0_9_7d'
p4522
aS'libcryptoopenssl-OpenSSL_0_9_7g'
p4523
aS'libcryptoopenssl-OpenSSL_0_9_7f'
p4524
aS'libcryptoopenssl-OpenSSL_0_9_7a'
p4525
aS'libcryptoopenssl-OpenSSL_0_9_7c'
p4526
aS'libcryptoopenssl-OpenSSL_0_9_7b'
p4527
aS'libcryptoopenssl-OpenSSL_1_0_0t'
p4528
aS'libcryptoopenssl-OpenSSL_1_0_0p'
p4529
aS'libcryptoopenssl-OpenSSL_1_0_0q'
p4530
aS'libcryptoopenssl-OpenSSL_1_0_0r'
p4531
aS'libcryptoopenssl-OpenSSL_1_0_0s'
p4532
aS'libcryptoopenssl-OpenSSL_1_0_0l'
p4533
aS'libcryptoopenssl-OpenSSL_1_0_0m'
p4534
aS'libcryptoopenssl-OpenSSL_1_0_0n'
p4535
aS'libcryptoopenssl-OpenSSL_1_0_0o'
p4536
aS'libcryptoopenssl-OpenSSL_1_0_0h'
p4537
aS'libcryptoopenssl-OpenSSL_1_0_0i'
p4538
aS'libcryptoopenssl-OpenSSL_1_0_0j'
p4539
aS'libcryptoopenssl-OpenSSL_1_0_0k'
p4540
aS'libcryptoopenssl-OpenSSL_1_0_0d'
p4541
aS'libcryptoopenssl-OpenSSL_1_0_0e'
p4542
aS'libcryptoopenssl-OpenSSL_1_0_0f'
p4543
aS'libcryptoopenssl-OpenSSL_1_0_0g'
p4544
aS'libcryptoopenssl-OpenSSL_1_0_0a'
p4545
aS'libcryptoopenssl-OpenSSL_1_0_0b'
p4546
aS'libcryptoopenssl-OpenSSL_1_0_0c'
p4547
aS'libcryptoopenssl-OpenSSL_0_9_8t'
p4548
aS'libcryptoopenssl-OpenSSL_0_9_8u'
p4549
aS'libcryptoopenssl-OpenSSL_0_9_8v'
p4550
aS'libcryptoopenssl-OpenSSL_0_9_8w'
p4551
aS'libcryptoopenssl-OpenSSL_0_9_8p'
p4552
aS'libcryptoopenssl-OpenSSL_0_9_8q'
p4553
aS'libcryptoopenssl-OpenSSL_0_9_8r'
p4554
aS'libcryptoopenssl-OpenSSL_0_9_8s'
p4555
aS'libcryptoopenssl-OpenSSL_0_9_8x'
p4556
aS'libcryptoopenssl-OpenSSL_0_9_8y'
p4557
aS'libcryptoopenssl-OpenSSL_0_9_8d'
p4558
aS'libcryptoopenssl-OpenSSL_0_9_8e'
p4559
aS'libcryptoopenssl-OpenSSL_0_9_8f'
p4560
aS'libcryptoopenssl-OpenSSL_0_9_8g'
p4561
aS'libcryptoopenssl-OpenSSL_0_9_8a'
p4562
aS'libcryptoopenssl-OpenSSL_0_9_8b'
p4563
aS'libcryptoopenssl-OpenSSL_0_9_8c'
p4564
aS'libcryptoopenssl-OpenSSL_0_9_8l'
p4565
aS'libcryptoopenssl-OpenSSL_0_9_8m'
p4566
aS'libcryptoopenssl-OpenSSL_0_9_8n'
p4567
aS'libcryptoopenssl-OpenSSL_0_9_8o'
p4568
aS'libcryptoopenssl-OpenSSL_0_9_8h'
p4569
aS'libcryptoopenssl-OpenSSL_0_9_8i'
p4570
aS'libcryptoopenssl-OpenSSL_0_9_8j'
p4571
aS'libcryptoopenssl-OpenSSL_0_9_8k'
p4572
aS'libcryptoopenssl-OpenSSL_1_0_0'
p4573
aS'libcryptoopenssl-OpenSSL_0_9_8'
p4574
aS'libcryptoopenssl-OpenSSL_0_9_7'
p4575
atp4576
Rp4577
sS'BN_sqr'
p4578
g2
((lp4579
tp4580
Rp4581
sS'trust_1oidany'
p4582
g2
((lp4583
S'libcryptoopenssl-OpenSSL_0_9_8t'
p4584
atp4585
Rp4586
s.