(dp0
S'X509V3_NAME_from_section'
p1
c__builtin__
set
p2
((lp3
S'libcryptoopenssl-OpenSSL_0_9_8t'
p4
aS'libcryptoopenssl-OpenSSL_0_9_8u'
p5
aS'libcryptoopenssl-OpenSSL_0_9_8v'
p6
aS'libcryptoopenssl-OpenSSL_0_9_8w'
p7
aS'libcryptoopenssl-OpenSSL_0_9_8s'
p8
aS'libcryptoopenssl-OpenSSL_0_9_8x'
p9
aS'libcryptoopenssl-OpenSSL_0_9_8y'
p10
atp11
Rp12
sS'ec_GFp_simple_add'
p13
g2
((lp14
tp15
Rp16
sS'ec_GFp_nist_field_sqr'
p17
g2
((lp18
tp19
Rp20
sS'ec_GF2m_simple_point_get_affine_coordinates'
p21
g2
((lp22
tp23
Rp24
sS'app_info_free'
p25
g2
((lp26
tp27
Rp28
sS'bn_sub_part_words'
p29
g2
((lp30
tp31
Rp32
sS'SHA512_Update'
p33
g2
((lp34
S'libcryptoopenssl-OpenSSL_0_9_8t'
p35
aS'libcryptoopenssl-OpenSSL_0_9_8u'
p36
aS'libcryptoopenssl-OpenSSL_0_9_8v'
p37
aS'libcryptoopenssl-OpenSSL_0_9_8w'
p38
aS'libcryptoopenssl-OpenSSL_0_9_8p'
p39
aS'libcryptoopenssl-OpenSSL_0_9_8q'
p40
aS'libcryptoopenssl-OpenSSL_0_9_8r'
p41
aS'libcryptoopenssl-OpenSSL_0_9_8s'
p42
aS'libcryptoopenssl-OpenSSL_0_9_8x'
p43
aS'libcryptoopenssl-OpenSSL_0_9_8y'
p44
aS'libcryptoopenssl-OpenSSL_0_9_8m'
p45
aS'libcryptoopenssl-OpenSSL_0_9_8n'
p46
aS'libcryptoopenssl-OpenSSL_0_9_8o'
p47
atp48
Rp49
sS'BN_mod_exp_recp'
p50
g2
((lp51
tp52
Rp53
sS'BN_MONT_CTX_new'
p54
g2
((lp55
tp56
Rp57
sS'DH_check_pub_key'
p58
g2
((lp59
tp60
Rp61
sS'_CONF_new_section'
p62
g2
((lp63
tp64
Rp65
sS'ECDSA_size'
p66
g2
((lp67
tp68
Rp69
sS'BN_uadd'
p70
g2
((lp71
tp72
Rp73
sS'EC_GROUP_new_curve_GFp'
p74
g2
((lp75
tp76
Rp77
sS'EC_POINT_dbl'
p78
g2
((lp79
tp80
Rp81
sS'BN_mod_add_quick'
p82
g2
((lp83
tp84
Rp85
sS'BN_mod_lshift1_quick'
p86
g2
((lp87
tp88
Rp89
sS'ssl3_send_alert'
p90
g2
((lp91
tp92
Rp93
sS'BN_RECP_CTX_set'
p94
g2
((lp95
tp96
Rp97
sS'EC_KEY_copy'
p98
g2
((lp99
tp100
Rp101
sS'BUF_MEM_free'
p102
g2
((lp103
tp104
Rp105
sS'DES_ecb_encrypt'
p106
g2
((lp107
S'libcryptoopenssl-OpenSSL_0_9_7m'
p108
aS'libcryptoopenssl-OpenSSL_0_9_7l'
p109
aS'libcryptoopenssl-OpenSSL_0_9_7i'
p110
aS'libcryptoopenssl-OpenSSL_0_9_7h'
p111
aS'libcryptoopenssl-OpenSSL_0_9_7k'
p112
aS'libcryptoopenssl-OpenSSL_0_9_7j'
p113
aS'libcryptoopenssl-OpenSSL_0_9_7e'
p114
aS'libcryptoopenssl-OpenSSL_0_9_7d'
p115
aS'libcryptoopenssl-OpenSSL_0_9_7g'
p116
aS'libcryptoopenssl-OpenSSL_0_9_7f'
p117
aS'libcryptoopenssl-OpenSSL_0_9_7a'
p118
aS'libcryptoopenssl-OpenSSL_0_9_7c'
p119
aS'libcryptoopenssl-OpenSSL_0_9_7b'
p120
aS'libcryptoopenssl-OpenSSL_0_9_8t'
p121
aS'libcryptoopenssl-OpenSSL_0_9_8u'
p122
aS'libcryptoopenssl-OpenSSL_0_9_8v'
p123
aS'libcryptoopenssl-OpenSSL_0_9_8w'
p124
aS'libcryptoopenssl-OpenSSL_0_9_8p'
p125
aS'libcryptoopenssl-OpenSSL_0_9_8q'
p126
aS'libcryptoopenssl-OpenSSL_0_9_8r'
p127
aS'libcryptoopenssl-OpenSSL_0_9_8s'
p128
aS'libcryptoopenssl-OpenSSL_0_9_8x'
p129
aS'libcryptoopenssl-OpenSSL_0_9_8y'
p130
aS'libcryptoopenssl-OpenSSL_0_9_8d'
p131
aS'libcryptoopenssl-OpenSSL_0_9_8e'
p132
aS'libcryptoopenssl-OpenSSL_0_9_8f'
p133
aS'libcryptoopenssl-OpenSSL_0_9_8g'
p134
aS'libcryptoopenssl-OpenSSL_0_9_8a'
p135
aS'libcryptoopenssl-OpenSSL_0_9_8b'
p136
aS'libcryptoopenssl-OpenSSL_0_9_8c'
p137
aS'libcryptoopenssl-OpenSSL_0_9_8l'
p138
aS'libcryptoopenssl-OpenSSL_0_9_8m'
p139
aS'libcryptoopenssl-OpenSSL_0_9_8n'
p140
aS'libcryptoopenssl-OpenSSL_0_9_8o'
p141
aS'libcryptoopenssl-OpenSSL_0_9_8h'
p142
aS'libcryptoopenssl-OpenSSL_0_9_8i'
p143
aS'libcryptoopenssl-OpenSSL_0_9_8j'
p144
aS'libcryptoopenssl-OpenSSL_0_9_8k'
p145
aS'libcryptoopenssl-OpenSSL_0_9_8'
p146
aS'libcryptoopenssl-OpenSSL_0_9_7'
p147
atp148
Rp149
sS'long_i2c'
p150
g2
((lp151
tp152
Rp153
sS'BN_GF2m_add'
p154
g2
((lp155
tp156
Rp157
sS'i2d_ASN1_OBJECT'
p158
g2
((lp159
tp160
Rp161
sS'i2d_ASN1_bytes'
p162
g2
((lp163
tp164
Rp165
sS'EC_POINT_copy'
p166
g2
((lp167
tp168
Rp169
sS'lh_doall_arg'
p170
g2
((lp171
S'libcryptoopenssl-OpenSSL_0_9_7m'
p172
aS'libcryptoopenssl-OpenSSL_0_9_7l'
p173
aS'libcryptoopenssl-OpenSSL_0_9_7i'
p174
aS'libcryptoopenssl-OpenSSL_0_9_7h'
p175
aS'libcryptoopenssl-OpenSSL_0_9_7k'
p176
aS'libcryptoopenssl-OpenSSL_0_9_7j'
p177
aS'libcryptoopenssl-OpenSSL_0_9_7e'
p178
aS'libcryptoopenssl-OpenSSL_0_9_7d'
p179
aS'libcryptoopenssl-OpenSSL_0_9_7g'
p180
aS'libcryptoopenssl-OpenSSL_0_9_7f'
p181
aS'libcryptoopenssl-OpenSSL_0_9_7a'
p182
aS'libcryptoopenssl-OpenSSL_0_9_7c'
p183
aS'libcryptoopenssl-OpenSSL_0_9_7b'
p184
aS'libcryptoopenssl-OpenSSL_0_9_8t'
p185
aS'libcryptoopenssl-OpenSSL_0_9_8u'
p186
aS'libcryptoopenssl-OpenSSL_0_9_8v'
p187
aS'libcryptoopenssl-OpenSSL_0_9_8w'
p188
aS'libcryptoopenssl-OpenSSL_0_9_8p'
p189
aS'libcryptoopenssl-OpenSSL_0_9_8q'
p190
aS'libcryptoopenssl-OpenSSL_0_9_8r'
p191
aS'libcryptoopenssl-OpenSSL_0_9_8s'
p192
aS'libcryptoopenssl-OpenSSL_0_9_8x'
p193
aS'libcryptoopenssl-OpenSSL_0_9_8y'
p194
aS'libcryptoopenssl-OpenSSL_0_9_8d'
p195
aS'libcryptoopenssl-OpenSSL_0_9_8e'
p196
aS'libcryptoopenssl-OpenSSL_0_9_8f'
p197
aS'libcryptoopenssl-OpenSSL_0_9_8g'
p198
aS'libcryptoopenssl-OpenSSL_0_9_8a'
p199
aS'libcryptoopenssl-OpenSSL_0_9_8b'
p200
aS'libcryptoopenssl-OpenSSL_0_9_8c'
p201
aS'libcryptoopenssl-OpenSSL_0_9_8l'
p202
aS'libcryptoopenssl-OpenSSL_0_9_8m'
p203
aS'libcryptoopenssl-OpenSSL_0_9_8n'
p204
aS'libcryptoopenssl-OpenSSL_0_9_8o'
p205
aS'libcryptoopenssl-OpenSSL_0_9_8h'
p206
aS'libcryptoopenssl-OpenSSL_0_9_8i'
p207
aS'libcryptoopenssl-OpenSSL_0_9_8j'
p208
aS'libcryptoopenssl-OpenSSL_0_9_8k'
p209
aS'libcryptoopenssl-OpenSSL_0_9_8'
p210
aS'libcryptoopenssl-OpenSSL_0_9_7'
p211
atp212
Rp213
sS'X509_time_adj'
p214
g2
((lp215
S'libcryptoopenssl-OpenSSL_0_9_7m'
p216
aS'libcryptoopenssl-OpenSSL_0_9_7l'
p217
aS'libcryptoopenssl-OpenSSL_0_9_7i'
p218
aS'libcryptoopenssl-OpenSSL_0_9_7h'
p219
aS'libcryptoopenssl-OpenSSL_0_9_7k'
p220
aS'libcryptoopenssl-OpenSSL_0_9_7j'
p221
aS'libcryptoopenssl-OpenSSL_0_9_7e'
p222
aS'libcryptoopenssl-OpenSSL_0_9_7d'
p223
aS'libcryptoopenssl-OpenSSL_0_9_7g'
p224
aS'libcryptoopenssl-OpenSSL_0_9_7f'
p225
aS'libcryptoopenssl-OpenSSL_0_9_7a'
p226
aS'libcryptoopenssl-OpenSSL_0_9_7c'
p227
aS'libcryptoopenssl-OpenSSL_0_9_7b'
p228
aS'libcryptoopenssl-OpenSSL_0_9_8t'
p229
aS'libcryptoopenssl-OpenSSL_0_9_8u'
p230
aS'libcryptoopenssl-OpenSSL_0_9_8v'
p231
aS'libcryptoopenssl-OpenSSL_0_9_8w'
p232
aS'libcryptoopenssl-OpenSSL_0_9_8p'
p233
aS'libcryptoopenssl-OpenSSL_0_9_8q'
p234
aS'libcryptoopenssl-OpenSSL_0_9_8r'
p235
aS'libcryptoopenssl-OpenSSL_0_9_8s'
p236
aS'libcryptoopenssl-OpenSSL_0_9_8x'
p237
aS'libcryptoopenssl-OpenSSL_0_9_8y'
p238
aS'libcryptoopenssl-OpenSSL_0_9_8d'
p239
aS'libcryptoopenssl-OpenSSL_0_9_8e'
p240
aS'libcryptoopenssl-OpenSSL_0_9_8f'
p241
aS'libcryptoopenssl-OpenSSL_0_9_8g'
p242
aS'libcryptoopenssl-OpenSSL_0_9_8a'
p243
aS'libcryptoopenssl-OpenSSL_0_9_8b'
p244
aS'libcryptoopenssl-OpenSSL_0_9_8c'
p245
aS'libcryptoopenssl-OpenSSL_0_9_8l'
p246
aS'libcryptoopenssl-OpenSSL_0_9_8m'
p247
aS'libcryptoopenssl-OpenSSL_0_9_8n'
p248
aS'libcryptoopenssl-OpenSSL_0_9_8o'
p249
aS'libcryptoopenssl-OpenSSL_0_9_8h'
p250
aS'libcryptoopenssl-OpenSSL_0_9_8i'
p251
aS'libcryptoopenssl-OpenSSL_0_9_8j'
p252
aS'libcryptoopenssl-OpenSSL_0_9_8k'
p253
aS'libcryptoopenssl-OpenSSL_0_9_8'
p254
atp255
Rp256
sS'MD2_Update'
p257
g2
((lp258
S'libcryptoopenssl-OpenSSL_0_9_8t'
p259
aS'libcryptoopenssl-OpenSSL_0_9_8u'
p260
aS'libcryptoopenssl-OpenSSL_0_9_8v'
p261
aS'libcryptoopenssl-OpenSSL_0_9_8w'
p262
aS'libcryptoopenssl-OpenSSL_0_9_8p'
p263
aS'libcryptoopenssl-OpenSSL_0_9_8q'
p264
aS'libcryptoopenssl-OpenSSL_0_9_8r'
p265
aS'libcryptoopenssl-OpenSSL_0_9_8s'
p266
aS'libcryptoopenssl-OpenSSL_0_9_8x'
p267
aS'libcryptoopenssl-OpenSSL_0_9_8y'
p268
aS'libcryptoopenssl-OpenSSL_0_9_8d'
p269
aS'libcryptoopenssl-OpenSSL_0_9_8f'
p270
aS'libcryptoopenssl-OpenSSL_0_9_8g'
p271
aS'libcryptoopenssl-OpenSSL_0_9_8a'
p272
aS'libcryptoopenssl-OpenSSL_0_9_8b'
p273
aS'libcryptoopenssl-OpenSSL_0_9_8l'
p274
aS'libcryptoopenssl-OpenSSL_0_9_8m'
p275
aS'libcryptoopenssl-OpenSSL_0_9_8n'
p276
aS'libcryptoopenssl-OpenSSL_0_9_8o'
p277
aS'libcryptoopenssl-OpenSSL_0_9_8h'
p278
aS'libcryptoopenssl-OpenSSL_0_9_8i'
p279
aS'libcryptoopenssl-OpenSSL_0_9_8j'
p280
aS'libcryptoopenssl-OpenSSL_0_9_8k'
p281
aS'libcryptoopenssl-OpenSSL_0_9_8'
p282
atp283
Rp284
sS'i2c_ASN1_INTEGER'
p285
g2
((lp286
S'libcryptoopenssl-OpenSSL_1_0_1'
p287
aS'libcryptoopenssl-OpenSSL_1_0_0'
p288
aS'libcryptoopenssl-OpenSSL_1_0_0h'
p289
aS'libcryptoopenssl-OpenSSL_1_0_0i'
p290
aS'libcryptoopenssl-OpenSSL_1_0_0j'
p291
aS'libcryptoopenssl-OpenSSL_1_0_0k'
p292
aS'libcryptoopenssl-OpenSSL_1_0_0d'
p293
aS'libcryptoopenssl-OpenSSL_1_0_0e'
p294
aS'libcryptoopenssl-OpenSSL_1_0_0f'
p295
aS'libcryptoopenssl-OpenSSL_1_0_0g'
p296
aS'libcryptoopenssl-OpenSSL_1_0_0a'
p297
aS'libcryptoopenssl-OpenSSL_1_0_0b'
p298
aS'libcryptoopenssl-OpenSSL_1_0_0c'
p299
aS'libcryptoopenssl-OpenSSL_0_9_8t'
p300
aS'libcryptoopenssl-OpenSSL_0_9_8u'
p301
aS'libcryptoopenssl-OpenSSL_0_9_8v'
p302
aS'libcryptoopenssl-OpenSSL_0_9_8w'
p303
aS'libcryptoopenssl-OpenSSL_0_9_8p'
p304
aS'libcryptoopenssl-OpenSSL_0_9_8q'
p305
aS'libcryptoopenssl-OpenSSL_0_9_8r'
p306
aS'libcryptoopenssl-OpenSSL_0_9_8s'
p307
aS'libcryptoopenssl-OpenSSL_0_9_8x'
p308
aS'libcryptoopenssl-OpenSSL_0_9_8y'
p309
aS'libcryptoopenssl-OpenSSL_0_9_8d'
p310
aS'libcryptoopenssl-OpenSSL_0_9_8e'
p311
aS'libcryptoopenssl-OpenSSL_0_9_8f'
p312
aS'libcryptoopenssl-OpenSSL_0_9_8g'
p313
aS'libcryptoopenssl-OpenSSL_0_9_8b'
p314
aS'libcryptoopenssl-OpenSSL_0_9_8c'
p315
aS'libcryptoopenssl-OpenSSL_0_9_8l'
p316
aS'libcryptoopenssl-OpenSSL_0_9_8m'
p317
aS'libcryptoopenssl-OpenSSL_0_9_8n'
p318
aS'libcryptoopenssl-OpenSSL_0_9_8o'
p319
aS'libcryptoopenssl-OpenSSL_0_9_8h'
p320
aS'libcryptoopenssl-OpenSSL_0_9_8i'
p321
aS'libcryptoopenssl-OpenSSL_0_9_8j'
p322
aS'libcryptoopenssl-OpenSSL_0_9_8k'
p323
aS'libcryptoopenssl-OpenSSL_1_0_1e'
p324
aS'libcryptoopenssl-OpenSSL_1_0_1d'
p325
aS'libcryptoopenssl-OpenSSL_1_0_1c'
p326
aS'libcryptoopenssl-OpenSSL_1_0_1b'
p327
aS'libcryptoopenssl-OpenSSL_1_0_1a'
p328
atp329
Rp330
sS'ec_GFp_simple_is_on_curve'
p331
g2
((lp332
tp333
Rp334
sS'BN_mod_sub_quick'
p335
g2
((lp336
tp337
Rp338
sS'ec_GF2m_simple_make_affine'
p339
g2
((lp340
tp341
Rp342
sS'PKCS7_add_signer'
p343
g2
((lp344
S'libcryptoopenssl-OpenSSL_0_9_8t'
p345
aS'libcryptoopenssl-OpenSSL_0_9_8u'
p346
aS'libcryptoopenssl-OpenSSL_0_9_8v'
p347
aS'libcryptoopenssl-OpenSSL_0_9_8w'
p348
aS'libcryptoopenssl-OpenSSL_0_9_8s'
p349
aS'libcryptoopenssl-OpenSSL_0_9_8x'
p350
aS'libcryptoopenssl-OpenSSL_0_9_8y'
p351
atp352
Rp353
sS'ec_GFp_simple_make_affine'
p354
g2
((lp355
tp356
Rp357
sS'rc2_ecb_cipher'
p358
g2
((lp359
S'libcryptoopenssl-OpenSSL_0_9_7m'
p360
aS'libcryptoopenssl-OpenSSL_0_9_7l'
p361
aS'libcryptoopenssl-OpenSSL_0_9_7i'
p362
aS'libcryptoopenssl-OpenSSL_0_9_7h'
p363
aS'libcryptoopenssl-OpenSSL_0_9_7k'
p364
aS'libcryptoopenssl-OpenSSL_0_9_7j'
p365
aS'libcryptoopenssl-OpenSSL_0_9_7e'
p366
aS'libcryptoopenssl-OpenSSL_0_9_7d'
p367
aS'libcryptoopenssl-OpenSSL_0_9_7g'
p368
aS'libcryptoopenssl-OpenSSL_0_9_7f'
p369
aS'libcryptoopenssl-OpenSSL_0_9_7a'
p370
aS'libcryptoopenssl-OpenSSL_0_9_7c'
p371
aS'libcryptoopenssl-OpenSSL_0_9_7b'
p372
aS'libcryptoopenssl-OpenSSL_0_9_8t'
p373
aS'libcryptoopenssl-OpenSSL_0_9_8u'
p374
aS'libcryptoopenssl-OpenSSL_0_9_8v'
p375
aS'libcryptoopenssl-OpenSSL_0_9_8w'
p376
aS'libcryptoopenssl-OpenSSL_0_9_8p'
p377
aS'libcryptoopenssl-OpenSSL_0_9_8q'
p378
aS'libcryptoopenssl-OpenSSL_0_9_8r'
p379
aS'libcryptoopenssl-OpenSSL_0_9_8s'
p380
aS'libcryptoopenssl-OpenSSL_0_9_8x'
p381
aS'libcryptoopenssl-OpenSSL_0_9_8y'
p382
aS'libcryptoopenssl-OpenSSL_0_9_8d'
p383
aS'libcryptoopenssl-OpenSSL_0_9_8e'
p384
aS'libcryptoopenssl-OpenSSL_0_9_8f'
p385
aS'libcryptoopenssl-OpenSSL_0_9_8g'
p386
aS'libcryptoopenssl-OpenSSL_0_9_8a'
p387
aS'libcryptoopenssl-OpenSSL_0_9_8b'
p388
aS'libcryptoopenssl-OpenSSL_0_9_8c'
p389
aS'libcryptoopenssl-OpenSSL_0_9_8l'
p390
aS'libcryptoopenssl-OpenSSL_0_9_8m'
p391
aS'libcryptoopenssl-OpenSSL_0_9_8n'
p392
aS'libcryptoopenssl-OpenSSL_0_9_8o'
p393
aS'libcryptoopenssl-OpenSSL_0_9_8h'
p394
aS'libcryptoopenssl-OpenSSL_0_9_8i'
p395
aS'libcryptoopenssl-OpenSSL_0_9_8j'
p396
aS'libcryptoopenssl-OpenSSL_0_9_8k'
p397
aS'libcryptoopenssl-OpenSSL_0_9_8'
p398
aS'libcryptoopenssl-OpenSSL_0_9_7'
p399
atp400
Rp401
sS'ec_GFp_simple_get_Jprojective_coordinates_GFp'
p402
g2
((lp403
tp404
Rp405
sS'dtls1_get_message'
p406
g2
((lp407
tp408
Rp409
sS'ec_GF2m_simple_add'
p410
g2
((lp411
tp412
Rp413
sS'ERR_set_error_data'
p414
g2
((lp415
tp416
Rp417
sS'DH_check'
p418
g2
((lp419
tp420
Rp421
sS'check_issued'
p422
g2
((lp423
S'libcryptoopenssl-OpenSSL_0_9_8t'
p424
aS'libcryptoopenssl-OpenSSL_0_9_8u'
p425
aS'libcryptoopenssl-OpenSSL_0_9_8v'
p426
aS'libcryptoopenssl-OpenSSL_0_9_8w'
p427
aS'libcryptoopenssl-OpenSSL_0_9_8p'
p428
aS'libcryptoopenssl-OpenSSL_0_9_8q'
p429
aS'libcryptoopenssl-OpenSSL_0_9_8r'
p430
aS'libcryptoopenssl-OpenSSL_0_9_8s'
p431
aS'libcryptoopenssl-OpenSSL_0_9_8x'
p432
aS'libcryptoopenssl-OpenSSL_0_9_8y'
p433
atp434
Rp435
sS'EC_POINT_set_to_infinity'
p436
g2
((lp437
tp438
Rp439
sS'des_ede_ecb_cipher'
p440
g2
((lp441
S'libcryptoopenssl-OpenSSL_0_9_7m'
p442
aS'libcryptoopenssl-OpenSSL_0_9_7l'
p443
aS'libcryptoopenssl-OpenSSL_0_9_7i'
p444
aS'libcryptoopenssl-OpenSSL_0_9_7h'
p445
aS'libcryptoopenssl-OpenSSL_0_9_7k'
p446
aS'libcryptoopenssl-OpenSSL_0_9_7j'
p447
aS'libcryptoopenssl-OpenSSL_0_9_7e'
p448
aS'libcryptoopenssl-OpenSSL_0_9_7d'
p449
aS'libcryptoopenssl-OpenSSL_0_9_7g'
p450
aS'libcryptoopenssl-OpenSSL_0_9_7f'
p451
aS'libcryptoopenssl-OpenSSL_0_9_7a'
p452
aS'libcryptoopenssl-OpenSSL_0_9_7c'
p453
aS'libcryptoopenssl-OpenSSL_0_9_7b'
p454
aS'libcryptoopenssl-OpenSSL_0_9_8t'
p455
aS'libcryptoopenssl-OpenSSL_0_9_8u'
p456
aS'libcryptoopenssl-OpenSSL_0_9_8v'
p457
aS'libcryptoopenssl-OpenSSL_0_9_8w'
p458
aS'libcryptoopenssl-OpenSSL_0_9_8p'
p459
aS'libcryptoopenssl-OpenSSL_0_9_8q'
p460
aS'libcryptoopenssl-OpenSSL_0_9_8r'
p461
aS'libcryptoopenssl-OpenSSL_0_9_8s'
p462
aS'libcryptoopenssl-OpenSSL_0_9_8x'
p463
aS'libcryptoopenssl-OpenSSL_0_9_8y'
p464
aS'libcryptoopenssl-OpenSSL_0_9_8d'
p465
aS'libcryptoopenssl-OpenSSL_0_9_8e'
p466
aS'libcryptoopenssl-OpenSSL_0_9_8f'
p467
aS'libcryptoopenssl-OpenSSL_0_9_8g'
p468
aS'libcryptoopenssl-OpenSSL_0_9_8a'
p469
aS'libcryptoopenssl-OpenSSL_0_9_8b'
p470
aS'libcryptoopenssl-OpenSSL_0_9_8c'
p471
aS'libcryptoopenssl-OpenSSL_0_9_8l'
p472
aS'libcryptoopenssl-OpenSSL_0_9_8m'
p473
aS'libcryptoopenssl-OpenSSL_0_9_8n'
p474
aS'libcryptoopenssl-OpenSSL_0_9_8o'
p475
aS'libcryptoopenssl-OpenSSL_0_9_8h'
p476
aS'libcryptoopenssl-OpenSSL_0_9_8i'
p477
aS'libcryptoopenssl-OpenSSL_0_9_8j'
p478
aS'libcryptoopenssl-OpenSSL_0_9_8k'
p479
aS'libcryptoopenssl-OpenSSL_0_9_8'
p480
aS'libcryptoopenssl-OpenSSL_0_9_7'
p481
atp482
Rp483
sS'ec_pre_comp_clear_free'
p484
g2
((lp485
tp486
Rp487
sS'des_ecb_cipher'
p488
g2
((lp489
S'libcryptoopenssl-OpenSSL_0_9_7m'
p490
aS'libcryptoopenssl-OpenSSL_0_9_7l'
p491
aS'libcryptoopenssl-OpenSSL_0_9_7i'
p492
aS'libcryptoopenssl-OpenSSL_0_9_7h'
p493
aS'libcryptoopenssl-OpenSSL_0_9_7k'
p494
aS'libcryptoopenssl-OpenSSL_0_9_7j'
p495
aS'libcryptoopenssl-OpenSSL_0_9_7e'
p496
aS'libcryptoopenssl-OpenSSL_0_9_7d'
p497
aS'libcryptoopenssl-OpenSSL_0_9_7g'
p498
aS'libcryptoopenssl-OpenSSL_0_9_7f'
p499
aS'libcryptoopenssl-OpenSSL_0_9_7a'
p500
aS'libcryptoopenssl-OpenSSL_0_9_7c'
p501
aS'libcryptoopenssl-OpenSSL_0_9_7b'
p502
aS'libcryptoopenssl-OpenSSL_0_9_8t'
p503
aS'libcryptoopenssl-OpenSSL_0_9_8u'
p504
aS'libcryptoopenssl-OpenSSL_0_9_8v'
p505
aS'libcryptoopenssl-OpenSSL_0_9_8w'
p506
aS'libcryptoopenssl-OpenSSL_0_9_8p'
p507
aS'libcryptoopenssl-OpenSSL_0_9_8q'
p508
aS'libcryptoopenssl-OpenSSL_0_9_8r'
p509
aS'libcryptoopenssl-OpenSSL_0_9_8s'
p510
aS'libcryptoopenssl-OpenSSL_0_9_8x'
p511
aS'libcryptoopenssl-OpenSSL_0_9_8y'
p512
aS'libcryptoopenssl-OpenSSL_0_9_8d'
p513
aS'libcryptoopenssl-OpenSSL_0_9_8e'
p514
aS'libcryptoopenssl-OpenSSL_0_9_8f'
p515
aS'libcryptoopenssl-OpenSSL_0_9_8g'
p516
aS'libcryptoopenssl-OpenSSL_0_9_8a'
p517
aS'libcryptoopenssl-OpenSSL_0_9_8b'
p518
aS'libcryptoopenssl-OpenSSL_0_9_8c'
p519
aS'libcryptoopenssl-OpenSSL_0_9_8l'
p520
aS'libcryptoopenssl-OpenSSL_0_9_8m'
p521
aS'libcryptoopenssl-OpenSSL_0_9_8n'
p522
aS'libcryptoopenssl-OpenSSL_0_9_8o'
p523
aS'libcryptoopenssl-OpenSSL_0_9_8h'
p524
aS'libcryptoopenssl-OpenSSL_0_9_8i'
p525
aS'libcryptoopenssl-OpenSSL_0_9_8j'
p526
aS'libcryptoopenssl-OpenSSL_0_9_8k'
p527
aS'libcryptoopenssl-OpenSSL_0_9_8'
p528
aS'libcryptoopenssl-OpenSSL_0_9_7'
p529
atp530
Rp531
sS'X509at_get_attr_by_OBJ'
p532
g2
((lp533
S'libcryptoopenssl-OpenSSL_0_9_8t'
p534
aS'libcryptoopenssl-OpenSSL_0_9_8u'
p535
aS'libcryptoopenssl-OpenSSL_0_9_8v'
p536
aS'libcryptoopenssl-OpenSSL_0_9_8w'
p537
aS'libcryptoopenssl-OpenSSL_0_9_8s'
p538
aS'libcryptoopenssl-OpenSSL_0_9_8x'
p539
aS'libcryptoopenssl-OpenSSL_0_9_8y'
p540
atp541
Rp542
sS'ASN1_INTEGER_get'
p543
g2
((lp544
S'libcryptoopenssl-OpenSSL_1_0_0'
p545
aS'libcryptoopenssl-OpenSSL_1_0_0d'
p546
aS'libcryptoopenssl-OpenSSL_1_0_0e'
p547
aS'libcryptoopenssl-OpenSSL_1_0_0f'
p548
aS'libcryptoopenssl-OpenSSL_1_0_0a'
p549
aS'libcryptoopenssl-OpenSSL_1_0_0b'
p550
aS'libcryptoopenssl-OpenSSL_1_0_0c'
p551
aS'libcryptoopenssl-OpenSSL_0_9_8t'
p552
aS'libcryptoopenssl-OpenSSL_0_9_8u'
p553
aS'libcryptoopenssl-OpenSSL_0_9_8v'
p554
aS'libcryptoopenssl-OpenSSL_0_9_8w'
p555
aS'libcryptoopenssl-OpenSSL_0_9_8p'
p556
aS'libcryptoopenssl-OpenSSL_0_9_8q'
p557
aS'libcryptoopenssl-OpenSSL_0_9_8r'
p558
aS'libcryptoopenssl-OpenSSL_0_9_8s'
p559
aS'libcryptoopenssl-OpenSSL_0_9_8x'
p560
aS'libcryptoopenssl-OpenSSL_0_9_8y'
p561
aS'libcryptoopenssl-OpenSSL_0_9_8d'
p562
aS'libcryptoopenssl-OpenSSL_0_9_8e'
p563
aS'libcryptoopenssl-OpenSSL_0_9_8f'
p564
aS'libcryptoopenssl-OpenSSL_0_9_8g'
p565
aS'libcryptoopenssl-OpenSSL_0_9_8a'
p566
aS'libcryptoopenssl-OpenSSL_0_9_8b'
p567
aS'libcryptoopenssl-OpenSSL_0_9_8c'
p568
aS'libcryptoopenssl-OpenSSL_0_9_8l'
p569
aS'libcryptoopenssl-OpenSSL_0_9_8m'
p570
aS'libcryptoopenssl-OpenSSL_0_9_8n'
p571
aS'libcryptoopenssl-OpenSSL_0_9_8o'
p572
aS'libcryptoopenssl-OpenSSL_0_9_8h'
p573
aS'libcryptoopenssl-OpenSSL_0_9_8i'
p574
aS'libcryptoopenssl-OpenSSL_0_9_8j'
p575
aS'libcryptoopenssl-OpenSSL_0_9_8k'
p576
aS'libcryptoopenssl-OpenSSL_0_9_8'
p577
atp578
Rp579
sS'CRYPTO_get_ex_data'
p580
g2
((lp581
S'libcryptoopenssl-OpenSSL_0_9_8t'
p582
aS'libcryptoopenssl-OpenSSL_0_9_8u'
p583
aS'libcryptoopenssl-OpenSSL_0_9_8v'
p584
aS'libcryptoopenssl-OpenSSL_0_9_8w'
p585
aS'libcryptoopenssl-OpenSSL_0_9_8s'
p586
aS'libcryptoopenssl-OpenSSL_0_9_8x'
p587
aS'libcryptoopenssl-OpenSSL_0_9_8y'
p588
atp589
Rp590
sS'md5_block_asm_data_order'
p591
g2
((lp592
S'libcryptoopenssl-OpenSSL_0_9_8t'
p593
aS'libcryptoopenssl-OpenSSL_0_9_8u'
p594
aS'libcryptoopenssl-OpenSSL_0_9_8v'
p595
aS'libcryptoopenssl-OpenSSL_0_9_8w'
p596
aS'libcryptoopenssl-OpenSSL_0_9_8p'
p597
aS'libcryptoopenssl-OpenSSL_0_9_8q'
p598
aS'libcryptoopenssl-OpenSSL_0_9_8r'
p599
aS'libcryptoopenssl-OpenSSL_0_9_8s'
p600
aS'libcryptoopenssl-OpenSSL_0_9_8x'
p601
aS'libcryptoopenssl-OpenSSL_0_9_8y'
p602
aS'libcryptoopenssl-OpenSSL_0_9_8m'
p603
aS'libcryptoopenssl-OpenSSL_0_9_8n'
p604
aS'libcryptoopenssl-OpenSSL_0_9_8o'
p605
atp606
Rp607
sS'bn_add_words'
p608
g2
((lp609
tp610
Rp611
sS'X509_get_pubkey'
p612
g2
((lp613
S'libcryptoopenssl-OpenSSL_0_9_8t'
p614
aS'libcryptoopenssl-OpenSSL_0_9_8u'
p615
aS'libcryptoopenssl-OpenSSL_0_9_8v'
p616
aS'libcryptoopenssl-OpenSSL_0_9_8w'
p617
aS'libcryptoopenssl-OpenSSL_0_9_8p'
p618
aS'libcryptoopenssl-OpenSSL_0_9_8q'
p619
aS'libcryptoopenssl-OpenSSL_0_9_8r'
p620
aS'libcryptoopenssl-OpenSSL_0_9_8s'
p621
aS'libcryptoopenssl-OpenSSL_0_9_8x'
p622
aS'libcryptoopenssl-OpenSSL_0_9_8y'
p623
aS'libcryptoopenssl-OpenSSL_0_9_8e'
p624
aS'libcryptoopenssl-OpenSSL_0_9_8f'
p625
aS'libcryptoopenssl-OpenSSL_0_9_8g'
p626
aS'libcryptoopenssl-OpenSSL_0_9_8l'
p627
aS'libcryptoopenssl-OpenSSL_0_9_8m'
p628
aS'libcryptoopenssl-OpenSSL_0_9_8n'
p629
aS'libcryptoopenssl-OpenSSL_0_9_8o'
p630
aS'libcryptoopenssl-OpenSSL_0_9_8h'
p631
aS'libcryptoopenssl-OpenSSL_0_9_8i'
p632
aS'libcryptoopenssl-OpenSSL_0_9_8j'
p633
aS'libcryptoopenssl-OpenSSL_0_9_8k'
p634
atp635
Rp636
sS'bn_expand2'
p637
g2
((lp638
tp639
Rp640
sS'BN_is_bit_set'
p641
g2
((lp642
tp643
Rp644
sS'bn_add_part_words'
p645
g2
((lp646
tp647
Rp648
sS'aes_init_key'
p649
g2
((lp650
S'libcryptoopenssl-OpenSSL_0_9_8t'
p651
aS'libcryptoopenssl-OpenSSL_0_9_8u'
p652
aS'libcryptoopenssl-OpenSSL_0_9_8v'
p653
aS'libcryptoopenssl-OpenSSL_0_9_8w'
p654
aS'libcryptoopenssl-OpenSSL_0_9_8p'
p655
aS'libcryptoopenssl-OpenSSL_0_9_8q'
p656
aS'libcryptoopenssl-OpenSSL_0_9_8r'
p657
aS'libcryptoopenssl-OpenSSL_0_9_8s'
p658
aS'libcryptoopenssl-OpenSSL_0_9_8x'
p659
aS'libcryptoopenssl-OpenSSL_0_9_8y'
p660
aS'libcryptoopenssl-OpenSSL_0_9_8o'
p661
atp662
Rp663
sS'X509v3_get_ext_by_OBJ'
p664
g2
((lp665
S'libcryptoopenssl-OpenSSL_0_9_8t'
p666
aS'libcryptoopenssl-OpenSSL_0_9_8u'
p667
aS'libcryptoopenssl-OpenSSL_0_9_8v'
p668
aS'libcryptoopenssl-OpenSSL_0_9_8w'
p669
aS'libcryptoopenssl-OpenSSL_0_9_8s'
p670
aS'libcryptoopenssl-OpenSSL_0_9_8x'
p671
aS'libcryptoopenssl-OpenSSL_0_9_8y'
p672
atp673
Rp674
sS'BN_usub'
p675
g2
((lp676
tp677
Rp678
sS'ec_GF2m_simple_cmp'
p679
g2
((lp680
tp681
Rp682
sS'idea_ecb_cipher'
p683
g2
((lp684
S'libcryptoopenssl-OpenSSL_0_9_7m'
p685
aS'libcryptoopenssl-OpenSSL_0_9_7l'
p686
aS'libcryptoopenssl-OpenSSL_0_9_7i'
p687
aS'libcryptoopenssl-OpenSSL_0_9_7h'
p688
aS'libcryptoopenssl-OpenSSL_0_9_7k'
p689
aS'libcryptoopenssl-OpenSSL_0_9_7j'
p690
aS'libcryptoopenssl-OpenSSL_0_9_7e'
p691
aS'libcryptoopenssl-OpenSSL_0_9_7d'
p692
aS'libcryptoopenssl-OpenSSL_0_9_7g'
p693
aS'libcryptoopenssl-OpenSSL_0_9_7f'
p694
aS'libcryptoopenssl-OpenSSL_0_9_7a'
p695
aS'libcryptoopenssl-OpenSSL_0_9_7c'
p696
aS'libcryptoopenssl-OpenSSL_0_9_7b'
p697
aS'libcryptoopenssl-OpenSSL_0_9_8t'
p698
aS'libcryptoopenssl-OpenSSL_0_9_8u'
p699
aS'libcryptoopenssl-OpenSSL_0_9_8v'
p700
aS'libcryptoopenssl-OpenSSL_0_9_8w'
p701
aS'libcryptoopenssl-OpenSSL_0_9_8p'
p702
aS'libcryptoopenssl-OpenSSL_0_9_8q'
p703
aS'libcryptoopenssl-OpenSSL_0_9_8r'
p704
aS'libcryptoopenssl-OpenSSL_0_9_8s'
p705
aS'libcryptoopenssl-OpenSSL_0_9_8x'
p706
aS'libcryptoopenssl-OpenSSL_0_9_8y'
p707
aS'libcryptoopenssl-OpenSSL_0_9_8d'
p708
aS'libcryptoopenssl-OpenSSL_0_9_8e'
p709
aS'libcryptoopenssl-OpenSSL_0_9_8f'
p710
aS'libcryptoopenssl-OpenSSL_0_9_8g'
p711
aS'libcryptoopenssl-OpenSSL_0_9_8a'
p712
aS'libcryptoopenssl-OpenSSL_0_9_8b'
p713
aS'libcryptoopenssl-OpenSSL_0_9_8c'
p714
aS'libcryptoopenssl-OpenSSL_0_9_8l'
p715
aS'libcryptoopenssl-OpenSSL_0_9_8m'
p716
aS'libcryptoopenssl-OpenSSL_0_9_8n'
p717
aS'libcryptoopenssl-OpenSSL_0_9_8o'
p718
aS'libcryptoopenssl-OpenSSL_0_9_8h'
p719
aS'libcryptoopenssl-OpenSSL_0_9_8i'
p720
aS'libcryptoopenssl-OpenSSL_0_9_8j'
p721
aS'libcryptoopenssl-OpenSSL_0_9_8k'
p722
aS'libcryptoopenssl-OpenSSL_0_9_8'
p723
aS'libcryptoopenssl-OpenSSL_0_9_7'
p724
atp725
Rp726
sS'DSA_sign'
p727
g2
((lp728
S'libcryptoopenssl-OpenSSL_1_0_2'
p729
aS'libcryptoopenssl-OpenSSL_1_0_1'
p730
aS'libcryptoopenssl-OpenSSL_1_0_2q'
p731
aS'libcryptoopenssl-OpenSSL_1_0_2f'
p732
aS'libcryptoopenssl-OpenSSL_1_0_2g'
p733
aS'libcryptoopenssl-OpenSSL_1_0_2d'
p734
aS'libcryptoopenssl-OpenSSL_1_0_2e'
p735
aS'libcryptoopenssl-OpenSSL_1_0_2b'
p736
aS'libcryptoopenssl-OpenSSL_1_0_2c'
p737
aS'libcryptoopenssl-OpenSSL_1_0_2a'
p738
aS'libcryptoopenssl-OpenSSL_1_0_2n'
p739
aS'libcryptoopenssl-OpenSSL_1_0_2o'
p740
aS'libcryptoopenssl-OpenSSL_1_0_2l'
p741
aS'libcryptoopenssl-OpenSSL_1_0_2m'
p742
aS'libcryptoopenssl-OpenSSL_1_0_2j'
p743
aS'libcryptoopenssl-OpenSSL_1_0_2k'
p744
aS'libcryptoopenssl-OpenSSL_1_0_2h'
p745
aS'libcryptoopenssl-OpenSSL_1_0_2i'
p746
aS'libcryptoopenssl-OpenSSL_0_9_8t'
p747
aS'libcryptoopenssl-OpenSSL_0_9_8u'
p748
aS'libcryptoopenssl-OpenSSL_0_9_8v'
p749
aS'libcryptoopenssl-OpenSSL_0_9_8w'
p750
aS'libcryptoopenssl-OpenSSL_0_9_8p'
p751
aS'libcryptoopenssl-OpenSSL_0_9_8q'
p752
aS'libcryptoopenssl-OpenSSL_0_9_8r'
p753
aS'libcryptoopenssl-OpenSSL_0_9_8s'
p754
aS'libcryptoopenssl-OpenSSL_0_9_8x'
p755
aS'libcryptoopenssl-OpenSSL_0_9_8y'
p756
aS'libcryptoopenssl-OpenSSL_0_9_8m'
p757
aS'libcryptoopenssl-OpenSSL_0_9_8n'
p758
aS'libcryptoopenssl-OpenSSL_0_9_8o'
p759
aS'libcryptoopenssl-OpenSSL_1_0_1t'
p760
aS'libcryptoopenssl-OpenSSL_1_0_1s'
p761
aS'libcryptoopenssl-OpenSSL_1_0_1r'
p762
aS'libcryptoopenssl-OpenSSL_1_0_1q'
p763
aS'libcryptoopenssl-OpenSSL_1_0_1p'
p764
aS'libcryptoopenssl-OpenSSL_1_0_1o'
p765
aS'libcryptoopenssl-OpenSSL_1_0_1n'
p766
aS'libcryptoopenssl-OpenSSL_1_0_1m'
p767
aS'libcryptoopenssl-OpenSSL_1_0_1l'
p768
aS'libcryptoopenssl-OpenSSL_1_0_1k'
p769
aS'libcryptoopenssl-OpenSSL_1_0_1j'
p770
aS'libcryptoopenssl-OpenSSL_1_0_1i'
p771
aS'libcryptoopenssl-OpenSSL_1_0_1h'
p772
aS'libcryptoopenssl-OpenSSL_1_0_1g'
p773
aS'libcryptoopenssl-OpenSSL_1_0_1f'
p774
aS'libcryptoopenssl-OpenSSL_1_0_1e'
p775
aS'libcryptoopenssl-OpenSSL_1_0_1d'
p776
aS'libcryptoopenssl-OpenSSL_1_0_1c'
p777
aS'libcryptoopenssl-OpenSSL_1_0_1b'
p778
aS'libcryptoopenssl-OpenSSL_1_0_1a'
p779
atp780
Rp781
sS'EVP_PKEY_cmp_parameters'
p782
g2
((lp783
tp784
Rp785
sS'AES_cfb128_encrypt'
p786
g2
((lp787
S'libcryptoopenssl-OpenSSL_0_9_8t'
p788
aS'libcryptoopenssl-OpenSSL_0_9_8u'
p789
aS'libcryptoopenssl-OpenSSL_0_9_8v'
p790
aS'libcryptoopenssl-OpenSSL_0_9_8w'
p791
aS'libcryptoopenssl-OpenSSL_0_9_8p'
p792
aS'libcryptoopenssl-OpenSSL_0_9_8q'
p793
aS'libcryptoopenssl-OpenSSL_0_9_8r'
p794
aS'libcryptoopenssl-OpenSSL_0_9_8s'
p795
aS'libcryptoopenssl-OpenSSL_0_9_8x'
p796
aS'libcryptoopenssl-OpenSSL_0_9_8y'
p797
aS'libcryptoopenssl-OpenSSL_0_9_8m'
p798
aS'libcryptoopenssl-OpenSSL_0_9_8n'
p799
aS'libcryptoopenssl-OpenSSL_0_9_8o'
p800
atp801
Rp802
sS'trtable_free'
p803
g2
((lp804
tp805
Rp806
sS'ec_GFp_simple_points_make_affine'
p807
g2
((lp808
tp809
Rp810
sS'EC_EX_DATA_free_data'
p811
g2
((lp812
tp813
Rp814
sS'str_copy'
p815
g2
((lp816
tp817
Rp818
sS'ssl3_enc'
p819
g2
((lp820
tp821
Rp822
sS'SHA256_Update'
p823
g2
((lp824
S'libcryptoopenssl-OpenSSL_0_9_8t'
p825
aS'libcryptoopenssl-OpenSSL_0_9_8u'
p826
aS'libcryptoopenssl-OpenSSL_0_9_8v'
p827
aS'libcryptoopenssl-OpenSSL_0_9_8w'
p828
aS'libcryptoopenssl-OpenSSL_0_9_8p'
p829
aS'libcryptoopenssl-OpenSSL_0_9_8q'
p830
aS'libcryptoopenssl-OpenSSL_0_9_8r'
p831
aS'libcryptoopenssl-OpenSSL_0_9_8s'
p832
aS'libcryptoopenssl-OpenSSL_0_9_8x'
p833
aS'libcryptoopenssl-OpenSSL_0_9_8y'
p834
aS'libcryptoopenssl-OpenSSL_0_9_8m'
p835
aS'libcryptoopenssl-OpenSSL_0_9_8n'
p836
aS'libcryptoopenssl-OpenSSL_0_9_8o'
p837
atp838
Rp839
sS'ASN1_PRINTABLE_type'
p840
g2
((lp841
S'libcryptoopenssl-OpenSSL_1_0_2'
p842
aS'libcryptoopenssl-OpenSSL_1_0_1'
p843
aS'libcryptoopenssl-OpenSSL_1_0_0'
p844
aS'libcryptoopenssl-OpenSSL_1_0_0t'
p845
aS'libcryptoopenssl-OpenSSL_1_0_0p'
p846
aS'libcryptoopenssl-OpenSSL_1_0_0q'
p847
aS'libcryptoopenssl-OpenSSL_1_0_0r'
p848
aS'libcryptoopenssl-OpenSSL_1_0_0s'
p849
aS'libcryptoopenssl-OpenSSL_1_0_0l'
p850
aS'libcryptoopenssl-OpenSSL_1_0_0m'
p851
aS'libcryptoopenssl-OpenSSL_1_0_0n'
p852
aS'libcryptoopenssl-OpenSSL_1_0_0o'
p853
aS'libcryptoopenssl-OpenSSL_1_0_0h'
p854
aS'libcryptoopenssl-OpenSSL_1_0_0i'
p855
aS'libcryptoopenssl-OpenSSL_1_0_0j'
p856
aS'libcryptoopenssl-OpenSSL_1_0_0k'
p857
aS'libcryptoopenssl-OpenSSL_1_0_0d'
p858
aS'libcryptoopenssl-OpenSSL_1_0_0e'
p859
aS'libcryptoopenssl-OpenSSL_1_0_0f'
p860
aS'libcryptoopenssl-OpenSSL_1_0_0g'
p861
aS'libcryptoopenssl-OpenSSL_1_0_0a'
p862
aS'libcryptoopenssl-OpenSSL_1_0_0b'
p863
aS'libcryptoopenssl-OpenSSL_1_0_0c'
p864
aS'libcryptoopenssl-OpenSSL_0_9_8t'
p865
aS'libcryptoopenssl-OpenSSL_0_9_8u'
p866
aS'libcryptoopenssl-OpenSSL_0_9_8v'
p867
aS'libcryptoopenssl-OpenSSL_0_9_8w'
p868
aS'libcryptoopenssl-OpenSSL_0_9_8p'
p869
aS'libcryptoopenssl-OpenSSL_0_9_8q'
p870
aS'libcryptoopenssl-OpenSSL_0_9_8r'
p871
aS'libcryptoopenssl-OpenSSL_0_9_8s'
p872
aS'libcryptoopenssl-OpenSSL_0_9_8x'
p873
aS'libcryptoopenssl-OpenSSL_0_9_8y'
p874
aS'libcryptoopenssl-OpenSSL_0_9_8d'
p875
aS'libcryptoopenssl-OpenSSL_0_9_8e'
p876
aS'libcryptoopenssl-OpenSSL_0_9_8f'
p877
aS'libcryptoopenssl-OpenSSL_0_9_8g'
p878
aS'libcryptoopenssl-OpenSSL_0_9_8a'
p879
aS'libcryptoopenssl-OpenSSL_0_9_8b'
p880
aS'libcryptoopenssl-OpenSSL_0_9_8c'
p881
aS'libcryptoopenssl-OpenSSL_0_9_8l'
p882
aS'libcryptoopenssl-OpenSSL_0_9_8m'
p883
aS'libcryptoopenssl-OpenSSL_0_9_8n'
p884
aS'libcryptoopenssl-OpenSSL_0_9_8o'
p885
aS'libcryptoopenssl-OpenSSL_0_9_8h'
p886
aS'libcryptoopenssl-OpenSSL_0_9_8i'
p887
aS'libcryptoopenssl-OpenSSL_0_9_8j'
p888
aS'libcryptoopenssl-OpenSSL_0_9_8k'
p889
aS'libcryptoopenssl-OpenSSL_1_0_1t'
p890
aS'libcryptoopenssl-OpenSSL_1_0_1s'
p891
aS'libcryptoopenssl-OpenSSL_1_0_1r'
p892
aS'libcryptoopenssl-OpenSSL_1_0_1q'
p893
aS'libcryptoopenssl-OpenSSL_1_0_1p'
p894
aS'libcryptoopenssl-OpenSSL_1_0_1o'
p895
aS'libcryptoopenssl-OpenSSL_1_0_1n'
p896
aS'libcryptoopenssl-OpenSSL_1_0_1m'
p897
aS'libcryptoopenssl-OpenSSL_1_0_1l'
p898
aS'libcryptoopenssl-OpenSSL_1_0_1k'
p899
aS'libcryptoopenssl-OpenSSL_1_0_1j'
p900
aS'libcryptoopenssl-OpenSSL_1_0_1i'
p901
aS'libcryptoopenssl-OpenSSL_1_0_1h'
p902
aS'libcryptoopenssl-OpenSSL_1_0_1g'
p903
aS'libcryptoopenssl-OpenSSL_1_0_1f'
p904
aS'libcryptoopenssl-OpenSSL_1_0_1e'
p905
aS'libcryptoopenssl-OpenSSL_1_0_1d'
p906
aS'libcryptoopenssl-OpenSSL_1_0_1c'
p907
aS'libcryptoopenssl-OpenSSL_1_0_1b'
p908
aS'libcryptoopenssl-OpenSSL_1_0_1a'
p909
aS'libcryptoopenssl-OpenSSL_1_0_2q'
p910
aS'libcryptoopenssl-OpenSSL_1_0_2f'
p911
aS'libcryptoopenssl-OpenSSL_1_0_2g'
p912
aS'libcryptoopenssl-OpenSSL_1_0_2d'
p913
aS'libcryptoopenssl-OpenSSL_1_0_2e'
p914
aS'libcryptoopenssl-OpenSSL_1_0_2b'
p915
aS'libcryptoopenssl-OpenSSL_1_0_2c'
p916
aS'libcryptoopenssl-OpenSSL_1_0_2a'
p917
aS'libcryptoopenssl-OpenSSL_1_0_2n'
p918
aS'libcryptoopenssl-OpenSSL_1_0_2o'
p919
aS'libcryptoopenssl-OpenSSL_1_0_2l'
p920
aS'libcryptoopenssl-OpenSSL_1_0_2m'
p921
aS'libcryptoopenssl-OpenSSL_1_0_2j'
p922
aS'libcryptoopenssl-OpenSSL_1_0_2k'
p923
aS'libcryptoopenssl-OpenSSL_1_0_2h'
p924
aS'libcryptoopenssl-OpenSSL_1_0_2i'
p925
aS'libcryptoopenssl-OpenSSL_0_9_7m'
p926
aS'libcryptoopenssl-OpenSSL_0_9_7l'
p927
aS'libcryptoopenssl-OpenSSL_0_9_7i'
p928
aS'libcryptoopenssl-OpenSSL_0_9_7h'
p929
aS'libcryptoopenssl-OpenSSL_0_9_7k'
p930
aS'libcryptoopenssl-OpenSSL_0_9_7j'
p931
aS'libcryptoopenssl-OpenSSL_0_9_7e'
p932
aS'libcryptoopenssl-OpenSSL_0_9_7d'
p933
aS'libcryptoopenssl-OpenSSL_0_9_7g'
p934
aS'libcryptoopenssl-OpenSSL_0_9_7f'
p935
aS'libcryptoopenssl-OpenSSL_0_9_7a'
p936
aS'libcryptoopenssl-OpenSSL_0_9_7c'
p937
aS'libcryptoopenssl-OpenSSL_0_9_7b'
p938
aS'libcryptoopenssl-OpenSSL_0_9_8'
p939
aS'libcryptoopenssl-OpenSSL_0_9_7'
p940
atp941
Rp942
sS'X509_NAME_ENTRY_set_data'
p943
g2
((lp944
S'libcryptoopenssl-OpenSSL_1_0_2'
p945
aS'libcryptoopenssl-OpenSSL_1_0_1'
p946
aS'libcryptoopenssl-OpenSSL_1_0_0'
p947
aS'libcryptoopenssl-OpenSSL_1_0_0t'
p948
aS'libcryptoopenssl-OpenSSL_1_0_0p'
p949
aS'libcryptoopenssl-OpenSSL_1_0_0q'
p950
aS'libcryptoopenssl-OpenSSL_1_0_0r'
p951
aS'libcryptoopenssl-OpenSSL_1_0_0s'
p952
aS'libcryptoopenssl-OpenSSL_1_0_0l'
p953
aS'libcryptoopenssl-OpenSSL_1_0_0m'
p954
aS'libcryptoopenssl-OpenSSL_1_0_0n'
p955
aS'libcryptoopenssl-OpenSSL_1_0_0o'
p956
aS'libcryptoopenssl-OpenSSL_1_0_0h'
p957
aS'libcryptoopenssl-OpenSSL_1_0_0i'
p958
aS'libcryptoopenssl-OpenSSL_1_0_0j'
p959
aS'libcryptoopenssl-OpenSSL_1_0_0k'
p960
aS'libcryptoopenssl-OpenSSL_1_0_0d'
p961
aS'libcryptoopenssl-OpenSSL_1_0_0e'
p962
aS'libcryptoopenssl-OpenSSL_1_0_0f'
p963
aS'libcryptoopenssl-OpenSSL_1_0_0g'
p964
aS'libcryptoopenssl-OpenSSL_1_0_0a'
p965
aS'libcryptoopenssl-OpenSSL_1_0_0b'
p966
aS'libcryptoopenssl-OpenSSL_1_0_0c'
p967
aS'libcryptoopenssl-OpenSSL_0_9_8t'
p968
aS'libcryptoopenssl-OpenSSL_0_9_8u'
p969
aS'libcryptoopenssl-OpenSSL_0_9_8v'
p970
aS'libcryptoopenssl-OpenSSL_0_9_8w'
p971
aS'libcryptoopenssl-OpenSSL_0_9_8p'
p972
aS'libcryptoopenssl-OpenSSL_0_9_8q'
p973
aS'libcryptoopenssl-OpenSSL_0_9_8r'
p974
aS'libcryptoopenssl-OpenSSL_0_9_8s'
p975
aS'libcryptoopenssl-OpenSSL_0_9_8x'
p976
aS'libcryptoopenssl-OpenSSL_0_9_8y'
p977
aS'libcryptoopenssl-OpenSSL_0_9_8d'
p978
aS'libcryptoopenssl-OpenSSL_0_9_8e'
p979
aS'libcryptoopenssl-OpenSSL_0_9_8f'
p980
aS'libcryptoopenssl-OpenSSL_0_9_8g'
p981
aS'libcryptoopenssl-OpenSSL_0_9_8a'
p982
aS'libcryptoopenssl-OpenSSL_0_9_8b'
p983
aS'libcryptoopenssl-OpenSSL_0_9_8c'
p984
aS'libcryptoopenssl-OpenSSL_0_9_8l'
p985
aS'libcryptoopenssl-OpenSSL_0_9_8m'
p986
aS'libcryptoopenssl-OpenSSL_0_9_8n'
p987
aS'libcryptoopenssl-OpenSSL_0_9_8o'
p988
aS'libcryptoopenssl-OpenSSL_0_9_8h'
p989
aS'libcryptoopenssl-OpenSSL_0_9_8i'
p990
aS'libcryptoopenssl-OpenSSL_0_9_8j'
p991
aS'libcryptoopenssl-OpenSSL_0_9_8k'
p992
aS'libcryptoopenssl-OpenSSL_1_0_1t'
p993
aS'libcryptoopenssl-OpenSSL_1_0_1s'
p994
aS'libcryptoopenssl-OpenSSL_1_0_1r'
p995
aS'libcryptoopenssl-OpenSSL_1_0_1q'
p996
aS'libcryptoopenssl-OpenSSL_1_0_1p'
p997
aS'libcryptoopenssl-OpenSSL_1_0_1o'
p998
aS'libcryptoopenssl-OpenSSL_1_0_1n'
p999
aS'libcryptoopenssl-OpenSSL_1_0_1m'
p1000
aS'libcryptoopenssl-OpenSSL_1_0_1l'
p1001
aS'libcryptoopenssl-OpenSSL_1_0_1k'
p1002
aS'libcryptoopenssl-OpenSSL_1_0_1j'
p1003
aS'libcryptoopenssl-OpenSSL_1_0_1i'
p1004
aS'libcryptoopenssl-OpenSSL_1_0_1h'
p1005
aS'libcryptoopenssl-OpenSSL_1_0_1g'
p1006
aS'libcryptoopenssl-OpenSSL_1_0_1f'
p1007
aS'libcryptoopenssl-OpenSSL_1_0_1e'
p1008
aS'libcryptoopenssl-OpenSSL_1_0_1d'
p1009
aS'libcryptoopenssl-OpenSSL_1_0_1c'
p1010
aS'libcryptoopenssl-OpenSSL_1_0_1b'
p1011
aS'libcryptoopenssl-OpenSSL_1_0_1a'
p1012
aS'libcryptoopenssl-OpenSSL_1_0_2q'
p1013
aS'libcryptoopenssl-OpenSSL_1_0_2f'
p1014
aS'libcryptoopenssl-OpenSSL_1_0_2g'
p1015
aS'libcryptoopenssl-OpenSSL_1_0_2d'
p1016
aS'libcryptoopenssl-OpenSSL_1_0_2e'
p1017
aS'libcryptoopenssl-OpenSSL_1_0_2b'
p1018
aS'libcryptoopenssl-OpenSSL_1_0_2c'
p1019
aS'libcryptoopenssl-OpenSSL_1_0_2a'
p1020
aS'libcryptoopenssl-OpenSSL_1_0_2n'
p1021
aS'libcryptoopenssl-OpenSSL_1_0_2o'
p1022
aS'libcryptoopenssl-OpenSSL_1_0_2l'
p1023
aS'libcryptoopenssl-OpenSSL_1_0_2m'
p1024
aS'libcryptoopenssl-OpenSSL_1_0_2j'
p1025
aS'libcryptoopenssl-OpenSSL_1_0_2k'
p1026
aS'libcryptoopenssl-OpenSSL_1_0_2h'
p1027
aS'libcryptoopenssl-OpenSSL_1_0_2i'
p1028
aS'libcryptoopenssl-OpenSSL_0_9_7m'
p1029
aS'libcryptoopenssl-OpenSSL_0_9_7l'
p1030
aS'libcryptoopenssl-OpenSSL_0_9_7i'
p1031
aS'libcryptoopenssl-OpenSSL_0_9_7h'
p1032
aS'libcryptoopenssl-OpenSSL_0_9_7k'
p1033
aS'libcryptoopenssl-OpenSSL_0_9_7j'
p1034
aS'libcryptoopenssl-OpenSSL_0_9_7e'
p1035
aS'libcryptoopenssl-OpenSSL_0_9_7d'
p1036
aS'libcryptoopenssl-OpenSSL_0_9_7g'
p1037
aS'libcryptoopenssl-OpenSSL_0_9_7f'
p1038
aS'libcryptoopenssl-OpenSSL_0_9_7a'
p1039
aS'libcryptoopenssl-OpenSSL_0_9_7c'
p1040
aS'libcryptoopenssl-OpenSSL_0_9_7b'
p1041
aS'libcryptoopenssl-OpenSSL_0_9_8'
p1042
aS'libcryptoopenssl-OpenSSL_0_9_7'
p1043
atp1044
Rp1045
sS'sk_value'
p1046
g2
((lp1047
S'libcryptoopenssl-OpenSSL_0_9_8t'
p1048
aS'libcryptoopenssl-OpenSSL_0_9_8u'
p1049
aS'libcryptoopenssl-OpenSSL_0_9_8v'
p1050
aS'libcryptoopenssl-OpenSSL_0_9_8w'
p1051
aS'libcryptoopenssl-OpenSSL_0_9_8s'
p1052
aS'libcryptoopenssl-OpenSSL_0_9_8x'
p1053
aS'libcryptoopenssl-OpenSSL_0_9_8y'
p1054
atp1055
Rp1056
sS'EC_KEY_set_private_key'
p1057
g2
((lp1058
tp1059
Rp1060
sS'asn1_do_adb'
p1061
g2
((lp1062
S'libcryptoopenssl-OpenSSL_1_0_0'
p1063
aS'libcryptoopenssl-OpenSSL_1_0_0d'
p1064
aS'libcryptoopenssl-OpenSSL_1_0_0e'
p1065
aS'libcryptoopenssl-OpenSSL_1_0_0f'
p1066
aS'libcryptoopenssl-OpenSSL_1_0_0a'
p1067
aS'libcryptoopenssl-OpenSSL_1_0_0b'
p1068
aS'libcryptoopenssl-OpenSSL_1_0_0c'
p1069
aS'libcryptoopenssl-OpenSSL_0_9_8t'
p1070
aS'libcryptoopenssl-OpenSSL_0_9_8u'
p1071
aS'libcryptoopenssl-OpenSSL_0_9_8v'
p1072
aS'libcryptoopenssl-OpenSSL_0_9_8w'
p1073
aS'libcryptoopenssl-OpenSSL_0_9_8p'
p1074
aS'libcryptoopenssl-OpenSSL_0_9_8q'
p1075
aS'libcryptoopenssl-OpenSSL_0_9_8r'
p1076
aS'libcryptoopenssl-OpenSSL_0_9_8s'
p1077
aS'libcryptoopenssl-OpenSSL_0_9_8x'
p1078
aS'libcryptoopenssl-OpenSSL_0_9_8y'
p1079
aS'libcryptoopenssl-OpenSSL_0_9_8d'
p1080
aS'libcryptoopenssl-OpenSSL_0_9_8e'
p1081
aS'libcryptoopenssl-OpenSSL_0_9_8f'
p1082
aS'libcryptoopenssl-OpenSSL_0_9_8g'
p1083
aS'libcryptoopenssl-OpenSSL_0_9_8a'
p1084
aS'libcryptoopenssl-OpenSSL_0_9_8b'
p1085
aS'libcryptoopenssl-OpenSSL_0_9_8c'
p1086
aS'libcryptoopenssl-OpenSSL_0_9_8l'
p1087
aS'libcryptoopenssl-OpenSSL_0_9_8m'
p1088
aS'libcryptoopenssl-OpenSSL_0_9_8n'
p1089
aS'libcryptoopenssl-OpenSSL_0_9_8o'
p1090
aS'libcryptoopenssl-OpenSSL_0_9_8h'
p1091
aS'libcryptoopenssl-OpenSSL_0_9_8i'
p1092
aS'libcryptoopenssl-OpenSSL_0_9_8j'
p1093
aS'libcryptoopenssl-OpenSSL_0_9_8k'
p1094
aS'libcryptoopenssl-OpenSSL_0_9_8'
p1095
atp1096
Rp1097
sS'EVP_CIPHER_CTX_cleanup'
p1098
g2
((lp1099
tp1100
Rp1101
sS'X509_LOOKUP_ctrl'
p1102
g2
((lp1103
S'libcryptoopenssl-OpenSSL_1_0_2'
p1104
aS'libcryptoopenssl-OpenSSL_1_0_1'
p1105
aS'libcryptoopenssl-OpenSSL_1_0_0'
p1106
aS'libcryptoopenssl-OpenSSL_1_0_0t'
p1107
aS'libcryptoopenssl-OpenSSL_1_0_0p'
p1108
aS'libcryptoopenssl-OpenSSL_1_0_0q'
p1109
aS'libcryptoopenssl-OpenSSL_1_0_0r'
p1110
aS'libcryptoopenssl-OpenSSL_1_0_0s'
p1111
aS'libcryptoopenssl-OpenSSL_1_0_0l'
p1112
aS'libcryptoopenssl-OpenSSL_1_0_0m'
p1113
aS'libcryptoopenssl-OpenSSL_1_0_0n'
p1114
aS'libcryptoopenssl-OpenSSL_1_0_0o'
p1115
aS'libcryptoopenssl-OpenSSL_1_0_0h'
p1116
aS'libcryptoopenssl-OpenSSL_1_0_0i'
p1117
aS'libcryptoopenssl-OpenSSL_1_0_0j'
p1118
aS'libcryptoopenssl-OpenSSL_1_0_0k'
p1119
aS'libcryptoopenssl-OpenSSL_1_0_0d'
p1120
aS'libcryptoopenssl-OpenSSL_1_0_0e'
p1121
aS'libcryptoopenssl-OpenSSL_1_0_0f'
p1122
aS'libcryptoopenssl-OpenSSL_1_0_0g'
p1123
aS'libcryptoopenssl-OpenSSL_1_0_0a'
p1124
aS'libcryptoopenssl-OpenSSL_1_0_0b'
p1125
aS'libcryptoopenssl-OpenSSL_1_0_0c'
p1126
aS'libcryptoopenssl-OpenSSL_0_9_8t'
p1127
aS'libcryptoopenssl-OpenSSL_0_9_8u'
p1128
aS'libcryptoopenssl-OpenSSL_0_9_8v'
p1129
aS'libcryptoopenssl-OpenSSL_0_9_8w'
p1130
aS'libcryptoopenssl-OpenSSL_0_9_8p'
p1131
aS'libcryptoopenssl-OpenSSL_0_9_8q'
p1132
aS'libcryptoopenssl-OpenSSL_0_9_8r'
p1133
aS'libcryptoopenssl-OpenSSL_0_9_8s'
p1134
aS'libcryptoopenssl-OpenSSL_0_9_8x'
p1135
aS'libcryptoopenssl-OpenSSL_0_9_8y'
p1136
aS'libcryptoopenssl-OpenSSL_0_9_8d'
p1137
aS'libcryptoopenssl-OpenSSL_0_9_8e'
p1138
aS'libcryptoopenssl-OpenSSL_0_9_8f'
p1139
aS'libcryptoopenssl-OpenSSL_0_9_8g'
p1140
aS'libcryptoopenssl-OpenSSL_0_9_8a'
p1141
aS'libcryptoopenssl-OpenSSL_0_9_8b'
p1142
aS'libcryptoopenssl-OpenSSL_0_9_8c'
p1143
aS'libcryptoopenssl-OpenSSL_0_9_8l'
p1144
aS'libcryptoopenssl-OpenSSL_0_9_8m'
p1145
aS'libcryptoopenssl-OpenSSL_0_9_8n'
p1146
aS'libcryptoopenssl-OpenSSL_0_9_8o'
p1147
aS'libcryptoopenssl-OpenSSL_0_9_8h'
p1148
aS'libcryptoopenssl-OpenSSL_0_9_8i'
p1149
aS'libcryptoopenssl-OpenSSL_0_9_8j'
p1150
aS'libcryptoopenssl-OpenSSL_0_9_8k'
p1151
aS'libcryptoopenssl-OpenSSL_1_0_1t'
p1152
aS'libcryptoopenssl-OpenSSL_1_0_1s'
p1153
aS'libcryptoopenssl-OpenSSL_1_0_1r'
p1154
aS'libcryptoopenssl-OpenSSL_1_0_1q'
p1155
aS'libcryptoopenssl-OpenSSL_1_0_1p'
p1156
aS'libcryptoopenssl-OpenSSL_1_0_1o'
p1157
aS'libcryptoopenssl-OpenSSL_1_0_1n'
p1158
aS'libcryptoopenssl-OpenSSL_1_0_1m'
p1159
aS'libcryptoopenssl-OpenSSL_1_0_1l'
p1160
aS'libcryptoopenssl-OpenSSL_1_0_1k'
p1161
aS'libcryptoopenssl-OpenSSL_1_0_1j'
p1162
aS'libcryptoopenssl-OpenSSL_1_0_1i'
p1163
aS'libcryptoopenssl-OpenSSL_1_0_1h'
p1164
aS'libcryptoopenssl-OpenSSL_1_0_1g'
p1165
aS'libcryptoopenssl-OpenSSL_1_0_1f'
p1166
aS'libcryptoopenssl-OpenSSL_1_0_1e'
p1167
aS'libcryptoopenssl-OpenSSL_1_0_1d'
p1168
aS'libcryptoopenssl-OpenSSL_1_0_1c'
p1169
aS'libcryptoopenssl-OpenSSL_1_0_1b'
p1170
aS'libcryptoopenssl-OpenSSL_1_0_1a'
p1171
aS'libcryptoopenssl-OpenSSL_1_1_0'
p1172
aS'libcryptoopenssl-OpenSSL_1_0_2q'
p1173
aS'libcryptoopenssl-OpenSSL_1_0_2f'
p1174
aS'libcryptoopenssl-OpenSSL_1_0_2g'
p1175
aS'libcryptoopenssl-OpenSSL_1_0_2d'
p1176
aS'libcryptoopenssl-OpenSSL_1_0_2e'
p1177
aS'libcryptoopenssl-OpenSSL_1_0_2b'
p1178
aS'libcryptoopenssl-OpenSSL_1_0_2c'
p1179
aS'libcryptoopenssl-OpenSSL_1_0_2a'
p1180
aS'libcryptoopenssl-OpenSSL_1_0_2n'
p1181
aS'libcryptoopenssl-OpenSSL_1_0_2o'
p1182
aS'libcryptoopenssl-OpenSSL_1_0_2l'
p1183
aS'libcryptoopenssl-OpenSSL_1_0_2m'
p1184
aS'libcryptoopenssl-OpenSSL_1_0_2j'
p1185
aS'libcryptoopenssl-OpenSSL_1_0_2k'
p1186
aS'libcryptoopenssl-OpenSSL_1_0_2h'
p1187
aS'libcryptoopenssl-OpenSSL_1_0_2i'
p1188
aS'libcryptoopenssl-OpenSSL_0_9_7m'
p1189
aS'libcryptoopenssl-OpenSSL_0_9_7l'
p1190
aS'libcryptoopenssl-OpenSSL_0_9_7i'
p1191
aS'libcryptoopenssl-OpenSSL_0_9_7h'
p1192
aS'libcryptoopenssl-OpenSSL_0_9_7k'
p1193
aS'libcryptoopenssl-OpenSSL_0_9_7j'
p1194
aS'libcryptoopenssl-OpenSSL_0_9_7e'
p1195
aS'libcryptoopenssl-OpenSSL_0_9_7d'
p1196
aS'libcryptoopenssl-OpenSSL_0_9_7g'
p1197
aS'libcryptoopenssl-OpenSSL_0_9_7f'
p1198
aS'libcryptoopenssl-OpenSSL_0_9_7a'
p1199
aS'libcryptoopenssl-OpenSSL_0_9_7c'
p1200
aS'libcryptoopenssl-OpenSSL_0_9_7b'
p1201
aS'libcryptoopenssl-OpenSSL_1_1_0g'
p1202
aS'libcryptoopenssl-OpenSSL_1_1_0f'
p1203
aS'libcryptoopenssl-OpenSSL_1_1_0e'
p1204
aS'libcryptoopenssl-OpenSSL_1_1_0d'
p1205
aS'libcryptoopenssl-OpenSSL_1_1_0c'
p1206
aS'libcryptoopenssl-OpenSSL_1_1_0b'
p1207
aS'libcryptoopenssl-OpenSSL_1_1_0a'
p1208
aS'libcryptoopenssl-OpenSSL_1_1_0h'
p1209
aS'libcryptoopenssl-OpenSSL_0_9_8'
p1210
aS'libcryptoopenssl-OpenSSL_0_9_7'
p1211
atp1212
Rp1213
sS'trust_1oid'
p1214
g2
((lp1215
S'libcryptoopenssl-OpenSSL_0_9_8t'
p1216
aS'libcryptoopenssl-OpenSSL_0_9_8u'
p1217
aS'libcryptoopenssl-OpenSSL_0_9_8v'
p1218
aS'libcryptoopenssl-OpenSSL_0_9_8w'
p1219
aS'libcryptoopenssl-OpenSSL_0_9_8s'
p1220
aS'libcryptoopenssl-OpenSSL_0_9_8x'
p1221
aS'libcryptoopenssl-OpenSSL_0_9_8y'
p1222
atp1223
Rp1224
sS'BUF_MEM_new'
p1225
g2
((lp1226
tp1227
Rp1228
sS'ASN1_d2i_bio'
p1229
g2
((lp1230
tp1231
Rp1232
sS'SHA_Update'
p1233
g2
((lp1234
S'libcryptoopenssl-OpenSSL_1_0_2e'
p1235
aS'libcryptoopenssl-OpenSSL_1_0_1j'
p1236
aS'libcryptoopenssl-OpenSSL_1_0_0n'
p1237
aS'libcryptoopenssl-OpenSSL_1_0_2q'
p1238
aS'libcryptoopenssl-OpenSSL_1_0_1'
p1239
aS'libcryptoopenssl-OpenSSL_1_0_0'
p1240
aS'libcryptoopenssl-OpenSSL_1_0_0l'
p1241
aS'libcryptoopenssl-OpenSSL_1_0_2b'
p1242
aS'libcryptoopenssl-OpenSSL_1_0_0m'
p1243
aS'libcryptoopenssl-OpenSSL_1_0_0t'
p1244
aS'libcryptoopenssl-OpenSSL_1_0_2i'
p1245
aS'libcryptoopenssl-OpenSSL_1_0_0p'
p1246
aS'libcryptoopenssl-OpenSSL_1_0_0q'
p1247
aS'libcryptoopenssl-OpenSSL_1_0_0r'
p1248
aS'libcryptoopenssl-OpenSSL_1_0_0s'
p1249
aS'libcryptoopenssl-OpenSSL_1_0_2f'
p1250
aS'libcryptoopenssl-OpenSSL_1_0_2g'
p1251
aS'libcryptoopenssl-OpenSSL_1_0_2d'
p1252
aS'libcryptoopenssl-OpenSSL_1_0_0o'
p1253
aS'libcryptoopenssl-OpenSSL_1_0_0h'
p1254
aS'libcryptoopenssl-OpenSSL_1_0_2c'
p1255
aS'libcryptoopenssl-OpenSSL_1_0_0j'
p1256
aS'libcryptoopenssl-OpenSSL_1_0_2a'
p1257
aS'libcryptoopenssl-OpenSSL_1_0_2n'
p1258
aS'libcryptoopenssl-OpenSSL_1_0_2o'
p1259
aS'libcryptoopenssl-OpenSSL_1_0_0f'
p1260
aS'libcryptoopenssl-OpenSSL_1_0_0g'
p1261
aS'libcryptoopenssl-OpenSSL_1_0_2j'
p1262
aS'libcryptoopenssl-OpenSSL_1_0_0a'
p1263
aS'libcryptoopenssl-OpenSSL_1_0_0b'
p1264
aS'libcryptoopenssl-OpenSSL_1_0_0c'
p1265
aS'libcryptoopenssl-OpenSSL_0_9_8t'
p1266
aS'libcryptoopenssl-OpenSSL_0_9_8u'
p1267
aS'libcryptoopenssl-OpenSSL_0_9_8v'
p1268
aS'libcryptoopenssl-OpenSSL_0_9_8w'
p1269
aS'libcryptoopenssl-OpenSSL_0_9_8p'
p1270
aS'libcryptoopenssl-OpenSSL_0_9_8q'
p1271
aS'libcryptoopenssl-OpenSSL_0_9_8r'
p1272
aS'libcryptoopenssl-OpenSSL_0_9_8s'
p1273
aS'libcryptoopenssl-OpenSSL_1_0_0k'
p1274
aS'libcryptoopenssl-OpenSSL_0_9_8x'
p1275
aS'libcryptoopenssl-OpenSSL_0_9_8y'
p1276
aS'libcryptoopenssl-OpenSSL_1_0_0d'
p1277
aS'libcryptoopenssl-OpenSSL_1_0_0e'
p1278
aS'libcryptoopenssl-OpenSSL_0_9_8m'
p1279
aS'libcryptoopenssl-OpenSSL_0_9_8n'
p1280
aS'libcryptoopenssl-OpenSSL_0_9_8o'
p1281
aS'libcryptoopenssl-OpenSSL_1_0_2'
p1282
aS'libcryptoopenssl-OpenSSL_1_0_2l'
p1283
aS'libcryptoopenssl-OpenSSL_1_0_2k'
p1284
aS'libcryptoopenssl-OpenSSL_1_0_0i'
p1285
aS'libcryptoopenssl-OpenSSL_1_0_2m'
p1286
aS'libcryptoopenssl-OpenSSL_1_0_1t'
p1287
aS'libcryptoopenssl-OpenSSL_1_0_1s'
p1288
aS'libcryptoopenssl-OpenSSL_1_0_1r'
p1289
aS'libcryptoopenssl-OpenSSL_1_0_1q'
p1290
aS'libcryptoopenssl-OpenSSL_1_0_1p'
p1291
aS'libcryptoopenssl-OpenSSL_1_0_1o'
p1292
aS'libcryptoopenssl-OpenSSL_1_0_1n'
p1293
aS'libcryptoopenssl-OpenSSL_1_0_1m'
p1294
aS'libcryptoopenssl-OpenSSL_1_0_1l'
p1295
aS'libcryptoopenssl-OpenSSL_1_0_1k'
p1296
aS'libcryptoopenssl-OpenSSL_1_0_2h'
p1297
aS'libcryptoopenssl-OpenSSL_1_0_1i'
p1298
aS'libcryptoopenssl-OpenSSL_1_0_1h'
p1299
aS'libcryptoopenssl-OpenSSL_1_0_1g'
p1300
aS'libcryptoopenssl-OpenSSL_1_0_1f'
p1301
aS'libcryptoopenssl-OpenSSL_1_0_1e'
p1302
aS'libcryptoopenssl-OpenSSL_1_0_1d'
p1303
aS'libcryptoopenssl-OpenSSL_1_0_1c'
p1304
aS'libcryptoopenssl-OpenSSL_1_0_1b'
p1305
aS'libcryptoopenssl-OpenSSL_1_0_1a'
p1306
atp1307
Rp1308
sS'X509_OBJECT_retrieve_match'
p1309
g2
((lp1310
S'libcryptoopenssl-OpenSSL_0_9_8t'
p1311
aS'libcryptoopenssl-OpenSSL_0_9_8u'
p1312
aS'libcryptoopenssl-OpenSSL_0_9_8v'
p1313
aS'libcryptoopenssl-OpenSSL_0_9_8w'
p1314
aS'libcryptoopenssl-OpenSSL_0_9_8s'
p1315
aS'libcryptoopenssl-OpenSSL_0_9_8x'
p1316
aS'libcryptoopenssl-OpenSSL_0_9_8y'
p1317
atp1318
Rp1319
sS'BN_RECP_CTX_free'
p1320
g2
((lp1321
tp1322
Rp1323
sS'OBJ_cmp'
p1324
g2
((lp1325
S'libcryptoopenssl-OpenSSL_0_9_8t'
p1326
aS'libcryptoopenssl-OpenSSL_0_9_8u'
p1327
aS'libcryptoopenssl-OpenSSL_0_9_8v'
p1328
aS'libcryptoopenssl-OpenSSL_0_9_8w'
p1329
aS'libcryptoopenssl-OpenSSL_0_9_8p'
p1330
aS'libcryptoopenssl-OpenSSL_0_9_8q'
p1331
aS'libcryptoopenssl-OpenSSL_0_9_8r'
p1332
aS'libcryptoopenssl-OpenSSL_0_9_8s'
p1333
aS'libcryptoopenssl-OpenSSL_0_9_8x'
p1334
aS'libcryptoopenssl-OpenSSL_0_9_8y'
p1335
atp1336
Rp1337
sS'gf2m_Madd'
p1338
g2
((lp1339
tp1340
Rp1341
sS'BN_gcd'
p1342
g2
((lp1343
tp1344
Rp1345
sS'EC_POINT_set_affine_coordinates_GF2m'
p1346
g2
((lp1347
tp1348
Rp1349
sS'AES_cfbr_encrypt_block'
p1350
g2
((lp1351
S'libcryptoopenssl-OpenSSL_0_9_8t'
p1352
aS'libcryptoopenssl-OpenSSL_0_9_8u'
p1353
aS'libcryptoopenssl-OpenSSL_0_9_8v'
p1354
aS'libcryptoopenssl-OpenSSL_0_9_8w'
p1355
aS'libcryptoopenssl-OpenSSL_0_9_8p'
p1356
aS'libcryptoopenssl-OpenSSL_0_9_8q'
p1357
aS'libcryptoopenssl-OpenSSL_0_9_8r'
p1358
aS'libcryptoopenssl-OpenSSL_0_9_8s'
p1359
aS'libcryptoopenssl-OpenSSL_0_9_8x'
p1360
aS'libcryptoopenssl-OpenSSL_0_9_8y'
p1361
aS'libcryptoopenssl-OpenSSL_0_9_8m'
p1362
aS'libcryptoopenssl-OpenSSL_0_9_8n'
p1363
aS'libcryptoopenssl-OpenSSL_0_9_8o'
p1364
atp1365
Rp1366
sS'EC_KEY_set_public_key'
p1367
g2
((lp1368
tp1369
Rp1370
sS'X509_OBJECT_retrieve_by_subject'
p1371
g2
((lp1372
S'libcryptoopenssl-OpenSSL_0_9_7m'
p1373
aS'libcryptoopenssl-OpenSSL_0_9_7l'
p1374
aS'libcryptoopenssl-OpenSSL_0_9_7i'
p1375
aS'libcryptoopenssl-OpenSSL_0_9_7h'
p1376
aS'libcryptoopenssl-OpenSSL_0_9_7k'
p1377
aS'libcryptoopenssl-OpenSSL_0_9_7j'
p1378
aS'libcryptoopenssl-OpenSSL_0_9_7e'
p1379
aS'libcryptoopenssl-OpenSSL_0_9_7g'
p1380
aS'libcryptoopenssl-OpenSSL_0_9_7f'
p1381
aS'libcryptoopenssl-OpenSSL_0_9_8d'
p1382
aS'libcryptoopenssl-OpenSSL_0_9_8e'
p1383
aS'libcryptoopenssl-OpenSSL_0_9_8f'
p1384
aS'libcryptoopenssl-OpenSSL_0_9_8g'
p1385
aS'libcryptoopenssl-OpenSSL_0_9_8a'
p1386
aS'libcryptoopenssl-OpenSSL_0_9_8b'
p1387
aS'libcryptoopenssl-OpenSSL_0_9_8c'
p1388
aS'libcryptoopenssl-OpenSSL_0_9_8l'
p1389
aS'libcryptoopenssl-OpenSSL_0_9_8m'
p1390
aS'libcryptoopenssl-OpenSSL_0_9_8n'
p1391
aS'libcryptoopenssl-OpenSSL_0_9_8o'
p1392
aS'libcryptoopenssl-OpenSSL_0_9_8h'
p1393
aS'libcryptoopenssl-OpenSSL_0_9_8i'
p1394
aS'libcryptoopenssl-OpenSSL_0_9_8j'
p1395
aS'libcryptoopenssl-OpenSSL_0_9_8k'
p1396
aS'libcryptoopenssl-OpenSSL_0_9_8'
p1397
atp1398
Rp1399
sS'OBJ_NAME_remove'
p1400
g2
((lp1401
tp1402
Rp1403
sS'RC2_decrypt'
p1404
g2
((lp1405
S'libcryptoopenssl-OpenSSL_0_9_7m'
p1406
aS'libcryptoopenssl-OpenSSL_0_9_7l'
p1407
aS'libcryptoopenssl-OpenSSL_0_9_7i'
p1408
aS'libcryptoopenssl-OpenSSL_0_9_7h'
p1409
aS'libcryptoopenssl-OpenSSL_0_9_7k'
p1410
aS'libcryptoopenssl-OpenSSL_0_9_7j'
p1411
aS'libcryptoopenssl-OpenSSL_0_9_7e'
p1412
aS'libcryptoopenssl-OpenSSL_0_9_7d'
p1413
aS'libcryptoopenssl-OpenSSL_0_9_7g'
p1414
aS'libcryptoopenssl-OpenSSL_0_9_7f'
p1415
aS'libcryptoopenssl-OpenSSL_0_9_7a'
p1416
aS'libcryptoopenssl-OpenSSL_0_9_7c'
p1417
aS'libcryptoopenssl-OpenSSL_0_9_7b'
p1418
aS'libcryptoopenssl-OpenSSL_0_9_8t'
p1419
aS'libcryptoopenssl-OpenSSL_0_9_8u'
p1420
aS'libcryptoopenssl-OpenSSL_0_9_8v'
p1421
aS'libcryptoopenssl-OpenSSL_0_9_8w'
p1422
aS'libcryptoopenssl-OpenSSL_0_9_8p'
p1423
aS'libcryptoopenssl-OpenSSL_0_9_8q'
p1424
aS'libcryptoopenssl-OpenSSL_0_9_8r'
p1425
aS'libcryptoopenssl-OpenSSL_0_9_8s'
p1426
aS'libcryptoopenssl-OpenSSL_0_9_8x'
p1427
aS'libcryptoopenssl-OpenSSL_0_9_8y'
p1428
aS'libcryptoopenssl-OpenSSL_0_9_8d'
p1429
aS'libcryptoopenssl-OpenSSL_0_9_8e'
p1430
aS'libcryptoopenssl-OpenSSL_0_9_8f'
p1431
aS'libcryptoopenssl-OpenSSL_0_9_8g'
p1432
aS'libcryptoopenssl-OpenSSL_0_9_8a'
p1433
aS'libcryptoopenssl-OpenSSL_0_9_8b'
p1434
aS'libcryptoopenssl-OpenSSL_0_9_8c'
p1435
aS'libcryptoopenssl-OpenSSL_0_9_8l'
p1436
aS'libcryptoopenssl-OpenSSL_0_9_8m'
p1437
aS'libcryptoopenssl-OpenSSL_0_9_8n'
p1438
aS'libcryptoopenssl-OpenSSL_0_9_8o'
p1439
aS'libcryptoopenssl-OpenSSL_0_9_8h'
p1440
aS'libcryptoopenssl-OpenSSL_0_9_8i'
p1441
aS'libcryptoopenssl-OpenSSL_0_9_8j'
p1442
aS'libcryptoopenssl-OpenSSL_0_9_8k'
p1443
aS'libcryptoopenssl-OpenSSL_0_9_8'
p1444
aS'libcryptoopenssl-OpenSSL_0_9_7'
p1445
atp1446
Rp1447
sS'free_string'
p1448
g2
((lp1449
tp1450
Rp1451
sS'BN_lshift'
p1452
g2
((lp1453
tp1454
Rp1455
sS'ASN1_STRING_cmp'
p1456
g2
((lp1457
S'libcryptoopenssl-OpenSSL_0_9_8t'
p1458
aS'libcryptoopenssl-OpenSSL_0_9_8u'
p1459
aS'libcryptoopenssl-OpenSSL_0_9_8v'
p1460
aS'libcryptoopenssl-OpenSSL_0_9_8w'
p1461
aS'libcryptoopenssl-OpenSSL_0_9_8p'
p1462
aS'libcryptoopenssl-OpenSSL_0_9_8q'
p1463
aS'libcryptoopenssl-OpenSSL_0_9_8r'
p1464
aS'libcryptoopenssl-OpenSSL_0_9_8s'
p1465
aS'libcryptoopenssl-OpenSSL_0_9_8x'
p1466
aS'libcryptoopenssl-OpenSSL_0_9_8y'
p1467
atp1468
Rp1469
sS'tls1_setup_key_block'
p1470
g2
((lp1471
S'libsslopenssl-OpenSSL_0_9_8l'
p1472
aS'libsslopenssl-OpenSSL_0_9_8m'
p1473
aS'libsslopenssl-OpenSSL_0_9_8n'
p1474
aS'libsslopenssl-OpenSSL_0_9_8o'
p1475
aS'libsslopenssl-OpenSSL_0_9_8e'
p1476
aS'libsslopenssl-OpenSSL_0_9_8f'
p1477
aS'libsslopenssl-OpenSSL_0_9_8g'
p1478
aS'libsslopenssl-OpenSSL_0_9_8x'
p1479
aS'libsslopenssl-OpenSSL_0_9_8y'
p1480
aS'libsslopenssl-OpenSSL_0_9_8t'
p1481
aS'libsslopenssl-OpenSSL_0_9_8u'
p1482
aS'libsslopenssl-OpenSSL_0_9_8v'
p1483
aS'libsslopenssl-OpenSSL_0_9_8w'
p1484
aS'libsslopenssl-OpenSSL_0_9_8p'
p1485
aS'libsslopenssl-OpenSSL_0_9_8q'
p1486
aS'libsslopenssl-OpenSSL_0_9_8r'
p1487
aS'libsslopenssl-OpenSSL_0_9_8s'
p1488
atp1489
Rp1490
sS'OBJ_NAME_do_all'
p1491
g2
((lp1492
S'libcryptoopenssl-OpenSSL_0_9_7m'
p1493
aS'libcryptoopenssl-OpenSSL_0_9_7l'
p1494
aS'libcryptoopenssl-OpenSSL_0_9_7i'
p1495
aS'libcryptoopenssl-OpenSSL_0_9_7h'
p1496
aS'libcryptoopenssl-OpenSSL_0_9_7k'
p1497
aS'libcryptoopenssl-OpenSSL_0_9_7j'
p1498
aS'libcryptoopenssl-OpenSSL_0_9_7e'
p1499
aS'libcryptoopenssl-OpenSSL_0_9_7d'
p1500
aS'libcryptoopenssl-OpenSSL_0_9_7g'
p1501
aS'libcryptoopenssl-OpenSSL_0_9_7f'
p1502
aS'libcryptoopenssl-OpenSSL_0_9_7a'
p1503
aS'libcryptoopenssl-OpenSSL_0_9_7c'
p1504
aS'libcryptoopenssl-OpenSSL_0_9_7b'
p1505
aS'libcryptoopenssl-OpenSSL_0_9_8t'
p1506
aS'libcryptoopenssl-OpenSSL_0_9_8u'
p1507
aS'libcryptoopenssl-OpenSSL_0_9_8v'
p1508
aS'libcryptoopenssl-OpenSSL_0_9_8w'
p1509
aS'libcryptoopenssl-OpenSSL_0_9_8p'
p1510
aS'libcryptoopenssl-OpenSSL_0_9_8q'
p1511
aS'libcryptoopenssl-OpenSSL_0_9_8r'
p1512
aS'libcryptoopenssl-OpenSSL_0_9_8s'
p1513
aS'libcryptoopenssl-OpenSSL_0_9_8x'
p1514
aS'libcryptoopenssl-OpenSSL_0_9_8y'
p1515
aS'libcryptoopenssl-OpenSSL_0_9_8d'
p1516
aS'libcryptoopenssl-OpenSSL_0_9_8e'
p1517
aS'libcryptoopenssl-OpenSSL_0_9_8f'
p1518
aS'libcryptoopenssl-OpenSSL_0_9_8g'
p1519
aS'libcryptoopenssl-OpenSSL_0_9_8a'
p1520
aS'libcryptoopenssl-OpenSSL_0_9_8b'
p1521
aS'libcryptoopenssl-OpenSSL_0_9_8c'
p1522
aS'libcryptoopenssl-OpenSSL_0_9_8l'
p1523
aS'libcryptoopenssl-OpenSSL_0_9_8m'
p1524
aS'libcryptoopenssl-OpenSSL_0_9_8n'
p1525
aS'libcryptoopenssl-OpenSSL_0_9_8o'
p1526
aS'libcryptoopenssl-OpenSSL_0_9_8h'
p1527
aS'libcryptoopenssl-OpenSSL_0_9_8i'
p1528
aS'libcryptoopenssl-OpenSSL_0_9_8j'
p1529
aS'libcryptoopenssl-OpenSSL_0_9_8k'
p1530
aS'libcryptoopenssl-OpenSSL_0_9_8'
p1531
aS'libcryptoopenssl-OpenSSL_0_9_7'
p1532
atp1533
Rp1534
sS'write_string'
p1535
g2
((lp1536
S'libcryptoopenssl-OpenSSL_1_0_2'
p1537
aS'libcryptoopenssl-OpenSSL_1_0_1'
p1538
aS'libcryptoopenssl-OpenSSL_1_0_0'
p1539
aS'libcryptoopenssl-OpenSSL_1_0_0t'
p1540
aS'libcryptoopenssl-OpenSSL_1_0_0p'
p1541
aS'libcryptoopenssl-OpenSSL_1_0_0q'
p1542
aS'libcryptoopenssl-OpenSSL_1_0_0r'
p1543
aS'libcryptoopenssl-OpenSSL_1_0_0s'
p1544
aS'libcryptoopenssl-OpenSSL_1_0_0l'
p1545
aS'libcryptoopenssl-OpenSSL_1_0_0m'
p1546
aS'libcryptoopenssl-OpenSSL_1_0_0n'
p1547
aS'libcryptoopenssl-OpenSSL_1_0_0o'
p1548
aS'libcryptoopenssl-OpenSSL_1_0_0h'
p1549
aS'libcryptoopenssl-OpenSSL_1_0_0i'
p1550
aS'libcryptoopenssl-OpenSSL_1_0_0j'
p1551
aS'libcryptoopenssl-OpenSSL_1_0_0k'
p1552
aS'libcryptoopenssl-OpenSSL_1_0_0d'
p1553
aS'libcryptoopenssl-OpenSSL_1_0_0e'
p1554
aS'libcryptoopenssl-OpenSSL_1_0_0f'
p1555
aS'libcryptoopenssl-OpenSSL_1_0_0g'
p1556
aS'libcryptoopenssl-OpenSSL_1_0_0a'
p1557
aS'libcryptoopenssl-OpenSSL_1_0_0b'
p1558
aS'libcryptoopenssl-OpenSSL_1_0_0c'
p1559
aS'libcryptoopenssl-OpenSSL_0_9_8t'
p1560
aS'libcryptoopenssl-OpenSSL_0_9_8u'
p1561
aS'libcryptoopenssl-OpenSSL_0_9_8v'
p1562
aS'libcryptoopenssl-OpenSSL_0_9_8w'
p1563
aS'libcryptoopenssl-OpenSSL_0_9_8p'
p1564
aS'libcryptoopenssl-OpenSSL_0_9_8q'
p1565
aS'libcryptoopenssl-OpenSSL_0_9_8r'
p1566
aS'libcryptoopenssl-OpenSSL_0_9_8s'
p1567
aS'libcryptoopenssl-OpenSSL_0_9_8x'
p1568
aS'libcryptoopenssl-OpenSSL_0_9_8y'
p1569
aS'libcryptoopenssl-OpenSSL_0_9_8d'
p1570
aS'libcryptoopenssl-OpenSSL_0_9_8e'
p1571
aS'libcryptoopenssl-OpenSSL_0_9_8f'
p1572
aS'libcryptoopenssl-OpenSSL_0_9_8g'
p1573
aS'libcryptoopenssl-OpenSSL_0_9_8a'
p1574
aS'libcryptoopenssl-OpenSSL_0_9_8b'
p1575
aS'libcryptoopenssl-OpenSSL_0_9_8c'
p1576
aS'libcryptoopenssl-OpenSSL_0_9_8l'
p1577
aS'libcryptoopenssl-OpenSSL_0_9_8m'
p1578
aS'libcryptoopenssl-OpenSSL_0_9_8n'
p1579
aS'libcryptoopenssl-OpenSSL_0_9_8o'
p1580
aS'libcryptoopenssl-OpenSSL_0_9_8h'
p1581
aS'libcryptoopenssl-OpenSSL_0_9_8i'
p1582
aS'libcryptoopenssl-OpenSSL_0_9_8j'
p1583
aS'libcryptoopenssl-OpenSSL_0_9_8k'
p1584
aS'libcryptoopenssl-OpenSSL_1_0_1t'
p1585
aS'libcryptoopenssl-OpenSSL_1_0_1s'
p1586
aS'libcryptoopenssl-OpenSSL_1_0_1r'
p1587
aS'libcryptoopenssl-OpenSSL_1_0_1q'
p1588
aS'libcryptoopenssl-OpenSSL_1_0_1p'
p1589
aS'libcryptoopenssl-OpenSSL_1_0_1o'
p1590
aS'libcryptoopenssl-OpenSSL_1_0_1n'
p1591
aS'libcryptoopenssl-OpenSSL_1_0_1m'
p1592
aS'libcryptoopenssl-OpenSSL_1_0_1l'
p1593
aS'libcryptoopenssl-OpenSSL_1_0_1k'
p1594
aS'libcryptoopenssl-OpenSSL_1_0_1j'
p1595
aS'libcryptoopenssl-OpenSSL_1_0_1i'
p1596
aS'libcryptoopenssl-OpenSSL_1_0_1h'
p1597
aS'libcryptoopenssl-OpenSSL_1_0_1g'
p1598
aS'libcryptoopenssl-OpenSSL_1_0_1f'
p1599
aS'libcryptoopenssl-OpenSSL_1_0_1e'
p1600
aS'libcryptoopenssl-OpenSSL_1_0_1d'
p1601
aS'libcryptoopenssl-OpenSSL_1_0_1c'
p1602
aS'libcryptoopenssl-OpenSSL_1_0_1b'
p1603
aS'libcryptoopenssl-OpenSSL_1_0_1a'
p1604
aS'libcryptoopenssl-OpenSSL_1_1_0'
p1605
aS'libcryptoopenssl-OpenSSL_1_0_2q'
p1606
aS'libcryptoopenssl-OpenSSL_1_0_2f'
p1607
aS'libcryptoopenssl-OpenSSL_1_0_2g'
p1608
aS'libcryptoopenssl-OpenSSL_1_0_2d'
p1609
aS'libcryptoopenssl-OpenSSL_1_0_2e'
p1610
aS'libcryptoopenssl-OpenSSL_1_0_2b'
p1611
aS'libcryptoopenssl-OpenSSL_1_0_2c'
p1612
aS'libcryptoopenssl-OpenSSL_1_0_2a'
p1613
aS'libcryptoopenssl-OpenSSL_1_0_2n'
p1614
aS'libcryptoopenssl-OpenSSL_1_0_2o'
p1615
aS'libcryptoopenssl-OpenSSL_1_0_2l'
p1616
aS'libcryptoopenssl-OpenSSL_1_0_2m'
p1617
aS'libcryptoopenssl-OpenSSL_1_0_2j'
p1618
aS'libcryptoopenssl-OpenSSL_1_0_2k'
p1619
aS'libcryptoopenssl-OpenSSL_1_0_2h'
p1620
aS'libcryptoopenssl-OpenSSL_1_0_2i'
p1621
aS'libcryptoopenssl-OpenSSL_0_9_7m'
p1622
aS'libcryptoopenssl-OpenSSL_0_9_7l'
p1623
aS'libcryptoopenssl-OpenSSL_0_9_7i'
p1624
aS'libcryptoopenssl-OpenSSL_0_9_7h'
p1625
aS'libcryptoopenssl-OpenSSL_0_9_7k'
p1626
aS'libcryptoopenssl-OpenSSL_0_9_7j'
p1627
aS'libcryptoopenssl-OpenSSL_0_9_7e'
p1628
aS'libcryptoopenssl-OpenSSL_0_9_7d'
p1629
aS'libcryptoopenssl-OpenSSL_0_9_7g'
p1630
aS'libcryptoopenssl-OpenSSL_0_9_7f'
p1631
aS'libcryptoopenssl-OpenSSL_0_9_7a'
p1632
aS'libcryptoopenssl-OpenSSL_0_9_7c'
p1633
aS'libcryptoopenssl-OpenSSL_0_9_7b'
p1634
aS'libcryptoopenssl-OpenSSL_0_9_8'
p1635
aS'libcryptoopenssl-OpenSSL_0_9_7'
p1636
atp1637
Rp1638
sS'ASN1_INTEGER_cmp'
p1639
g2
((lp1640
S'libcryptoopenssl-OpenSSL_0_9_8t'
p1641
aS'libcryptoopenssl-OpenSSL_0_9_8u'
p1642
aS'libcryptoopenssl-OpenSSL_0_9_8v'
p1643
aS'libcryptoopenssl-OpenSSL_0_9_8w'
p1644
aS'libcryptoopenssl-OpenSSL_0_9_8p'
p1645
aS'libcryptoopenssl-OpenSSL_0_9_8q'
p1646
aS'libcryptoopenssl-OpenSSL_0_9_8r'
p1647
aS'libcryptoopenssl-OpenSSL_0_9_8s'
p1648
aS'libcryptoopenssl-OpenSSL_0_9_8x'
p1649
aS'libcryptoopenssl-OpenSSL_0_9_8y'
p1650
atp1651
Rp1652
sS'X509_check_issued'
p1653
g2
((lp1654
S'libcryptoopenssl-OpenSSL_0_9_8t'
p1655
aS'libcryptoopenssl-OpenSSL_0_9_8u'
p1656
aS'libcryptoopenssl-OpenSSL_0_9_8v'
p1657
aS'libcryptoopenssl-OpenSSL_0_9_8w'
p1658
aS'libcryptoopenssl-OpenSSL_0_9_8s'
p1659
aS'libcryptoopenssl-OpenSSL_0_9_8x'
p1660
aS'libcryptoopenssl-OpenSSL_0_9_8y'
p1661
atp1662
Rp1663
sS'obj_name_hash'
p1664
g2
((lp1665
S'libcryptoopenssl-OpenSSL_0_9_8t'
p1666
aS'libcryptoopenssl-OpenSSL_0_9_8u'
p1667
aS'libcryptoopenssl-OpenSSL_0_9_8v'
p1668
aS'libcryptoopenssl-OpenSSL_0_9_8w'
p1669
aS'libcryptoopenssl-OpenSSL_0_9_8s'
p1670
aS'libcryptoopenssl-OpenSSL_0_9_8x'
p1671
aS'libcryptoopenssl-OpenSSL_0_9_8y'
p1672
atp1673
Rp1674
sS'cast5_ecb_cipher'
p1675
g2
((lp1676
S'libcryptoopenssl-OpenSSL_0_9_7m'
p1677
aS'libcryptoopenssl-OpenSSL_0_9_7l'
p1678
aS'libcryptoopenssl-OpenSSL_0_9_7i'
p1679
aS'libcryptoopenssl-OpenSSL_0_9_7h'
p1680
aS'libcryptoopenssl-OpenSSL_0_9_7k'
p1681
aS'libcryptoopenssl-OpenSSL_0_9_7j'
p1682
aS'libcryptoopenssl-OpenSSL_0_9_7e'
p1683
aS'libcryptoopenssl-OpenSSL_0_9_7d'
p1684
aS'libcryptoopenssl-OpenSSL_0_9_7g'
p1685
aS'libcryptoopenssl-OpenSSL_0_9_7f'
p1686
aS'libcryptoopenssl-OpenSSL_0_9_7a'
p1687
aS'libcryptoopenssl-OpenSSL_0_9_7c'
p1688
aS'libcryptoopenssl-OpenSSL_0_9_7b'
p1689
aS'libcryptoopenssl-OpenSSL_0_9_8t'
p1690
aS'libcryptoopenssl-OpenSSL_0_9_8u'
p1691
aS'libcryptoopenssl-OpenSSL_0_9_8v'
p1692
aS'libcryptoopenssl-OpenSSL_0_9_8w'
p1693
aS'libcryptoopenssl-OpenSSL_0_9_8p'
p1694
aS'libcryptoopenssl-OpenSSL_0_9_8q'
p1695
aS'libcryptoopenssl-OpenSSL_0_9_8r'
p1696
aS'libcryptoopenssl-OpenSSL_0_9_8s'
p1697
aS'libcryptoopenssl-OpenSSL_0_9_8x'
p1698
aS'libcryptoopenssl-OpenSSL_0_9_8y'
p1699
aS'libcryptoopenssl-OpenSSL_0_9_8d'
p1700
aS'libcryptoopenssl-OpenSSL_0_9_8e'
p1701
aS'libcryptoopenssl-OpenSSL_0_9_8f'
p1702
aS'libcryptoopenssl-OpenSSL_0_9_8g'
p1703
aS'libcryptoopenssl-OpenSSL_0_9_8a'
p1704
aS'libcryptoopenssl-OpenSSL_0_9_8b'
p1705
aS'libcryptoopenssl-OpenSSL_0_9_8c'
p1706
aS'libcryptoopenssl-OpenSSL_0_9_8l'
p1707
aS'libcryptoopenssl-OpenSSL_0_9_8m'
p1708
aS'libcryptoopenssl-OpenSSL_0_9_8n'
p1709
aS'libcryptoopenssl-OpenSSL_0_9_8o'
p1710
aS'libcryptoopenssl-OpenSSL_0_9_8h'
p1711
aS'libcryptoopenssl-OpenSSL_0_9_8i'
p1712
aS'libcryptoopenssl-OpenSSL_0_9_8j'
p1713
aS'libcryptoopenssl-OpenSSL_0_9_8k'
p1714
aS'libcryptoopenssl-OpenSSL_0_9_8'
p1715
aS'libcryptoopenssl-OpenSSL_0_9_7'
p1716
atp1717
Rp1718
sS'EVP_PKEY_size'
p1719
g2
((lp1720
S'libcryptoopenssl-OpenSSL_0_9_8t'
p1721
aS'libcryptoopenssl-OpenSSL_0_9_8u'
p1722
aS'libcryptoopenssl-OpenSSL_0_9_8v'
p1723
aS'libcryptoopenssl-OpenSSL_0_9_8w'
p1724
aS'libcryptoopenssl-OpenSSL_0_9_8p'
p1725
aS'libcryptoopenssl-OpenSSL_0_9_8q'
p1726
aS'libcryptoopenssl-OpenSSL_0_9_8r'
p1727
aS'libcryptoopenssl-OpenSSL_0_9_8s'
p1728
aS'libcryptoopenssl-OpenSSL_0_9_8x'
p1729
aS'libcryptoopenssl-OpenSSL_0_9_8y'
p1730
aS'libcryptoopenssl-OpenSSL_0_9_8e'
p1731
aS'libcryptoopenssl-OpenSSL_0_9_8f'
p1732
aS'libcryptoopenssl-OpenSSL_0_9_8g'
p1733
aS'libcryptoopenssl-OpenSSL_0_9_8l'
p1734
aS'libcryptoopenssl-OpenSSL_0_9_8m'
p1735
aS'libcryptoopenssl-OpenSSL_0_9_8n'
p1736
aS'libcryptoopenssl-OpenSSL_0_9_8o'
p1737
aS'libcryptoopenssl-OpenSSL_0_9_8h'
p1738
aS'libcryptoopenssl-OpenSSL_0_9_8i'
p1739
aS'libcryptoopenssl-OpenSSL_0_9_8j'
p1740
aS'libcryptoopenssl-OpenSSL_0_9_8k'
p1741
atp1742
Rp1743
sS'gf2m_Mdouble'
p1744
g2
((lp1745
tp1746
Rp1747
sS'RSA_eay_finish'
p1748
g2
((lp1749
tp1750
Rp1751
sS'OCSP_single_get0_status'
p1752
g2
((lp1753
S'libcryptoopenssl-OpenSSL_1_0_2e'
p1754
aS'libcryptoopenssl-OpenSSL_1_0_1j'
p1755
aS'libcryptoopenssl-OpenSSL_1_0_0e'
p1756
aS'libcryptoopenssl-OpenSSL_1_0_0n'
p1757
aS'libcryptoopenssl-OpenSSL_1_0_2q'
p1758
aS'libcryptoopenssl-OpenSSL_1_0_1'
p1759
aS'libcryptoopenssl-OpenSSL_1_0_0'
p1760
aS'libcryptoopenssl-OpenSSL_1_0_0l'
p1761
aS'libcryptoopenssl-OpenSSL_1_0_2b'
p1762
aS'libcryptoopenssl-OpenSSL_1_0_0m'
p1763
aS'libcryptoopenssl-OpenSSL_0_9_8e'
p1764
aS'libcryptoopenssl-OpenSSL_1_0_0t'
p1765
aS'libcryptoopenssl-OpenSSL_1_0_2i'
p1766
aS'libcryptoopenssl-OpenSSL_1_0_0p'
p1767
aS'libcryptoopenssl-OpenSSL_1_0_0q'
p1768
aS'libcryptoopenssl-OpenSSL_1_0_0r'
p1769
aS'libcryptoopenssl-OpenSSL_1_0_0s'
p1770
aS'libcryptoopenssl-OpenSSL_1_0_2f'
p1771
aS'libcryptoopenssl-OpenSSL_1_0_2g'
p1772
aS'libcryptoopenssl-OpenSSL_1_0_2d'
p1773
aS'libcryptoopenssl-OpenSSL_1_0_0o'
p1774
aS'libcryptoopenssl-OpenSSL_1_0_0h'
p1775
aS'libcryptoopenssl-OpenSSL_1_0_2c'
p1776
aS'libcryptoopenssl-OpenSSL_1_0_0j'
p1777
aS'libcryptoopenssl-OpenSSL_1_0_2a'
p1778
aS'libcryptoopenssl-OpenSSL_1_0_2n'
p1779
aS'libcryptoopenssl-OpenSSL_1_0_2o'
p1780
aS'libcryptoopenssl-OpenSSL_1_0_0f'
p1781
aS'libcryptoopenssl-OpenSSL_1_0_0g'
p1782
aS'libcryptoopenssl-OpenSSL_1_0_2j'
p1783
aS'libcryptoopenssl-OpenSSL_1_0_0a'
p1784
aS'libcryptoopenssl-OpenSSL_1_0_0b'
p1785
aS'libcryptoopenssl-OpenSSL_1_0_0c'
p1786
aS'libcryptoopenssl-OpenSSL_0_9_8t'
p1787
aS'libcryptoopenssl-OpenSSL_0_9_8u'
p1788
aS'libcryptoopenssl-OpenSSL_0_9_8v'
p1789
aS'libcryptoopenssl-OpenSSL_0_9_8w'
p1790
aS'libcryptoopenssl-OpenSSL_0_9_8p'
p1791
aS'libcryptoopenssl-OpenSSL_0_9_8q'
p1792
aS'libcryptoopenssl-OpenSSL_0_9_8r'
p1793
aS'libcryptoopenssl-OpenSSL_0_9_8s'
p1794
aS'libcryptoopenssl-OpenSSL_1_0_0k'
p1795
aS'libcryptoopenssl-OpenSSL_0_9_8x'
p1796
aS'libcryptoopenssl-OpenSSL_0_9_8y'
p1797
aS'libcryptoopenssl-OpenSSL_0_9_8d'
p1798
aS'libcryptoopenssl-OpenSSL_1_0_0d'
p1799
aS'libcryptoopenssl-OpenSSL_0_9_8f'
p1800
aS'libcryptoopenssl-OpenSSL_0_9_8g'
p1801
aS'libcryptoopenssl-OpenSSL_1_0_2l'
p1802
aS'libcryptoopenssl-OpenSSL_0_9_8a'
p1803
aS'libcryptoopenssl-OpenSSL_0_9_8b'
p1804
aS'libcryptoopenssl-OpenSSL_0_9_8c'
p1805
aS'libcryptoopenssl-OpenSSL_0_9_8l'
p1806
aS'libcryptoopenssl-OpenSSL_0_9_8m'
p1807
aS'libcryptoopenssl-OpenSSL_0_9_8n'
p1808
aS'libcryptoopenssl-OpenSSL_0_9_8o'
p1809
aS'libcryptoopenssl-OpenSSL_0_9_8h'
p1810
aS'libcryptoopenssl-OpenSSL_0_9_8i'
p1811
aS'libcryptoopenssl-OpenSSL_0_9_8j'
p1812
aS'libcryptoopenssl-OpenSSL_0_9_8k'
p1813
aS'libcryptoopenssl-OpenSSL_1_0_2k'
p1814
aS'libcryptoopenssl-OpenSSL_1_0_0i'
p1815
aS'libcryptoopenssl-OpenSSL_1_0_2m'
p1816
aS'libcryptoopenssl-OpenSSL_1_0_2'
p1817
aS'libcryptoopenssl-OpenSSL_0_9_8'
p1818
aS'libcryptoopenssl-OpenSSL_1_0_1t'
p1819
aS'libcryptoopenssl-OpenSSL_1_0_1s'
p1820
aS'libcryptoopenssl-OpenSSL_1_0_1r'
p1821
aS'libcryptoopenssl-OpenSSL_1_0_1q'
p1822
aS'libcryptoopenssl-OpenSSL_1_0_1p'
p1823
aS'libcryptoopenssl-OpenSSL_1_0_1o'
p1824
aS'libcryptoopenssl-OpenSSL_1_0_1n'
p1825
aS'libcryptoopenssl-OpenSSL_1_0_1m'
p1826
aS'libcryptoopenssl-OpenSSL_1_0_1l'
p1827
aS'libcryptoopenssl-OpenSSL_1_0_1k'
p1828
aS'libcryptoopenssl-OpenSSL_1_0_2h'
p1829
aS'libcryptoopenssl-OpenSSL_1_0_1i'
p1830
aS'libcryptoopenssl-OpenSSL_1_0_1h'
p1831
aS'libcryptoopenssl-OpenSSL_1_0_1g'
p1832
aS'libcryptoopenssl-OpenSSL_1_0_1f'
p1833
aS'libcryptoopenssl-OpenSSL_1_0_1e'
p1834
aS'libcryptoopenssl-OpenSSL_1_0_1d'
p1835
aS'libcryptoopenssl-OpenSSL_1_0_1c'
p1836
aS'libcryptoopenssl-OpenSSL_1_0_1b'
p1837
aS'libcryptoopenssl-OpenSSL_1_0_1a'
p1838
atp1839
Rp1840
sS'ssleay_rand_pseudo_bytes'
p1841
g2
((lp1842
S'libcryptoopenssl-OpenSSL_0_9_7m'
p1843
aS'libcryptoopenssl-OpenSSL_0_9_7l'
p1844
aS'libcryptoopenssl-OpenSSL_0_9_7i'
p1845
aS'libcryptoopenssl-OpenSSL_0_9_7h'
p1846
aS'libcryptoopenssl-OpenSSL_0_9_7k'
p1847
aS'libcryptoopenssl-OpenSSL_0_9_7j'
p1848
aS'libcryptoopenssl-OpenSSL_0_9_7e'
p1849
aS'libcryptoopenssl-OpenSSL_0_9_7d'
p1850
aS'libcryptoopenssl-OpenSSL_0_9_7g'
p1851
aS'libcryptoopenssl-OpenSSL_0_9_7f'
p1852
aS'libcryptoopenssl-OpenSSL_0_9_7a'
p1853
aS'libcryptoopenssl-OpenSSL_0_9_7c'
p1854
aS'libcryptoopenssl-OpenSSL_0_9_7b'
p1855
aS'libcryptoopenssl-OpenSSL_1_0_0t'
p1856
aS'libcryptoopenssl-OpenSSL_1_0_0p'
p1857
aS'libcryptoopenssl-OpenSSL_1_0_0q'
p1858
aS'libcryptoopenssl-OpenSSL_1_0_0r'
p1859
aS'libcryptoopenssl-OpenSSL_1_0_0s'
p1860
aS'libcryptoopenssl-OpenSSL_1_0_0l'
p1861
aS'libcryptoopenssl-OpenSSL_1_0_0m'
p1862
aS'libcryptoopenssl-OpenSSL_1_0_0n'
p1863
aS'libcryptoopenssl-OpenSSL_1_0_0o'
p1864
aS'libcryptoopenssl-OpenSSL_1_0_0h'
p1865
aS'libcryptoopenssl-OpenSSL_1_0_0i'
p1866
aS'libcryptoopenssl-OpenSSL_1_0_0j'
p1867
aS'libcryptoopenssl-OpenSSL_1_0_0k'
p1868
aS'libcryptoopenssl-OpenSSL_1_0_0d'
p1869
aS'libcryptoopenssl-OpenSSL_1_0_0e'
p1870
aS'libcryptoopenssl-OpenSSL_1_0_0f'
p1871
aS'libcryptoopenssl-OpenSSL_1_0_0g'
p1872
aS'libcryptoopenssl-OpenSSL_1_0_0a'
p1873
aS'libcryptoopenssl-OpenSSL_1_0_0b'
p1874
aS'libcryptoopenssl-OpenSSL_1_0_0c'
p1875
aS'libcryptoopenssl-OpenSSL_0_9_8t'
p1876
aS'libcryptoopenssl-OpenSSL_0_9_8u'
p1877
aS'libcryptoopenssl-OpenSSL_0_9_8v'
p1878
aS'libcryptoopenssl-OpenSSL_0_9_8w'
p1879
aS'libcryptoopenssl-OpenSSL_0_9_8p'
p1880
aS'libcryptoopenssl-OpenSSL_0_9_8q'
p1881
aS'libcryptoopenssl-OpenSSL_0_9_8r'
p1882
aS'libcryptoopenssl-OpenSSL_0_9_8s'
p1883
aS'libcryptoopenssl-OpenSSL_0_9_8x'
p1884
aS'libcryptoopenssl-OpenSSL_0_9_8y'
p1885
aS'libcryptoopenssl-OpenSSL_0_9_8d'
p1886
aS'libcryptoopenssl-OpenSSL_0_9_8e'
p1887
aS'libcryptoopenssl-OpenSSL_0_9_8f'
p1888
aS'libcryptoopenssl-OpenSSL_0_9_8g'
p1889
aS'libcryptoopenssl-OpenSSL_0_9_8a'
p1890
aS'libcryptoopenssl-OpenSSL_0_9_8b'
p1891
aS'libcryptoopenssl-OpenSSL_0_9_8c'
p1892
aS'libcryptoopenssl-OpenSSL_0_9_8l'
p1893
aS'libcryptoopenssl-OpenSSL_0_9_8m'
p1894
aS'libcryptoopenssl-OpenSSL_0_9_8n'
p1895
aS'libcryptoopenssl-OpenSSL_0_9_8o'
p1896
aS'libcryptoopenssl-OpenSSL_0_9_8h'
p1897
aS'libcryptoopenssl-OpenSSL_0_9_8i'
p1898
aS'libcryptoopenssl-OpenSSL_0_9_8j'
p1899
aS'libcryptoopenssl-OpenSSL_0_9_8k'
p1900
aS'libcryptoopenssl-OpenSSL_1_0_0'
p1901
aS'libcryptoopenssl-OpenSSL_0_9_8'
p1902
aS'libcryptoopenssl-OpenSSL_0_9_7'
p1903
atp1904
Rp1905
sS'ec_GF2m_simple_is_on_curve'
p1906
g2
((lp1907
tp1908
Rp1909
sS'X509_get0_pubkey_bitstr'
p1910
g2
((lp1911
S'libcryptoopenssl-OpenSSL_1_0_2e'
p1912
aS'libcryptoopenssl-OpenSSL_1_0_1j'
p1913
aS'libcryptoopenssl-OpenSSL_1_0_0e'
p1914
aS'libcryptoopenssl-OpenSSL_1_0_0n'
p1915
aS'libcryptoopenssl-OpenSSL_1_0_2q'
p1916
aS'libcryptoopenssl-OpenSSL_1_0_1'
p1917
aS'libcryptoopenssl-OpenSSL_1_0_0'
p1918
aS'libcryptoopenssl-OpenSSL_1_0_0l'
p1919
aS'libcryptoopenssl-OpenSSL_1_0_2b'
p1920
aS'libcryptoopenssl-OpenSSL_1_0_0m'
p1921
aS'libcryptoopenssl-OpenSSL_0_9_8e'
p1922
aS'libcryptoopenssl-OpenSSL_1_0_0t'
p1923
aS'libcryptoopenssl-OpenSSL_1_0_2i'
p1924
aS'libcryptoopenssl-OpenSSL_1_0_0p'
p1925
aS'libcryptoopenssl-OpenSSL_1_0_0q'
p1926
aS'libcryptoopenssl-OpenSSL_1_0_0r'
p1927
aS'libcryptoopenssl-OpenSSL_1_0_0s'
p1928
aS'libcryptoopenssl-OpenSSL_1_0_2f'
p1929
aS'libcryptoopenssl-OpenSSL_1_0_2g'
p1930
aS'libcryptoopenssl-OpenSSL_1_0_2d'
p1931
aS'libcryptoopenssl-OpenSSL_1_0_0o'
p1932
aS'libcryptoopenssl-OpenSSL_1_0_0h'
p1933
aS'libcryptoopenssl-OpenSSL_1_0_2c'
p1934
aS'libcryptoopenssl-OpenSSL_1_0_0j'
p1935
aS'libcryptoopenssl-OpenSSL_1_0_2a'
p1936
aS'libcryptoopenssl-OpenSSL_1_0_2n'
p1937
aS'libcryptoopenssl-OpenSSL_1_0_2o'
p1938
aS'libcryptoopenssl-OpenSSL_1_0_0f'
p1939
aS'libcryptoopenssl-OpenSSL_1_0_0g'
p1940
aS'libcryptoopenssl-OpenSSL_1_0_2j'
p1941
aS'libcryptoopenssl-OpenSSL_1_0_0a'
p1942
aS'libcryptoopenssl-OpenSSL_1_0_0b'
p1943
aS'libcryptoopenssl-OpenSSL_1_0_0c'
p1944
aS'libcryptoopenssl-OpenSSL_0_9_8t'
p1945
aS'libcryptoopenssl-OpenSSL_0_9_8u'
p1946
aS'libcryptoopenssl-OpenSSL_0_9_8v'
p1947
aS'libcryptoopenssl-OpenSSL_0_9_8w'
p1948
aS'libcryptoopenssl-OpenSSL_0_9_8p'
p1949
aS'libcryptoopenssl-OpenSSL_0_9_8q'
p1950
aS'libcryptoopenssl-OpenSSL_0_9_8r'
p1951
aS'libcryptoopenssl-OpenSSL_0_9_8s'
p1952
aS'libcryptoopenssl-OpenSSL_1_0_0k'
p1953
aS'libcryptoopenssl-OpenSSL_0_9_8x'
p1954
aS'libcryptoopenssl-OpenSSL_0_9_8y'
p1955
aS'libcryptoopenssl-OpenSSL_0_9_8d'
p1956
aS'libcryptoopenssl-OpenSSL_1_0_0d'
p1957
aS'libcryptoopenssl-OpenSSL_0_9_8f'
p1958
aS'libcryptoopenssl-OpenSSL_0_9_8g'
p1959
aS'libcryptoopenssl-OpenSSL_1_0_2l'
p1960
aS'libcryptoopenssl-OpenSSL_0_9_8a'
p1961
aS'libcryptoopenssl-OpenSSL_0_9_8b'
p1962
aS'libcryptoopenssl-OpenSSL_0_9_8c'
p1963
aS'libcryptoopenssl-OpenSSL_0_9_8l'
p1964
aS'libcryptoopenssl-OpenSSL_0_9_8m'
p1965
aS'libcryptoopenssl-OpenSSL_0_9_8n'
p1966
aS'libcryptoopenssl-OpenSSL_0_9_8o'
p1967
aS'libcryptoopenssl-OpenSSL_0_9_8h'
p1968
aS'libcryptoopenssl-OpenSSL_0_9_8i'
p1969
aS'libcryptoopenssl-OpenSSL_0_9_8j'
p1970
aS'libcryptoopenssl-OpenSSL_0_9_8k'
p1971
aS'libcryptoopenssl-OpenSSL_1_0_2k'
p1972
aS'libcryptoopenssl-OpenSSL_1_0_0i'
p1973
aS'libcryptoopenssl-OpenSSL_1_0_2m'
p1974
aS'libcryptoopenssl-OpenSSL_1_0_2'
p1975
aS'libcryptoopenssl-OpenSSL_0_9_8'
p1976
aS'libcryptoopenssl-OpenSSL_1_0_1t'
p1977
aS'libcryptoopenssl-OpenSSL_1_0_1s'
p1978
aS'libcryptoopenssl-OpenSSL_1_0_1r'
p1979
aS'libcryptoopenssl-OpenSSL_1_0_1q'
p1980
aS'libcryptoopenssl-OpenSSL_1_0_1p'
p1981
aS'libcryptoopenssl-OpenSSL_1_0_1o'
p1982
aS'libcryptoopenssl-OpenSSL_1_0_1n'
p1983
aS'libcryptoopenssl-OpenSSL_1_0_1m'
p1984
aS'libcryptoopenssl-OpenSSL_1_0_1l'
p1985
aS'libcryptoopenssl-OpenSSL_1_0_1k'
p1986
aS'libcryptoopenssl-OpenSSL_1_0_2h'
p1987
aS'libcryptoopenssl-OpenSSL_1_0_1i'
p1988
aS'libcryptoopenssl-OpenSSL_1_0_1h'
p1989
aS'libcryptoopenssl-OpenSSL_1_0_1g'
p1990
aS'libcryptoopenssl-OpenSSL_1_0_1f'
p1991
aS'libcryptoopenssl-OpenSSL_1_0_1e'
p1992
aS'libcryptoopenssl-OpenSSL_1_0_1d'
p1993
aS'libcryptoopenssl-OpenSSL_1_0_1c'
p1994
aS'libcryptoopenssl-OpenSSL_1_0_1b'
p1995
aS'libcryptoopenssl-OpenSSL_1_0_1a'
p1996
atp1997
Rp1998
sS'EC_POINT_get_affine_coordinates_GF2m'
p1999
g2
((lp2000
tp2001
Rp2002
sS'BN_mod_sqr'
p2003
g2
((lp2004
tp2005
Rp2006
sS'X509V3_EXT_add_nconf_sk'
p2007
g2
((lp2008
S'libcryptoopenssl-OpenSSL_0_9_8t'
p2009
aS'libcryptoopenssl-OpenSSL_0_9_8u'
p2010
aS'libcryptoopenssl-OpenSSL_0_9_8v'
p2011
aS'libcryptoopenssl-OpenSSL_0_9_8w'
p2012
aS'libcryptoopenssl-OpenSSL_0_9_8s'
p2013
aS'libcryptoopenssl-OpenSSL_0_9_8x'
p2014
aS'libcryptoopenssl-OpenSSL_0_9_8y'
p2015
atp2016
Rp2017
sS'X509_INFO_free'
p2018
g2
((lp2019
tp2020
Rp2021
sS'EVP_CIPHER_CTX_free'
p2022
g2
((lp2023
tp2024
Rp2025
sS'X509_STORE_load_locations'
p2026
g2
((lp2027
S'libcryptoopenssl-OpenSSL_1_0_2'
p2028
aS'libcryptoopenssl-OpenSSL_1_0_1'
p2029
aS'libcryptoopenssl-OpenSSL_1_0_0'
p2030
aS'libcryptoopenssl-OpenSSL_1_0_0t'
p2031
aS'libcryptoopenssl-OpenSSL_1_0_0p'
p2032
aS'libcryptoopenssl-OpenSSL_1_0_0q'
p2033
aS'libcryptoopenssl-OpenSSL_1_0_0r'
p2034
aS'libcryptoopenssl-OpenSSL_1_0_0s'
p2035
aS'libcryptoopenssl-OpenSSL_1_0_0l'
p2036
aS'libcryptoopenssl-OpenSSL_1_0_0m'
p2037
aS'libcryptoopenssl-OpenSSL_1_0_0n'
p2038
aS'libcryptoopenssl-OpenSSL_1_0_0o'
p2039
aS'libcryptoopenssl-OpenSSL_1_0_0h'
p2040
aS'libcryptoopenssl-OpenSSL_1_0_0i'
p2041
aS'libcryptoopenssl-OpenSSL_1_0_0j'
p2042
aS'libcryptoopenssl-OpenSSL_1_0_0k'
p2043
aS'libcryptoopenssl-OpenSSL_1_0_0d'
p2044
aS'libcryptoopenssl-OpenSSL_1_0_0e'
p2045
aS'libcryptoopenssl-OpenSSL_1_0_0f'
p2046
aS'libcryptoopenssl-OpenSSL_1_0_0g'
p2047
aS'libcryptoopenssl-OpenSSL_1_0_0a'
p2048
aS'libcryptoopenssl-OpenSSL_1_0_0b'
p2049
aS'libcryptoopenssl-OpenSSL_1_0_0c'
p2050
aS'libcryptoopenssl-OpenSSL_0_9_8t'
p2051
aS'libcryptoopenssl-OpenSSL_0_9_8u'
p2052
aS'libcryptoopenssl-OpenSSL_0_9_8v'
p2053
aS'libcryptoopenssl-OpenSSL_0_9_8w'
p2054
aS'libcryptoopenssl-OpenSSL_0_9_8p'
p2055
aS'libcryptoopenssl-OpenSSL_0_9_8q'
p2056
aS'libcryptoopenssl-OpenSSL_0_9_8r'
p2057
aS'libcryptoopenssl-OpenSSL_0_9_8s'
p2058
aS'libcryptoopenssl-OpenSSL_0_9_8x'
p2059
aS'libcryptoopenssl-OpenSSL_0_9_8y'
p2060
aS'libcryptoopenssl-OpenSSL_0_9_8d'
p2061
aS'libcryptoopenssl-OpenSSL_0_9_8e'
p2062
aS'libcryptoopenssl-OpenSSL_0_9_8f'
p2063
aS'libcryptoopenssl-OpenSSL_0_9_8g'
p2064
aS'libcryptoopenssl-OpenSSL_0_9_8a'
p2065
aS'libcryptoopenssl-OpenSSL_0_9_8b'
p2066
aS'libcryptoopenssl-OpenSSL_0_9_8c'
p2067
aS'libcryptoopenssl-OpenSSL_0_9_8l'
p2068
aS'libcryptoopenssl-OpenSSL_0_9_8m'
p2069
aS'libcryptoopenssl-OpenSSL_0_9_8n'
p2070
aS'libcryptoopenssl-OpenSSL_0_9_8o'
p2071
aS'libcryptoopenssl-OpenSSL_0_9_8h'
p2072
aS'libcryptoopenssl-OpenSSL_0_9_8i'
p2073
aS'libcryptoopenssl-OpenSSL_0_9_8j'
p2074
aS'libcryptoopenssl-OpenSSL_0_9_8k'
p2075
aS'libcryptoopenssl-OpenSSL_1_0_1t'
p2076
aS'libcryptoopenssl-OpenSSL_1_0_1s'
p2077
aS'libcryptoopenssl-OpenSSL_1_0_1r'
p2078
aS'libcryptoopenssl-OpenSSL_1_0_1q'
p2079
aS'libcryptoopenssl-OpenSSL_1_0_1p'
p2080
aS'libcryptoopenssl-OpenSSL_1_0_1o'
p2081
aS'libcryptoopenssl-OpenSSL_1_0_1n'
p2082
aS'libcryptoopenssl-OpenSSL_1_0_1m'
p2083
aS'libcryptoopenssl-OpenSSL_1_0_1l'
p2084
aS'libcryptoopenssl-OpenSSL_1_0_1k'
p2085
aS'libcryptoopenssl-OpenSSL_1_0_1j'
p2086
aS'libcryptoopenssl-OpenSSL_1_0_1i'
p2087
aS'libcryptoopenssl-OpenSSL_1_0_1h'
p2088
aS'libcryptoopenssl-OpenSSL_1_0_1g'
p2089
aS'libcryptoopenssl-OpenSSL_1_0_1f'
p2090
aS'libcryptoopenssl-OpenSSL_1_0_1e'
p2091
aS'libcryptoopenssl-OpenSSL_1_0_1d'
p2092
aS'libcryptoopenssl-OpenSSL_1_0_1c'
p2093
aS'libcryptoopenssl-OpenSSL_1_0_1b'
p2094
aS'libcryptoopenssl-OpenSSL_1_0_1a'
p2095
aS'libcryptoopenssl-OpenSSL_1_1_0'
p2096
aS'libcryptoopenssl-OpenSSL_1_0_2q'
p2097
aS'libcryptoopenssl-OpenSSL_1_0_2f'
p2098
aS'libcryptoopenssl-OpenSSL_1_0_2g'
p2099
aS'libcryptoopenssl-OpenSSL_1_0_2d'
p2100
aS'libcryptoopenssl-OpenSSL_1_0_2e'
p2101
aS'libcryptoopenssl-OpenSSL_1_0_2b'
p2102
aS'libcryptoopenssl-OpenSSL_1_0_2c'
p2103
aS'libcryptoopenssl-OpenSSL_1_0_2a'
p2104
aS'libcryptoopenssl-OpenSSL_1_0_2n'
p2105
aS'libcryptoopenssl-OpenSSL_1_0_2o'
p2106
aS'libcryptoopenssl-OpenSSL_1_0_2l'
p2107
aS'libcryptoopenssl-OpenSSL_1_0_2m'
p2108
aS'libcryptoopenssl-OpenSSL_1_0_2j'
p2109
aS'libcryptoopenssl-OpenSSL_1_0_2k'
p2110
aS'libcryptoopenssl-OpenSSL_1_0_2h'
p2111
aS'libcryptoopenssl-OpenSSL_1_0_2i'
p2112
aS'libcryptoopenssl-OpenSSL_0_9_7m'
p2113
aS'libcryptoopenssl-OpenSSL_0_9_7l'
p2114
aS'libcryptoopenssl-OpenSSL_0_9_7i'
p2115
aS'libcryptoopenssl-OpenSSL_0_9_7h'
p2116
aS'libcryptoopenssl-OpenSSL_0_9_7k'
p2117
aS'libcryptoopenssl-OpenSSL_0_9_7j'
p2118
aS'libcryptoopenssl-OpenSSL_0_9_7e'
p2119
aS'libcryptoopenssl-OpenSSL_0_9_7d'
p2120
aS'libcryptoopenssl-OpenSSL_0_9_7g'
p2121
aS'libcryptoopenssl-OpenSSL_0_9_7f'
p2122
aS'libcryptoopenssl-OpenSSL_0_9_7a'
p2123
aS'libcryptoopenssl-OpenSSL_0_9_7c'
p2124
aS'libcryptoopenssl-OpenSSL_0_9_7b'
p2125
aS'libcryptoopenssl-OpenSSL_1_1_0g'
p2126
aS'libcryptoopenssl-OpenSSL_1_1_0f'
p2127
aS'libcryptoopenssl-OpenSSL_1_1_0e'
p2128
aS'libcryptoopenssl-OpenSSL_1_1_0d'
p2129
aS'libcryptoopenssl-OpenSSL_1_1_0c'
p2130
aS'libcryptoopenssl-OpenSSL_1_1_0b'
p2131
aS'libcryptoopenssl-OpenSSL_1_1_0a'
p2132
aS'libcryptoopenssl-OpenSSL_1_1_0h'
p2133
aS'libcryptoopenssl-OpenSSL_0_9_8'
p2134
aS'libcryptoopenssl-OpenSSL_0_9_7'
p2135
atp2136
Rp2137
sS'BN_MONT_CTX_free'
p2138
g2
((lp2139
tp2140
Rp2141
sS'ec_GF2m_simple_mul'
p2142
g2
((lp2143
tp2144
Rp2145
sS'def_destroy'
p2146
g2
((lp2147
tp2148
Rp2149
sS'DES_ecb3_encrypt'
p2150
g2
((lp2151
S'libcryptoopenssl-OpenSSL_0_9_7m'
p2152
aS'libcryptoopenssl-OpenSSL_0_9_7l'
p2153
aS'libcryptoopenssl-OpenSSL_0_9_7i'
p2154
aS'libcryptoopenssl-OpenSSL_0_9_7h'
p2155
aS'libcryptoopenssl-OpenSSL_0_9_7k'
p2156
aS'libcryptoopenssl-OpenSSL_0_9_7j'
p2157
aS'libcryptoopenssl-OpenSSL_0_9_7e'
p2158
aS'libcryptoopenssl-OpenSSL_0_9_7d'
p2159
aS'libcryptoopenssl-OpenSSL_0_9_7g'
p2160
aS'libcryptoopenssl-OpenSSL_0_9_7f'
p2161
aS'libcryptoopenssl-OpenSSL_0_9_7a'
p2162
aS'libcryptoopenssl-OpenSSL_0_9_7c'
p2163
aS'libcryptoopenssl-OpenSSL_0_9_7b'
p2164
aS'libcryptoopenssl-OpenSSL_0_9_8t'
p2165
aS'libcryptoopenssl-OpenSSL_0_9_8u'
p2166
aS'libcryptoopenssl-OpenSSL_0_9_8v'
p2167
aS'libcryptoopenssl-OpenSSL_0_9_8w'
p2168
aS'libcryptoopenssl-OpenSSL_0_9_8p'
p2169
aS'libcryptoopenssl-OpenSSL_0_9_8q'
p2170
aS'libcryptoopenssl-OpenSSL_0_9_8r'
p2171
aS'libcryptoopenssl-OpenSSL_0_9_8s'
p2172
aS'libcryptoopenssl-OpenSSL_0_9_8x'
p2173
aS'libcryptoopenssl-OpenSSL_0_9_8y'
p2174
aS'libcryptoopenssl-OpenSSL_0_9_8d'
p2175
aS'libcryptoopenssl-OpenSSL_0_9_8e'
p2176
aS'libcryptoopenssl-OpenSSL_0_9_8f'
p2177
aS'libcryptoopenssl-OpenSSL_0_9_8g'
p2178
aS'libcryptoopenssl-OpenSSL_0_9_8a'
p2179
aS'libcryptoopenssl-OpenSSL_0_9_8b'
p2180
aS'libcryptoopenssl-OpenSSL_0_9_8c'
p2181
aS'libcryptoopenssl-OpenSSL_0_9_8l'
p2182
aS'libcryptoopenssl-OpenSSL_0_9_8m'
p2183
aS'libcryptoopenssl-OpenSSL_0_9_8n'
p2184
aS'libcryptoopenssl-OpenSSL_0_9_8o'
p2185
aS'libcryptoopenssl-OpenSSL_0_9_8h'
p2186
aS'libcryptoopenssl-OpenSSL_0_9_8i'
p2187
aS'libcryptoopenssl-OpenSSL_0_9_8j'
p2188
aS'libcryptoopenssl-OpenSSL_0_9_8k'
p2189
aS'libcryptoopenssl-OpenSSL_0_9_8'
p2190
aS'libcryptoopenssl-OpenSSL_0_9_7'
p2191
atp2192
Rp2193
sS'BN_sub'
p2194
g2
((lp2195
tp2196
Rp2197
sS'EC_KEY_free'
p2198
g2
((lp2199
tp2200
Rp2201
sS'tree_find_sk'
p2202
g2
((lp2203
S'libcryptoopenssl-OpenSSL_0_9_8t'
p2204
aS'libcryptoopenssl-OpenSSL_0_9_8u'
p2205
aS'libcryptoopenssl-OpenSSL_0_9_8v'
p2206
aS'libcryptoopenssl-OpenSSL_0_9_8w'
p2207
aS'libcryptoopenssl-OpenSSL_0_9_8s'
p2208
aS'libcryptoopenssl-OpenSSL_0_9_8x'
p2209
aS'libcryptoopenssl-OpenSSL_0_9_8y'
p2210
atp2211
Rp2212
sS'BN_MONT_CTX_set'
p2213
g2
((lp2214
tp2215
Rp2216
sS'BN_CTX_start'
p2217
g2
((lp2218
tp2219
Rp2220
sS'ec_GFp_simple_cmp'
p2221
g2
((lp2222
tp2223
Rp2224
sS'AES_ecb_encrypt'
p2225
g2
((lp2226
S'libcryptoopenssl-OpenSSL_0_9_7m'
p2227
aS'libcryptoopenssl-OpenSSL_0_9_7l'
p2228
aS'libcryptoopenssl-OpenSSL_0_9_7i'
p2229
aS'libcryptoopenssl-OpenSSL_0_9_7h'
p2230
aS'libcryptoopenssl-OpenSSL_0_9_7k'
p2231
aS'libcryptoopenssl-OpenSSL_0_9_7j'
p2232
aS'libcryptoopenssl-OpenSSL_0_9_7e'
p2233
aS'libcryptoopenssl-OpenSSL_0_9_7d'
p2234
aS'libcryptoopenssl-OpenSSL_0_9_7g'
p2235
aS'libcryptoopenssl-OpenSSL_0_9_7f'
p2236
aS'libcryptoopenssl-OpenSSL_0_9_7a'
p2237
aS'libcryptoopenssl-OpenSSL_0_9_7c'
p2238
aS'libcryptoopenssl-OpenSSL_0_9_7b'
p2239
aS'libcryptoopenssl-OpenSSL_0_9_8t'
p2240
aS'libcryptoopenssl-OpenSSL_0_9_8u'
p2241
aS'libcryptoopenssl-OpenSSL_0_9_8v'
p2242
aS'libcryptoopenssl-OpenSSL_0_9_8w'
p2243
aS'libcryptoopenssl-OpenSSL_0_9_8p'
p2244
aS'libcryptoopenssl-OpenSSL_0_9_8q'
p2245
aS'libcryptoopenssl-OpenSSL_0_9_8r'
p2246
aS'libcryptoopenssl-OpenSSL_0_9_8s'
p2247
aS'libcryptoopenssl-OpenSSL_0_9_8x'
p2248
aS'libcryptoopenssl-OpenSSL_0_9_8y'
p2249
aS'libcryptoopenssl-OpenSSL_0_9_8d'
p2250
aS'libcryptoopenssl-OpenSSL_0_9_8e'
p2251
aS'libcryptoopenssl-OpenSSL_0_9_8f'
p2252
aS'libcryptoopenssl-OpenSSL_0_9_8g'
p2253
aS'libcryptoopenssl-OpenSSL_0_9_8a'
p2254
aS'libcryptoopenssl-OpenSSL_0_9_8b'
p2255
aS'libcryptoopenssl-OpenSSL_0_9_8c'
p2256
aS'libcryptoopenssl-OpenSSL_0_9_8l'
p2257
aS'libcryptoopenssl-OpenSSL_0_9_8m'
p2258
aS'libcryptoopenssl-OpenSSL_0_9_8n'
p2259
aS'libcryptoopenssl-OpenSSL_0_9_8o'
p2260
aS'libcryptoopenssl-OpenSSL_0_9_8h'
p2261
aS'libcryptoopenssl-OpenSSL_0_9_8i'
p2262
aS'libcryptoopenssl-OpenSSL_0_9_8j'
p2263
aS'libcryptoopenssl-OpenSSL_0_9_8k'
p2264
aS'libcryptoopenssl-OpenSSL_0_9_8'
p2265
aS'libcryptoopenssl-OpenSSL_0_9_7'
p2266
atp2267
Rp2268
sS'BIO_write'
p2269
g2
((lp2270
S'libcryptoopenssl-OpenSSL_1_0_2e'
p2271
aS'libcryptoopenssl-OpenSSL_1_0_0n'
p2272
aS'libcryptoopenssl-OpenSSL_1_0_2q'
p2273
aS'libcryptoopenssl-OpenSSL_1_0_1'
p2274
aS'libcryptoopenssl-OpenSSL_1_0_0l'
p2275
aS'libcryptoopenssl-OpenSSL_1_0_2b'
p2276
aS'libcryptoopenssl-OpenSSL_1_0_0m'
p2277
aS'libcryptoopenssl-OpenSSL_1_0_0t'
p2278
aS'libcryptoopenssl-OpenSSL_1_0_2i'
p2279
aS'libcryptoopenssl-OpenSSL_1_0_0p'
p2280
aS'libcryptoopenssl-OpenSSL_1_0_0q'
p2281
aS'libcryptoopenssl-OpenSSL_1_0_0r'
p2282
aS'libcryptoopenssl-OpenSSL_1_0_0s'
p2283
aS'libcryptoopenssl-OpenSSL_1_0_2f'
p2284
aS'libcryptoopenssl-OpenSSL_1_0_2g'
p2285
aS'libcryptoopenssl-OpenSSL_1_0_2d'
p2286
aS'libcryptoopenssl-OpenSSL_1_0_0o'
p2287
aS'libcryptoopenssl-OpenSSL_1_0_0h'
p2288
aS'libcryptoopenssl-OpenSSL_1_0_2c'
p2289
aS'libcryptoopenssl-OpenSSL_1_0_0j'
p2290
aS'libcryptoopenssl-OpenSSL_1_0_2a'
p2291
aS'libcryptoopenssl-OpenSSL_1_0_2n'
p2292
aS'libcryptoopenssl-OpenSSL_1_0_2o'
p2293
aS'libcryptoopenssl-OpenSSL_1_0_0f'
p2294
aS'libcryptoopenssl-OpenSSL_1_0_0g'
p2295
aS'libcryptoopenssl-OpenSSL_1_0_2j'
p2296
aS'libcryptoopenssl-OpenSSL_1_0_2k'
p2297
aS'libcryptoopenssl-OpenSSL_1_0_2h'
p2298
aS'libcryptoopenssl-OpenSSL_1_0_0i'
p2299
aS'libcryptoopenssl-OpenSSL_0_9_8t'
p2300
aS'libcryptoopenssl-OpenSSL_0_9_8u'
p2301
aS'libcryptoopenssl-OpenSSL_0_9_8v'
p2302
aS'libcryptoopenssl-OpenSSL_0_9_8w'
p2303
aS'libcryptoopenssl-OpenSSL_0_9_8s'
p2304
aS'libcryptoopenssl-OpenSSL_1_0_0k'
p2305
aS'libcryptoopenssl-OpenSSL_0_9_8x'
p2306
aS'libcryptoopenssl-OpenSSL_0_9_8y'
p2307
aS'libcryptoopenssl-OpenSSL_1_0_2'
p2308
aS'libcryptoopenssl-OpenSSL_1_0_2l'
p2309
aS'libcryptoopenssl-OpenSSL_1_0_2m'
p2310
aS'libcryptoopenssl-OpenSSL_1_0_1t'
p2311
aS'libcryptoopenssl-OpenSSL_1_0_1s'
p2312
aS'libcryptoopenssl-OpenSSL_1_0_1r'
p2313
aS'libcryptoopenssl-OpenSSL_1_0_1q'
p2314
aS'libcryptoopenssl-OpenSSL_1_0_1p'
p2315
aS'libcryptoopenssl-OpenSSL_1_0_1o'
p2316
aS'libcryptoopenssl-OpenSSL_1_0_1n'
p2317
aS'libcryptoopenssl-OpenSSL_1_0_1m'
p2318
aS'libcryptoopenssl-OpenSSL_1_0_1l'
p2319
aS'libcryptoopenssl-OpenSSL_1_0_1k'
p2320
aS'libcryptoopenssl-OpenSSL_1_0_1j'
p2321
aS'libcryptoopenssl-OpenSSL_1_0_1i'
p2322
aS'libcryptoopenssl-OpenSSL_1_0_1h'
p2323
aS'libcryptoopenssl-OpenSSL_1_0_1g'
p2324
aS'libcryptoopenssl-OpenSSL_1_0_1f'
p2325
aS'libcryptoopenssl-OpenSSL_1_0_1e'
p2326
aS'libcryptoopenssl-OpenSSL_1_0_1d'
p2327
aS'libcryptoopenssl-OpenSSL_1_0_1c'
p2328
aS'libcryptoopenssl-OpenSSL_1_0_1b'
p2329
aS'libcryptoopenssl-OpenSSL_1_0_1a'
p2330
atp2331
Rp2332
sS'dh_finish'
p2333
g2
((lp2334
tp2335
Rp2336
sS'md2_block'
p2337
g2
((lp2338
S'libcryptoopenssl-OpenSSL_0_9_8t'
p2339
aS'libcryptoopenssl-OpenSSL_0_9_8u'
p2340
aS'libcryptoopenssl-OpenSSL_0_9_8v'
p2341
aS'libcryptoopenssl-OpenSSL_0_9_8w'
p2342
aS'libcryptoopenssl-OpenSSL_0_9_8p'
p2343
aS'libcryptoopenssl-OpenSSL_0_9_8q'
p2344
aS'libcryptoopenssl-OpenSSL_0_9_8r'
p2345
aS'libcryptoopenssl-OpenSSL_0_9_8s'
p2346
aS'libcryptoopenssl-OpenSSL_0_9_8x'
p2347
aS'libcryptoopenssl-OpenSSL_0_9_8y'
p2348
aS'libcryptoopenssl-OpenSSL_0_9_8d'
p2349
aS'libcryptoopenssl-OpenSSL_0_9_8f'
p2350
aS'libcryptoopenssl-OpenSSL_0_9_8g'
p2351
aS'libcryptoopenssl-OpenSSL_0_9_8a'
p2352
aS'libcryptoopenssl-OpenSSL_0_9_8b'
p2353
aS'libcryptoopenssl-OpenSSL_0_9_8l'
p2354
aS'libcryptoopenssl-OpenSSL_0_9_8m'
p2355
aS'libcryptoopenssl-OpenSSL_0_9_8n'
p2356
aS'libcryptoopenssl-OpenSSL_0_9_8o'
p2357
aS'libcryptoopenssl-OpenSSL_0_9_8h'
p2358
aS'libcryptoopenssl-OpenSSL_0_9_8i'
p2359
aS'libcryptoopenssl-OpenSSL_0_9_8j'
p2360
aS'libcryptoopenssl-OpenSSL_0_9_8k'
p2361
aS'libcryptoopenssl-OpenSSL_0_9_8'
p2362
atp2363
Rp2364
sS'EC_GROUP_get_order'
p2365
g2
((lp2366
tp2367
Rp2368
sS'BN_set_negative'
p2369
g2
((lp2370
tp2371
Rp2372
sS'ERR_peek_last_error'
p2373
g2
((lp2374
tp2375
Rp2376
sS'bn_mul_low_recursive'
p2377
g2
((lp2378
tp2379
Rp2380
sS'ec_GF2m_montgomery_point_multiply.part.0'
p2381
g2
((lp2382
tp2383
Rp2384
sS'BF_ecb_encrypt'
p2385
g2
((lp2386
S'libcryptoopenssl-OpenSSL_0_9_7m'
p2387
aS'libcryptoopenssl-OpenSSL_0_9_7l'
p2388
aS'libcryptoopenssl-OpenSSL_0_9_7i'
p2389
aS'libcryptoopenssl-OpenSSL_0_9_7h'
p2390
aS'libcryptoopenssl-OpenSSL_0_9_7k'
p2391
aS'libcryptoopenssl-OpenSSL_0_9_7j'
p2392
aS'libcryptoopenssl-OpenSSL_0_9_7e'
p2393
aS'libcryptoopenssl-OpenSSL_0_9_7d'
p2394
aS'libcryptoopenssl-OpenSSL_0_9_7g'
p2395
aS'libcryptoopenssl-OpenSSL_0_9_7f'
p2396
aS'libcryptoopenssl-OpenSSL_0_9_7a'
p2397
aS'libcryptoopenssl-OpenSSL_0_9_7c'
p2398
aS'libcryptoopenssl-OpenSSL_0_9_7b'
p2399
aS'libcryptoopenssl-OpenSSL_0_9_8t'
p2400
aS'libcryptoopenssl-OpenSSL_0_9_8u'
p2401
aS'libcryptoopenssl-OpenSSL_0_9_8v'
p2402
aS'libcryptoopenssl-OpenSSL_0_9_8w'
p2403
aS'libcryptoopenssl-OpenSSL_0_9_8p'
p2404
aS'libcryptoopenssl-OpenSSL_0_9_8q'
p2405
aS'libcryptoopenssl-OpenSSL_0_9_8r'
p2406
aS'libcryptoopenssl-OpenSSL_0_9_8s'
p2407
aS'libcryptoopenssl-OpenSSL_0_9_8x'
p2408
aS'libcryptoopenssl-OpenSSL_0_9_8y'
p2409
aS'libcryptoopenssl-OpenSSL_0_9_8d'
p2410
aS'libcryptoopenssl-OpenSSL_0_9_8e'
p2411
aS'libcryptoopenssl-OpenSSL_0_9_8f'
p2412
aS'libcryptoopenssl-OpenSSL_0_9_8g'
p2413
aS'libcryptoopenssl-OpenSSL_0_9_8a'
p2414
aS'libcryptoopenssl-OpenSSL_0_9_8b'
p2415
aS'libcryptoopenssl-OpenSSL_0_9_8c'
p2416
aS'libcryptoopenssl-OpenSSL_0_9_8l'
p2417
aS'libcryptoopenssl-OpenSSL_0_9_8m'
p2418
aS'libcryptoopenssl-OpenSSL_0_9_8n'
p2419
aS'libcryptoopenssl-OpenSSL_0_9_8o'
p2420
aS'libcryptoopenssl-OpenSSL_0_9_8h'
p2421
aS'libcryptoopenssl-OpenSSL_0_9_8i'
p2422
aS'libcryptoopenssl-OpenSSL_0_9_8j'
p2423
aS'libcryptoopenssl-OpenSSL_0_9_8k'
p2424
aS'libcryptoopenssl-OpenSSL_0_9_8'
p2425
aS'libcryptoopenssl-OpenSSL_0_9_7'
p2426
atp2427
Rp2428
sS'int_cleanup_cb_LHASH_DOALL'
p2429
g2
((lp2430
tp2431
Rp2432
sS'sk_free'
p2433
g2
((lp2434
tp2435
Rp2436
sS'X509_OBJECT_idx_by_subject'
p2437
g2
((lp2438
S'libcryptoopenssl-OpenSSL_0_9_7m'
p2439
aS'libcryptoopenssl-OpenSSL_0_9_7l'
p2440
aS'libcryptoopenssl-OpenSSL_0_9_7i'
p2441
aS'libcryptoopenssl-OpenSSL_0_9_7h'
p2442
aS'libcryptoopenssl-OpenSSL_0_9_7k'
p2443
aS'libcryptoopenssl-OpenSSL_0_9_7j'
p2444
aS'libcryptoopenssl-OpenSSL_0_9_7e'
p2445
aS'libcryptoopenssl-OpenSSL_0_9_7g'
p2446
aS'libcryptoopenssl-OpenSSL_0_9_7f'
p2447
aS'libcryptoopenssl-OpenSSL_0_9_8d'
p2448
aS'libcryptoopenssl-OpenSSL_0_9_8e'
p2449
aS'libcryptoopenssl-OpenSSL_0_9_8f'
p2450
aS'libcryptoopenssl-OpenSSL_0_9_8g'
p2451
aS'libcryptoopenssl-OpenSSL_0_9_8a'
p2452
aS'libcryptoopenssl-OpenSSL_0_9_8b'
p2453
aS'libcryptoopenssl-OpenSSL_0_9_8c'
p2454
aS'libcryptoopenssl-OpenSSL_0_9_8l'
p2455
aS'libcryptoopenssl-OpenSSL_0_9_8m'
p2456
aS'libcryptoopenssl-OpenSSL_0_9_8n'
p2457
aS'libcryptoopenssl-OpenSSL_0_9_8o'
p2458
aS'libcryptoopenssl-OpenSSL_0_9_8h'
p2459
aS'libcryptoopenssl-OpenSSL_0_9_8i'
p2460
aS'libcryptoopenssl-OpenSSL_0_9_8j'
p2461
aS'libcryptoopenssl-OpenSSL_0_9_8k'
p2462
aS'libcryptoopenssl-OpenSSL_0_9_8'
p2463
atp2464
Rp2465
sS'X509_certificate_type'
p2466
g2
((lp2467
S'libcryptoopenssl-OpenSSL_0_9_8t'
p2468
aS'libcryptoopenssl-OpenSSL_0_9_8u'
p2469
aS'libcryptoopenssl-OpenSSL_0_9_8v'
p2470
aS'libcryptoopenssl-OpenSSL_0_9_8w'
p2471
aS'libcryptoopenssl-OpenSSL_0_9_8p'
p2472
aS'libcryptoopenssl-OpenSSL_0_9_8q'
p2473
aS'libcryptoopenssl-OpenSSL_0_9_8r'
p2474
aS'libcryptoopenssl-OpenSSL_0_9_8s'
p2475
aS'libcryptoopenssl-OpenSSL_0_9_8x'
p2476
aS'libcryptoopenssl-OpenSSL_0_9_8y'
p2477
aS'libcryptoopenssl-OpenSSL_0_9_8e'
p2478
aS'libcryptoopenssl-OpenSSL_0_9_8f'
p2479
aS'libcryptoopenssl-OpenSSL_0_9_8g'
p2480
aS'libcryptoopenssl-OpenSSL_0_9_8l'
p2481
aS'libcryptoopenssl-OpenSSL_0_9_8m'
p2482
aS'libcryptoopenssl-OpenSSL_0_9_8n'
p2483
aS'libcryptoopenssl-OpenSSL_0_9_8o'
p2484
aS'libcryptoopenssl-OpenSSL_0_9_8h'
p2485
aS'libcryptoopenssl-OpenSSL_0_9_8i'
p2486
aS'libcryptoopenssl-OpenSSL_0_9_8j'
p2487
aS'libcryptoopenssl-OpenSSL_0_9_8k'
p2488
atp2489
Rp2490
sS'ssl3_get_message'
p2491
g2
((lp2492
tp2493
Rp2494
sS'sk_delete'
p2495
g2
((lp2496
S'libcryptoopenssl-OpenSSL_0_9_8t'
p2497
aS'libcryptoopenssl-OpenSSL_0_9_8u'
p2498
aS'libcryptoopenssl-OpenSSL_0_9_8v'
p2499
aS'libcryptoopenssl-OpenSSL_0_9_8w'
p2500
aS'libcryptoopenssl-OpenSSL_0_9_8p'
p2501
aS'libcryptoopenssl-OpenSSL_0_9_8q'
p2502
aS'libcryptoopenssl-OpenSSL_0_9_8r'
p2503
aS'libcryptoopenssl-OpenSSL_0_9_8s'
p2504
aS'libcryptoopenssl-OpenSSL_0_9_8x'
p2505
aS'libcryptoopenssl-OpenSSL_0_9_8y'
p2506
atp2507
Rp2508
sS'PEM_read_bio_ECPrivateKey'
p2509
g2
((lp2510
tp2511
Rp2512
sS'X509V3_add1_i2d'
p2513
g2
((lp2514
S'libcryptoopenssl-OpenSSL_0_9_8t'
p2515
aS'libcryptoopenssl-OpenSSL_0_9_8u'
p2516
aS'libcryptoopenssl-OpenSSL_0_9_8v'
p2517
aS'libcryptoopenssl-OpenSSL_0_9_8w'
p2518
aS'libcryptoopenssl-OpenSSL_0_9_8s'
p2519
aS'libcryptoopenssl-OpenSSL_0_9_8x'
p2520
aS'libcryptoopenssl-OpenSSL_0_9_8y'
p2521
atp2522
Rp2523
sS'BN_CTX_free'
p2524
g2
((lp2525
tp2526
Rp2527
sS'sha512_block_data_order'
p2528
g2
((lp2529
S'libcryptoopenssl-OpenSSL_0_9_8t'
p2530
aS'libcryptoopenssl-OpenSSL_0_9_8u'
p2531
aS'libcryptoopenssl-OpenSSL_0_9_8v'
p2532
aS'libcryptoopenssl-OpenSSL_0_9_8w'
p2533
aS'libcryptoopenssl-OpenSSL_0_9_8p'
p2534
aS'libcryptoopenssl-OpenSSL_0_9_8q'
p2535
aS'libcryptoopenssl-OpenSSL_0_9_8r'
p2536
aS'libcryptoopenssl-OpenSSL_0_9_8s'
p2537
aS'libcryptoopenssl-OpenSSL_0_9_8x'
p2538
aS'libcryptoopenssl-OpenSSL_0_9_8y'
p2539
aS'libcryptoopenssl-OpenSSL_0_9_8m'
p2540
aS'libcryptoopenssl-OpenSSL_0_9_8n'
p2541
aS'libcryptoopenssl-OpenSSL_0_9_8o'
p2542
atp2543
Rp2544
sS'UI_get0_output_string'
p2545
g2
((lp2546
S'libcryptoopenssl-OpenSSL_1_0_2'
p2547
aS'libcryptoopenssl-OpenSSL_1_0_1'
p2548
aS'libcryptoopenssl-OpenSSL_1_0_0'
p2549
aS'libcryptoopenssl-OpenSSL_1_0_0t'
p2550
aS'libcryptoopenssl-OpenSSL_1_0_0p'
p2551
aS'libcryptoopenssl-OpenSSL_1_0_0q'
p2552
aS'libcryptoopenssl-OpenSSL_1_0_0r'
p2553
aS'libcryptoopenssl-OpenSSL_1_0_0s'
p2554
aS'libcryptoopenssl-OpenSSL_1_0_0l'
p2555
aS'libcryptoopenssl-OpenSSL_1_0_0m'
p2556
aS'libcryptoopenssl-OpenSSL_1_0_0n'
p2557
aS'libcryptoopenssl-OpenSSL_1_0_0o'
p2558
aS'libcryptoopenssl-OpenSSL_1_0_0h'
p2559
aS'libcryptoopenssl-OpenSSL_1_0_0i'
p2560
aS'libcryptoopenssl-OpenSSL_1_0_0j'
p2561
aS'libcryptoopenssl-OpenSSL_1_0_0k'
p2562
aS'libcryptoopenssl-OpenSSL_1_0_0d'
p2563
aS'libcryptoopenssl-OpenSSL_1_0_0e'
p2564
aS'libcryptoopenssl-OpenSSL_1_0_0f'
p2565
aS'libcryptoopenssl-OpenSSL_1_0_0g'
p2566
aS'libcryptoopenssl-OpenSSL_1_0_0a'
p2567
aS'libcryptoopenssl-OpenSSL_1_0_0b'
p2568
aS'libcryptoopenssl-OpenSSL_1_0_0c'
p2569
aS'libcryptoopenssl-OpenSSL_0_9_8t'
p2570
aS'libcryptoopenssl-OpenSSL_0_9_8u'
p2571
aS'libcryptoopenssl-OpenSSL_0_9_8v'
p2572
aS'libcryptoopenssl-OpenSSL_0_9_8w'
p2573
aS'libcryptoopenssl-OpenSSL_0_9_8p'
p2574
aS'libcryptoopenssl-OpenSSL_0_9_8q'
p2575
aS'libcryptoopenssl-OpenSSL_0_9_8r'
p2576
aS'libcryptoopenssl-OpenSSL_0_9_8s'
p2577
aS'libcryptoopenssl-OpenSSL_0_9_8x'
p2578
aS'libcryptoopenssl-OpenSSL_0_9_8y'
p2579
aS'libcryptoopenssl-OpenSSL_0_9_8d'
p2580
aS'libcryptoopenssl-OpenSSL_0_9_8e'
p2581
aS'libcryptoopenssl-OpenSSL_0_9_8f'
p2582
aS'libcryptoopenssl-OpenSSL_0_9_8g'
p2583
aS'libcryptoopenssl-OpenSSL_0_9_8a'
p2584
aS'libcryptoopenssl-OpenSSL_0_9_8b'
p2585
aS'libcryptoopenssl-OpenSSL_0_9_8c'
p2586
aS'libcryptoopenssl-OpenSSL_0_9_8l'
p2587
aS'libcryptoopenssl-OpenSSL_0_9_8m'
p2588
aS'libcryptoopenssl-OpenSSL_0_9_8n'
p2589
aS'libcryptoopenssl-OpenSSL_0_9_8o'
p2590
aS'libcryptoopenssl-OpenSSL_0_9_8h'
p2591
aS'libcryptoopenssl-OpenSSL_0_9_8i'
p2592
aS'libcryptoopenssl-OpenSSL_0_9_8j'
p2593
aS'libcryptoopenssl-OpenSSL_0_9_8k'
p2594
aS'libcryptoopenssl-OpenSSL_1_0_1t'
p2595
aS'libcryptoopenssl-OpenSSL_1_0_1s'
p2596
aS'libcryptoopenssl-OpenSSL_1_0_1r'
p2597
aS'libcryptoopenssl-OpenSSL_1_0_1q'
p2598
aS'libcryptoopenssl-OpenSSL_1_0_1p'
p2599
aS'libcryptoopenssl-OpenSSL_1_0_1o'
p2600
aS'libcryptoopenssl-OpenSSL_1_0_1n'
p2601
aS'libcryptoopenssl-OpenSSL_1_0_1m'
p2602
aS'libcryptoopenssl-OpenSSL_1_0_1l'
p2603
aS'libcryptoopenssl-OpenSSL_1_0_1k'
p2604
aS'libcryptoopenssl-OpenSSL_1_0_1j'
p2605
aS'libcryptoopenssl-OpenSSL_1_0_1i'
p2606
aS'libcryptoopenssl-OpenSSL_1_0_1h'
p2607
aS'libcryptoopenssl-OpenSSL_1_0_1g'
p2608
aS'libcryptoopenssl-OpenSSL_1_0_1f'
p2609
aS'libcryptoopenssl-OpenSSL_1_0_1e'
p2610
aS'libcryptoopenssl-OpenSSL_1_0_1d'
p2611
aS'libcryptoopenssl-OpenSSL_1_0_1c'
p2612
aS'libcryptoopenssl-OpenSSL_1_0_1b'
p2613
aS'libcryptoopenssl-OpenSSL_1_0_1a'
p2614
aS'libcryptoopenssl-OpenSSL_1_1_0'
p2615
aS'libcryptoopenssl-OpenSSL_1_0_2q'
p2616
aS'libcryptoopenssl-OpenSSL_1_0_2f'
p2617
aS'libcryptoopenssl-OpenSSL_1_0_2g'
p2618
aS'libcryptoopenssl-OpenSSL_1_0_2d'
p2619
aS'libcryptoopenssl-OpenSSL_1_0_2e'
p2620
aS'libcryptoopenssl-OpenSSL_1_0_2b'
p2621
aS'libcryptoopenssl-OpenSSL_1_0_2c'
p2622
aS'libcryptoopenssl-OpenSSL_1_0_2a'
p2623
aS'libcryptoopenssl-OpenSSL_1_0_2n'
p2624
aS'libcryptoopenssl-OpenSSL_1_0_2o'
p2625
aS'libcryptoopenssl-OpenSSL_1_0_2l'
p2626
aS'libcryptoopenssl-OpenSSL_1_0_2m'
p2627
aS'libcryptoopenssl-OpenSSL_1_0_2j'
p2628
aS'libcryptoopenssl-OpenSSL_1_0_2k'
p2629
aS'libcryptoopenssl-OpenSSL_1_0_2h'
p2630
aS'libcryptoopenssl-OpenSSL_1_0_2i'
p2631
aS'libcryptoopenssl-OpenSSL_0_9_7m'
p2632
aS'libcryptoopenssl-OpenSSL_0_9_7l'
p2633
aS'libcryptoopenssl-OpenSSL_0_9_7i'
p2634
aS'libcryptoopenssl-OpenSSL_0_9_7h'
p2635
aS'libcryptoopenssl-OpenSSL_0_9_7k'
p2636
aS'libcryptoopenssl-OpenSSL_0_9_7j'
p2637
aS'libcryptoopenssl-OpenSSL_0_9_7e'
p2638
aS'libcryptoopenssl-OpenSSL_0_9_7d'
p2639
aS'libcryptoopenssl-OpenSSL_0_9_7g'
p2640
aS'libcryptoopenssl-OpenSSL_0_9_7f'
p2641
aS'libcryptoopenssl-OpenSSL_0_9_7a'
p2642
aS'libcryptoopenssl-OpenSSL_0_9_7c'
p2643
aS'libcryptoopenssl-OpenSSL_0_9_7b'
p2644
aS'libcryptoopenssl-OpenSSL_0_9_8'
p2645
aS'libcryptoopenssl-OpenSSL_0_9_7'
p2646
atp2647
Rp2648
sS'BN_lshift1'
p2649
g2
((lp2650
tp2651
Rp2652
sS'X509v3_get_ext_by_critical'
p2653
g2
((lp2654
S'libcryptoopenssl-OpenSSL_0_9_8t'
p2655
aS'libcryptoopenssl-OpenSSL_0_9_8u'
p2656
aS'libcryptoopenssl-OpenSSL_0_9_8v'
p2657
aS'libcryptoopenssl-OpenSSL_0_9_8w'
p2658
aS'libcryptoopenssl-OpenSSL_0_9_8s'
p2659
aS'libcryptoopenssl-OpenSSL_0_9_8x'
p2660
aS'libcryptoopenssl-OpenSSL_0_9_8y'
p2661
atp2662
Rp2663
sS'DSA_SIG_free'
p2664
g2
((lp2665
S'libcryptoopenssl-OpenSSL_1_0_2'
p2666
aS'libcryptoopenssl-OpenSSL_1_0_1'
p2667
aS'libcryptoopenssl-OpenSSL_1_0_2q'
p2668
aS'libcryptoopenssl-OpenSSL_1_0_2f'
p2669
aS'libcryptoopenssl-OpenSSL_1_0_2g'
p2670
aS'libcryptoopenssl-OpenSSL_1_0_2d'
p2671
aS'libcryptoopenssl-OpenSSL_1_0_2e'
p2672
aS'libcryptoopenssl-OpenSSL_1_0_2b'
p2673
aS'libcryptoopenssl-OpenSSL_1_0_2c'
p2674
aS'libcryptoopenssl-OpenSSL_1_0_2a'
p2675
aS'libcryptoopenssl-OpenSSL_1_0_2n'
p2676
aS'libcryptoopenssl-OpenSSL_1_0_2o'
p2677
aS'libcryptoopenssl-OpenSSL_1_0_2l'
p2678
aS'libcryptoopenssl-OpenSSL_1_0_2m'
p2679
aS'libcryptoopenssl-OpenSSL_1_0_2j'
p2680
aS'libcryptoopenssl-OpenSSL_1_0_2k'
p2681
aS'libcryptoopenssl-OpenSSL_1_0_2h'
p2682
aS'libcryptoopenssl-OpenSSL_1_0_2i'
p2683
aS'libcryptoopenssl-OpenSSL_0_9_8t'
p2684
aS'libcryptoopenssl-OpenSSL_0_9_8u'
p2685
aS'libcryptoopenssl-OpenSSL_0_9_8v'
p2686
aS'libcryptoopenssl-OpenSSL_0_9_8w'
p2687
aS'libcryptoopenssl-OpenSSL_0_9_8p'
p2688
aS'libcryptoopenssl-OpenSSL_0_9_8q'
p2689
aS'libcryptoopenssl-OpenSSL_0_9_8r'
p2690
aS'libcryptoopenssl-OpenSSL_0_9_8s'
p2691
aS'libcryptoopenssl-OpenSSL_0_9_8x'
p2692
aS'libcryptoopenssl-OpenSSL_0_9_8y'
p2693
aS'libcryptoopenssl-OpenSSL_0_9_8m'
p2694
aS'libcryptoopenssl-OpenSSL_0_9_8n'
p2695
aS'libcryptoopenssl-OpenSSL_0_9_8o'
p2696
aS'libcryptoopenssl-OpenSSL_1_0_1t'
p2697
aS'libcryptoopenssl-OpenSSL_1_0_1s'
p2698
aS'libcryptoopenssl-OpenSSL_1_0_1r'
p2699
aS'libcryptoopenssl-OpenSSL_1_0_1q'
p2700
aS'libcryptoopenssl-OpenSSL_1_0_1p'
p2701
aS'libcryptoopenssl-OpenSSL_1_0_1o'
p2702
aS'libcryptoopenssl-OpenSSL_1_0_1n'
p2703
aS'libcryptoopenssl-OpenSSL_1_0_1m'
p2704
aS'libcryptoopenssl-OpenSSL_1_0_1l'
p2705
aS'libcryptoopenssl-OpenSSL_1_0_1k'
p2706
aS'libcryptoopenssl-OpenSSL_1_0_1j'
p2707
aS'libcryptoopenssl-OpenSSL_1_0_1i'
p2708
aS'libcryptoopenssl-OpenSSL_1_0_1h'
p2709
aS'libcryptoopenssl-OpenSSL_1_0_1g'
p2710
aS'libcryptoopenssl-OpenSSL_1_0_1f'
p2711
aS'libcryptoopenssl-OpenSSL_1_0_1e'
p2712
aS'libcryptoopenssl-OpenSSL_1_0_1d'
p2713
aS'libcryptoopenssl-OpenSSL_1_0_1c'
p2714
aS'libcryptoopenssl-OpenSSL_1_0_1b'
p2715
aS'libcryptoopenssl-OpenSSL_1_0_1a'
p2716
atp2717
Rp2718
sS'X509_NAME_delete_entry'
p2719
g2
((lp2720
S'libcryptoopenssl-OpenSSL_0_9_8t'
p2721
aS'libcryptoopenssl-OpenSSL_0_9_8u'
p2722
aS'libcryptoopenssl-OpenSSL_0_9_8v'
p2723
aS'libcryptoopenssl-OpenSSL_0_9_8w'
p2724
aS'libcryptoopenssl-OpenSSL_0_9_8s'
p2725
aS'libcryptoopenssl-OpenSSL_0_9_8x'
p2726
aS'libcryptoopenssl-OpenSSL_0_9_8y'
p2727
atp2728
Rp2729
sS'ASN1_TIME_set'
p2730
g2
((lp2731
S'libcryptoopenssl-OpenSSL_0_9_7m'
p2732
aS'libcryptoopenssl-OpenSSL_0_9_7l'
p2733
aS'libcryptoopenssl-OpenSSL_0_9_7i'
p2734
aS'libcryptoopenssl-OpenSSL_0_9_7h'
p2735
aS'libcryptoopenssl-OpenSSL_0_9_7k'
p2736
aS'libcryptoopenssl-OpenSSL_0_9_7j'
p2737
aS'libcryptoopenssl-OpenSSL_0_9_7e'
p2738
aS'libcryptoopenssl-OpenSSL_0_9_7d'
p2739
aS'libcryptoopenssl-OpenSSL_0_9_7g'
p2740
aS'libcryptoopenssl-OpenSSL_0_9_7f'
p2741
aS'libcryptoopenssl-OpenSSL_0_9_7a'
p2742
aS'libcryptoopenssl-OpenSSL_0_9_7c'
p2743
aS'libcryptoopenssl-OpenSSL_0_9_7b'
p2744
aS'libcryptoopenssl-OpenSSL_0_9_8t'
p2745
aS'libcryptoopenssl-OpenSSL_0_9_8u'
p2746
aS'libcryptoopenssl-OpenSSL_0_9_8v'
p2747
aS'libcryptoopenssl-OpenSSL_0_9_8w'
p2748
aS'libcryptoopenssl-OpenSSL_0_9_8p'
p2749
aS'libcryptoopenssl-OpenSSL_0_9_8q'
p2750
aS'libcryptoopenssl-OpenSSL_0_9_8r'
p2751
aS'libcryptoopenssl-OpenSSL_0_9_8s'
p2752
aS'libcryptoopenssl-OpenSSL_0_9_8x'
p2753
aS'libcryptoopenssl-OpenSSL_0_9_8y'
p2754
aS'libcryptoopenssl-OpenSSL_0_9_8d'
p2755
aS'libcryptoopenssl-OpenSSL_0_9_8e'
p2756
aS'libcryptoopenssl-OpenSSL_0_9_8f'
p2757
aS'libcryptoopenssl-OpenSSL_0_9_8g'
p2758
aS'libcryptoopenssl-OpenSSL_0_9_8a'
p2759
aS'libcryptoopenssl-OpenSSL_0_9_8b'
p2760
aS'libcryptoopenssl-OpenSSL_0_9_8c'
p2761
aS'libcryptoopenssl-OpenSSL_0_9_8l'
p2762
aS'libcryptoopenssl-OpenSSL_0_9_8m'
p2763
aS'libcryptoopenssl-OpenSSL_0_9_8n'
p2764
aS'libcryptoopenssl-OpenSSL_0_9_8o'
p2765
aS'libcryptoopenssl-OpenSSL_0_9_8h'
p2766
aS'libcryptoopenssl-OpenSSL_0_9_8i'
p2767
aS'libcryptoopenssl-OpenSSL_0_9_8j'
p2768
aS'libcryptoopenssl-OpenSSL_0_9_8k'
p2769
aS'libcryptoopenssl-OpenSSL_0_9_8'
p2770
atp2771
Rp2772
sS'ASN1_ENUMERATED_get'
p2773
g2
((lp2774
S'libcryptoopenssl-OpenSSL_1_0_2e'
p2775
aS'libcryptoopenssl-OpenSSL_1_0_1j'
p2776
aS'libcryptoopenssl-OpenSSL_1_0_0e'
p2777
aS'libcryptoopenssl-OpenSSL_1_0_0n'
p2778
aS'libcryptoopenssl-OpenSSL_1_0_2q'
p2779
aS'libcryptoopenssl-OpenSSL_1_0_1'
p2780
aS'libcryptoopenssl-OpenSSL_1_0_0'
p2781
aS'libcryptoopenssl-OpenSSL_1_0_0l'
p2782
aS'libcryptoopenssl-OpenSSL_1_0_2b'
p2783
aS'libcryptoopenssl-OpenSSL_1_0_0m'
p2784
aS'libcryptoopenssl-OpenSSL_0_9_8e'
p2785
aS'libcryptoopenssl-OpenSSL_1_0_0t'
p2786
aS'libcryptoopenssl-OpenSSL_1_0_2i'
p2787
aS'libcryptoopenssl-OpenSSL_1_0_0p'
p2788
aS'libcryptoopenssl-OpenSSL_1_0_0q'
p2789
aS'libcryptoopenssl-OpenSSL_1_0_0r'
p2790
aS'libcryptoopenssl-OpenSSL_1_0_0s'
p2791
aS'libcryptoopenssl-OpenSSL_1_0_2f'
p2792
aS'libcryptoopenssl-OpenSSL_1_0_2g'
p2793
aS'libcryptoopenssl-OpenSSL_1_0_2d'
p2794
aS'libcryptoopenssl-OpenSSL_1_0_0o'
p2795
aS'libcryptoopenssl-OpenSSL_1_0_0h'
p2796
aS'libcryptoopenssl-OpenSSL_1_0_2c'
p2797
aS'libcryptoopenssl-OpenSSL_1_0_0j'
p2798
aS'libcryptoopenssl-OpenSSL_1_0_2a'
p2799
aS'libcryptoopenssl-OpenSSL_1_0_2n'
p2800
aS'libcryptoopenssl-OpenSSL_1_0_2o'
p2801
aS'libcryptoopenssl-OpenSSL_1_0_0f'
p2802
aS'libcryptoopenssl-OpenSSL_1_0_0g'
p2803
aS'libcryptoopenssl-OpenSSL_1_0_2j'
p2804
aS'libcryptoopenssl-OpenSSL_1_0_0a'
p2805
aS'libcryptoopenssl-OpenSSL_1_0_0b'
p2806
aS'libcryptoopenssl-OpenSSL_1_0_0c'
p2807
aS'libcryptoopenssl-OpenSSL_0_9_8t'
p2808
aS'libcryptoopenssl-OpenSSL_0_9_8u'
p2809
aS'libcryptoopenssl-OpenSSL_0_9_8v'
p2810
aS'libcryptoopenssl-OpenSSL_0_9_8w'
p2811
aS'libcryptoopenssl-OpenSSL_0_9_8p'
p2812
aS'libcryptoopenssl-OpenSSL_0_9_8q'
p2813
aS'libcryptoopenssl-OpenSSL_0_9_8r'
p2814
aS'libcryptoopenssl-OpenSSL_0_9_8s'
p2815
aS'libcryptoopenssl-OpenSSL_1_0_0k'
p2816
aS'libcryptoopenssl-OpenSSL_0_9_8x'
p2817
aS'libcryptoopenssl-OpenSSL_0_9_8y'
p2818
aS'libcryptoopenssl-OpenSSL_0_9_8d'
p2819
aS'libcryptoopenssl-OpenSSL_1_0_0d'
p2820
aS'libcryptoopenssl-OpenSSL_0_9_8f'
p2821
aS'libcryptoopenssl-OpenSSL_0_9_8g'
p2822
aS'libcryptoopenssl-OpenSSL_1_0_2l'
p2823
aS'libcryptoopenssl-OpenSSL_0_9_8a'
p2824
aS'libcryptoopenssl-OpenSSL_0_9_8b'
p2825
aS'libcryptoopenssl-OpenSSL_0_9_8c'
p2826
aS'libcryptoopenssl-OpenSSL_0_9_8l'
p2827
aS'libcryptoopenssl-OpenSSL_0_9_8m'
p2828
aS'libcryptoopenssl-OpenSSL_0_9_8n'
p2829
aS'libcryptoopenssl-OpenSSL_0_9_8o'
p2830
aS'libcryptoopenssl-OpenSSL_0_9_8h'
p2831
aS'libcryptoopenssl-OpenSSL_0_9_8i'
p2832
aS'libcryptoopenssl-OpenSSL_0_9_8j'
p2833
aS'libcryptoopenssl-OpenSSL_0_9_8k'
p2834
aS'libcryptoopenssl-OpenSSL_1_0_2k'
p2835
aS'libcryptoopenssl-OpenSSL_1_0_0i'
p2836
aS'libcryptoopenssl-OpenSSL_1_0_2m'
p2837
aS'libcryptoopenssl-OpenSSL_1_0_2'
p2838
aS'libcryptoopenssl-OpenSSL_0_9_8'
p2839
aS'libcryptoopenssl-OpenSSL_1_0_1t'
p2840
aS'libcryptoopenssl-OpenSSL_1_0_1s'
p2841
aS'libcryptoopenssl-OpenSSL_1_0_1r'
p2842
aS'libcryptoopenssl-OpenSSL_1_0_1q'
p2843
aS'libcryptoopenssl-OpenSSL_1_0_1p'
p2844
aS'libcryptoopenssl-OpenSSL_1_0_1o'
p2845
aS'libcryptoopenssl-OpenSSL_1_0_1n'
p2846
aS'libcryptoopenssl-OpenSSL_1_0_1m'
p2847
aS'libcryptoopenssl-OpenSSL_1_0_1l'
p2848
aS'libcryptoopenssl-OpenSSL_1_0_1k'
p2849
aS'libcryptoopenssl-OpenSSL_1_0_2h'
p2850
aS'libcryptoopenssl-OpenSSL_1_0_1i'
p2851
aS'libcryptoopenssl-OpenSSL_1_0_1h'
p2852
aS'libcryptoopenssl-OpenSSL_1_0_1g'
p2853
aS'libcryptoopenssl-OpenSSL_1_0_1f'
p2854
aS'libcryptoopenssl-OpenSSL_1_0_1e'
p2855
aS'libcryptoopenssl-OpenSSL_1_0_1d'
p2856
aS'libcryptoopenssl-OpenSSL_1_0_1c'
p2857
aS'libcryptoopenssl-OpenSSL_1_0_1b'
p2858
aS'libcryptoopenssl-OpenSSL_1_0_1a'
p2859
atp2860
Rp2861
sS'i2d_ASN1_BOOLEAN'
p2862
g2
((lp2863
tp2864
Rp2865
sS'X509_VERIFY_PARAM_set1_name'
p2866
g2
((lp2867
tp2868
Rp2869
sS'bn_cmp_words'
p2870
g2
((lp2871
tp2872
Rp2873
sS'aes_192_ecb_cipher'
p2874
g2
((lp2875
S'libcryptoopenssl-OpenSSL_0_9_7m'
p2876
aS'libcryptoopenssl-OpenSSL_0_9_7l'
p2877
aS'libcryptoopenssl-OpenSSL_0_9_7i'
p2878
aS'libcryptoopenssl-OpenSSL_0_9_7h'
p2879
aS'libcryptoopenssl-OpenSSL_0_9_7k'
p2880
aS'libcryptoopenssl-OpenSSL_0_9_7j'
p2881
aS'libcryptoopenssl-OpenSSL_0_9_7e'
p2882
aS'libcryptoopenssl-OpenSSL_0_9_7d'
p2883
aS'libcryptoopenssl-OpenSSL_0_9_7g'
p2884
aS'libcryptoopenssl-OpenSSL_0_9_7f'
p2885
aS'libcryptoopenssl-OpenSSL_0_9_7a'
p2886
aS'libcryptoopenssl-OpenSSL_0_9_7c'
p2887
aS'libcryptoopenssl-OpenSSL_0_9_7b'
p2888
aS'libcryptoopenssl-OpenSSL_0_9_8t'
p2889
aS'libcryptoopenssl-OpenSSL_0_9_8u'
p2890
aS'libcryptoopenssl-OpenSSL_0_9_8v'
p2891
aS'libcryptoopenssl-OpenSSL_0_9_8w'
p2892
aS'libcryptoopenssl-OpenSSL_0_9_8p'
p2893
aS'libcryptoopenssl-OpenSSL_0_9_8q'
p2894
aS'libcryptoopenssl-OpenSSL_0_9_8r'
p2895
aS'libcryptoopenssl-OpenSSL_0_9_8s'
p2896
aS'libcryptoopenssl-OpenSSL_0_9_8x'
p2897
aS'libcryptoopenssl-OpenSSL_0_9_8y'
p2898
aS'libcryptoopenssl-OpenSSL_0_9_8d'
p2899
aS'libcryptoopenssl-OpenSSL_0_9_8e'
p2900
aS'libcryptoopenssl-OpenSSL_0_9_8f'
p2901
aS'libcryptoopenssl-OpenSSL_0_9_8g'
p2902
aS'libcryptoopenssl-OpenSSL_0_9_8a'
p2903
aS'libcryptoopenssl-OpenSSL_0_9_8b'
p2904
aS'libcryptoopenssl-OpenSSL_0_9_8c'
p2905
aS'libcryptoopenssl-OpenSSL_0_9_8l'
p2906
aS'libcryptoopenssl-OpenSSL_0_9_8m'
p2907
aS'libcryptoopenssl-OpenSSL_0_9_8n'
p2908
aS'libcryptoopenssl-OpenSSL_0_9_8o'
p2909
aS'libcryptoopenssl-OpenSSL_0_9_8h'
p2910
aS'libcryptoopenssl-OpenSSL_0_9_8i'
p2911
aS'libcryptoopenssl-OpenSSL_0_9_8j'
p2912
aS'libcryptoopenssl-OpenSSL_0_9_8k'
p2913
aS'libcryptoopenssl-OpenSSL_0_9_8'
p2914
aS'libcryptoopenssl-OpenSSL_0_9_7'
p2915
atp2916
Rp2917
sS'X509_pubkey_digest'
p2918
g2
((lp2919
S'libcryptoopenssl-OpenSSL_1_0_2e'
p2920
aS'libcryptoopenssl-OpenSSL_1_0_1j'
p2921
aS'libcryptoopenssl-OpenSSL_1_0_0e'
p2922
aS'libcryptoopenssl-OpenSSL_1_0_0n'
p2923
aS'libcryptoopenssl-OpenSSL_1_0_2q'
p2924
aS'libcryptoopenssl-OpenSSL_1_0_1'
p2925
aS'libcryptoopenssl-OpenSSL_1_0_0'
p2926
aS'libcryptoopenssl-OpenSSL_1_0_0l'
p2927
aS'libcryptoopenssl-OpenSSL_1_0_2b'
p2928
aS'libcryptoopenssl-OpenSSL_1_0_0m'
p2929
aS'libcryptoopenssl-OpenSSL_0_9_8e'
p2930
aS'libcryptoopenssl-OpenSSL_1_0_0t'
p2931
aS'libcryptoopenssl-OpenSSL_1_0_2i'
p2932
aS'libcryptoopenssl-OpenSSL_1_0_0p'
p2933
aS'libcryptoopenssl-OpenSSL_1_0_0q'
p2934
aS'libcryptoopenssl-OpenSSL_1_0_0r'
p2935
aS'libcryptoopenssl-OpenSSL_1_0_0s'
p2936
aS'libcryptoopenssl-OpenSSL_1_0_2f'
p2937
aS'libcryptoopenssl-OpenSSL_1_0_2g'
p2938
aS'libcryptoopenssl-OpenSSL_1_0_2d'
p2939
aS'libcryptoopenssl-OpenSSL_1_0_0o'
p2940
aS'libcryptoopenssl-OpenSSL_1_0_0h'
p2941
aS'libcryptoopenssl-OpenSSL_1_0_2c'
p2942
aS'libcryptoopenssl-OpenSSL_1_0_0j'
p2943
aS'libcryptoopenssl-OpenSSL_1_0_2a'
p2944
aS'libcryptoopenssl-OpenSSL_1_0_2n'
p2945
aS'libcryptoopenssl-OpenSSL_1_0_2o'
p2946
aS'libcryptoopenssl-OpenSSL_1_0_0f'
p2947
aS'libcryptoopenssl-OpenSSL_1_0_0g'
p2948
aS'libcryptoopenssl-OpenSSL_1_0_2j'
p2949
aS'libcryptoopenssl-OpenSSL_1_0_0a'
p2950
aS'libcryptoopenssl-OpenSSL_1_0_0b'
p2951
aS'libcryptoopenssl-OpenSSL_1_0_0c'
p2952
aS'libcryptoopenssl-OpenSSL_0_9_8t'
p2953
aS'libcryptoopenssl-OpenSSL_0_9_8u'
p2954
aS'libcryptoopenssl-OpenSSL_0_9_8v'
p2955
aS'libcryptoopenssl-OpenSSL_0_9_8w'
p2956
aS'libcryptoopenssl-OpenSSL_0_9_8p'
p2957
aS'libcryptoopenssl-OpenSSL_0_9_8q'
p2958
aS'libcryptoopenssl-OpenSSL_0_9_8r'
p2959
aS'libcryptoopenssl-OpenSSL_0_9_8s'
p2960
aS'libcryptoopenssl-OpenSSL_1_0_0k'
p2961
aS'libcryptoopenssl-OpenSSL_0_9_8x'
p2962
aS'libcryptoopenssl-OpenSSL_0_9_8y'
p2963
aS'libcryptoopenssl-OpenSSL_0_9_8d'
p2964
aS'libcryptoopenssl-OpenSSL_1_0_0d'
p2965
aS'libcryptoopenssl-OpenSSL_0_9_8f'
p2966
aS'libcryptoopenssl-OpenSSL_0_9_8g'
p2967
aS'libcryptoopenssl-OpenSSL_1_0_2l'
p2968
aS'libcryptoopenssl-OpenSSL_0_9_8a'
p2969
aS'libcryptoopenssl-OpenSSL_0_9_8b'
p2970
aS'libcryptoopenssl-OpenSSL_0_9_8c'
p2971
aS'libcryptoopenssl-OpenSSL_0_9_8l'
p2972
aS'libcryptoopenssl-OpenSSL_0_9_8m'
p2973
aS'libcryptoopenssl-OpenSSL_0_9_8n'
p2974
aS'libcryptoopenssl-OpenSSL_0_9_8o'
p2975
aS'libcryptoopenssl-OpenSSL_0_9_8h'
p2976
aS'libcryptoopenssl-OpenSSL_0_9_8i'
p2977
aS'libcryptoopenssl-OpenSSL_0_9_8j'
p2978
aS'libcryptoopenssl-OpenSSL_0_9_8k'
p2979
aS'libcryptoopenssl-OpenSSL_1_0_2k'
p2980
aS'libcryptoopenssl-OpenSSL_1_0_0i'
p2981
aS'libcryptoopenssl-OpenSSL_1_0_2m'
p2982
aS'libcryptoopenssl-OpenSSL_1_0_2'
p2983
aS'libcryptoopenssl-OpenSSL_0_9_8'
p2984
aS'libcryptoopenssl-OpenSSL_1_0_1t'
p2985
aS'libcryptoopenssl-OpenSSL_1_0_1s'
p2986
aS'libcryptoopenssl-OpenSSL_1_0_1r'
p2987
aS'libcryptoopenssl-OpenSSL_1_0_1q'
p2988
aS'libcryptoopenssl-OpenSSL_1_0_1p'
p2989
aS'libcryptoopenssl-OpenSSL_1_0_1o'
p2990
aS'libcryptoopenssl-OpenSSL_1_0_1n'
p2991
aS'libcryptoopenssl-OpenSSL_1_0_1m'
p2992
aS'libcryptoopenssl-OpenSSL_1_0_1l'
p2993
aS'libcryptoopenssl-OpenSSL_1_0_1k'
p2994
aS'libcryptoopenssl-OpenSSL_1_0_2h'
p2995
aS'libcryptoopenssl-OpenSSL_1_0_1i'
p2996
aS'libcryptoopenssl-OpenSSL_1_0_1h'
p2997
aS'libcryptoopenssl-OpenSSL_1_0_1g'
p2998
aS'libcryptoopenssl-OpenSSL_1_0_1f'
p2999
aS'libcryptoopenssl-OpenSSL_1_0_1e'
p3000
aS'libcryptoopenssl-OpenSSL_1_0_1d'
p3001
aS'libcryptoopenssl-OpenSSL_1_0_1c'
p3002
aS'libcryptoopenssl-OpenSSL_1_0_1b'
p3003
aS'libcryptoopenssl-OpenSSL_1_0_1a'
p3004
atp3005
Rp3006
sS'BN_sub_word'
p3007
g2
((lp3008
tp3009
Rp3010
sS'EC_POINT_free'
p3011
g2
((lp3012
tp3013
Rp3014
sS'lh_free'
p3015
g2
((lp3016
tp3017
Rp3018
sS'BN_mod_lshift_quick'
p3019
g2
((lp3020
tp3021
Rp3022
sS'bn_sub_words'
p3023
g2
((lp3024
tp3025
Rp3026
sS'ripemd160_block_data_order'
p3027
g2
((lp3028
S'libcryptoopenssl-OpenSSL_1_0_2e'
p3029
aS'libcryptoopenssl-OpenSSL_1_1_0'
p3030
aS'libcryptoopenssl-OpenSSL_1_0_0l'
p3031
aS'libcryptoopenssl-OpenSSL_1_0_1j'
p3032
aS'libcryptoopenssl-OpenSSL_1_0_0n'
p3033
aS'libcryptoopenssl-OpenSSL_1_1_0h'
p3034
aS'libcryptoopenssl-OpenSSL_1_0_2q'
p3035
aS'libcryptoopenssl-OpenSSL_1_0_1'
p3036
aS'libcryptoopenssl-OpenSSL_0_9_8q'
p3037
aS'libcryptoopenssl-OpenSSL_1_1_0g'
p3038
aS'libcryptoopenssl-OpenSSL_1_0_2b'
p3039
aS'libcryptoopenssl-OpenSSL_1_0_0m'
p3040
aS'libcryptoopenssl-OpenSSL_1_0_0t'
p3041
aS'libcryptoopenssl-OpenSSL_1_0_2i'
p3042
aS'libcryptoopenssl-OpenSSL_1_0_0p'
p3043
aS'libcryptoopenssl-OpenSSL_1_1_0e'
p3044
aS'libcryptoopenssl-OpenSSL_1_0_0r'
p3045
aS'libcryptoopenssl-OpenSSL_1_0_0s'
p3046
aS'libcryptoopenssl-OpenSSL_1_0_2f'
p3047
aS'libcryptoopenssl-OpenSSL_1_0_2g'
p3048
aS'libcryptoopenssl-OpenSSL_1_0_2d'
p3049
aS'libcryptoopenssl-OpenSSL_1_0_0o'
p3050
aS'libcryptoopenssl-OpenSSL_1_1_0c'
p3051
aS'libcryptoopenssl-OpenSSL_1_1_0b'
p3052
aS'libcryptoopenssl-OpenSSL_1_1_0a'
p3053
aS'libcryptoopenssl-OpenSSL_1_0_2a'
p3054
aS'libcryptoopenssl-OpenSSL_1_0_2n'
p3055
aS'libcryptoopenssl-OpenSSL_1_0_2o'
p3056
aS'libcryptoopenssl-OpenSSL_1_0_0f'
p3057
aS'libcryptoopenssl-OpenSSL_1_0_0g'
p3058
aS'libcryptoopenssl-OpenSSL_1_0_2j'
p3059
aS'libcryptoopenssl-OpenSSL_1_0_0a'
p3060
aS'libcryptoopenssl-OpenSSL_1_0_0b'
p3061
aS'libcryptoopenssl-OpenSSL_1_0_2c'
p3062
aS'libcryptoopenssl-OpenSSL_0_9_8t'
p3063
aS'libcryptoopenssl-OpenSSL_0_9_8u'
p3064
aS'libcryptoopenssl-OpenSSL_0_9_8v'
p3065
aS'libcryptoopenssl-OpenSSL_0_9_8w'
p3066
aS'libcryptoopenssl-OpenSSL_0_9_8p'
p3067
aS'libcryptoopenssl-OpenSSL_1_0_0j'
p3068
aS'libcryptoopenssl-OpenSSL_0_9_8r'
p3069
aS'libcryptoopenssl-OpenSSL_0_9_8s'
p3070
aS'libcryptoopenssl-OpenSSL_1_0_2k'
p3071
aS'libcryptoopenssl-OpenSSL_1_0_0c'
p3072
aS'libcryptoopenssl-OpenSSL_1_0_0k'
p3073
aS'libcryptoopenssl-OpenSSL_0_9_8x'
p3074
aS'libcryptoopenssl-OpenSSL_0_9_8y'
p3075
aS'libcryptoopenssl-OpenSSL_1_0_0d'
p3076
aS'libcryptoopenssl-OpenSSL_1_0_2l'
p3077
aS'libcryptoopenssl-OpenSSL_1_0_0e'
p3078
aS'libcryptoopenssl-OpenSSL_0_9_8m'
p3079
aS'libcryptoopenssl-OpenSSL_0_9_8n'
p3080
aS'libcryptoopenssl-OpenSSL_0_9_8o'
p3081
aS'libcryptoopenssl-OpenSSL_1_0_2'
p3082
aS'libcryptoopenssl-OpenSSL_1_1_0d'
p3083
aS'libcryptoopenssl-OpenSSL_1_0_0'
p3084
aS'libcryptoopenssl-OpenSSL_1_0_0i'
p3085
aS'libcryptoopenssl-OpenSSL_1_0_2m'
p3086
aS'libcryptoopenssl-OpenSSL_1_1_0f'
p3087
aS'libcryptoopenssl-OpenSSL_1_0_0q'
p3088
aS'libcryptoopenssl-OpenSSL_1_0_1t'
p3089
aS'libcryptoopenssl-OpenSSL_1_0_1s'
p3090
aS'libcryptoopenssl-OpenSSL_1_0_1r'
p3091
aS'libcryptoopenssl-OpenSSL_1_0_1q'
p3092
aS'libcryptoopenssl-OpenSSL_1_0_1p'
p3093
aS'libcryptoopenssl-OpenSSL_1_0_1o'
p3094
aS'libcryptoopenssl-OpenSSL_1_0_1n'
p3095
aS'libcryptoopenssl-OpenSSL_1_0_1m'
p3096
aS'libcryptoopenssl-OpenSSL_1_0_1l'
p3097
aS'libcryptoopenssl-OpenSSL_1_0_1k'
p3098
aS'libcryptoopenssl-OpenSSL_1_0_2h'
p3099
aS'libcryptoopenssl-OpenSSL_1_0_1i'
p3100
aS'libcryptoopenssl-OpenSSL_1_0_1h'
p3101
aS'libcryptoopenssl-OpenSSL_1_0_1g'
p3102
aS'libcryptoopenssl-OpenSSL_1_0_1f'
p3103
aS'libcryptoopenssl-OpenSSL_1_0_1e'
p3104
aS'libcryptoopenssl-OpenSSL_1_0_1d'
p3105
aS'libcryptoopenssl-OpenSSL_1_0_1c'
p3106
aS'libcryptoopenssl-OpenSSL_1_0_1b'
p3107
aS'libcryptoopenssl-OpenSSL_1_0_1a'
p3108
aS'libcryptoopenssl-OpenSSL_1_0_0h'
p3109
atp3110
Rp3111
sS'BN_add'
p3112
g2
((lp3113
tp3114
Rp3115
sS'CRYPTO_free'
p3116
g2
((lp3117
tp3118
Rp3119
sS'MD5_Update'
p3120
g2
((lp3121
S'libcryptoopenssl-OpenSSL_0_9_8t'
p3122
aS'libcryptoopenssl-OpenSSL_0_9_8u'
p3123
aS'libcryptoopenssl-OpenSSL_0_9_8v'
p3124
aS'libcryptoopenssl-OpenSSL_0_9_8w'
p3125
aS'libcryptoopenssl-OpenSSL_0_9_8p'
p3126
aS'libcryptoopenssl-OpenSSL_0_9_8q'
p3127
aS'libcryptoopenssl-OpenSSL_0_9_8r'
p3128
aS'libcryptoopenssl-OpenSSL_0_9_8s'
p3129
aS'libcryptoopenssl-OpenSSL_0_9_8x'
p3130
aS'libcryptoopenssl-OpenSSL_0_9_8y'
p3131
aS'libcryptoopenssl-OpenSSL_0_9_8m'
p3132
aS'libcryptoopenssl-OpenSSL_0_9_8n'
p3133
aS'libcryptoopenssl-OpenSSL_0_9_8o'
p3134
atp3135
Rp3136
sS'_CONF_add_string'
p3137
g2
((lp3138
tp3139
Rp3140
sS'ASN1_item_d2i_bio'
p3141
g2
((lp3142
tp3143
Rp3144
sS'BUF_strlcpy'
p3145
g2
((lp3146
tp3147
Rp3148
sS'ssl3_get_server_done'
p3149
g2
((lp3150
tp3151
Rp3152
sS'EC_POINT_is_at_infinity'
p3153
g2
((lp3154
tp3155
Rp3156
sS'i2c_ASN1_BIT_STRING'
p3157
g2
((lp3158
S'libcryptoopenssl-OpenSSL_1_0_1'
p3159
aS'libcryptoopenssl-OpenSSL_1_0_0'
p3160
aS'libcryptoopenssl-OpenSSL_1_0_0h'
p3161
aS'libcryptoopenssl-OpenSSL_1_0_0i'
p3162
aS'libcryptoopenssl-OpenSSL_1_0_0j'
p3163
aS'libcryptoopenssl-OpenSSL_1_0_0k'
p3164
aS'libcryptoopenssl-OpenSSL_1_0_0d'
p3165
aS'libcryptoopenssl-OpenSSL_1_0_0e'
p3166
aS'libcryptoopenssl-OpenSSL_1_0_0f'
p3167
aS'libcryptoopenssl-OpenSSL_1_0_0g'
p3168
aS'libcryptoopenssl-OpenSSL_1_0_0a'
p3169
aS'libcryptoopenssl-OpenSSL_1_0_0b'
p3170
aS'libcryptoopenssl-OpenSSL_1_0_0c'
p3171
aS'libcryptoopenssl-OpenSSL_0_9_8t'
p3172
aS'libcryptoopenssl-OpenSSL_0_9_8u'
p3173
aS'libcryptoopenssl-OpenSSL_0_9_8v'
p3174
aS'libcryptoopenssl-OpenSSL_0_9_8w'
p3175
aS'libcryptoopenssl-OpenSSL_0_9_8p'
p3176
aS'libcryptoopenssl-OpenSSL_0_9_8q'
p3177
aS'libcryptoopenssl-OpenSSL_0_9_8r'
p3178
aS'libcryptoopenssl-OpenSSL_0_9_8s'
p3179
aS'libcryptoopenssl-OpenSSL_0_9_8x'
p3180
aS'libcryptoopenssl-OpenSSL_0_9_8y'
p3181
aS'libcryptoopenssl-OpenSSL_0_9_8d'
p3182
aS'libcryptoopenssl-OpenSSL_0_9_8e'
p3183
aS'libcryptoopenssl-OpenSSL_0_9_8f'
p3184
aS'libcryptoopenssl-OpenSSL_0_9_8g'
p3185
aS'libcryptoopenssl-OpenSSL_0_9_8b'
p3186
aS'libcryptoopenssl-OpenSSL_0_9_8c'
p3187
aS'libcryptoopenssl-OpenSSL_0_9_8l'
p3188
aS'libcryptoopenssl-OpenSSL_0_9_8m'
p3189
aS'libcryptoopenssl-OpenSSL_0_9_8n'
p3190
aS'libcryptoopenssl-OpenSSL_0_9_8o'
p3191
aS'libcryptoopenssl-OpenSSL_0_9_8h'
p3192
aS'libcryptoopenssl-OpenSSL_0_9_8i'
p3193
aS'libcryptoopenssl-OpenSSL_0_9_8j'
p3194
aS'libcryptoopenssl-OpenSSL_0_9_8k'
p3195
aS'libcryptoopenssl-OpenSSL_1_0_1e'
p3196
aS'libcryptoopenssl-OpenSSL_1_0_1d'
p3197
aS'libcryptoopenssl-OpenSSL_1_0_1c'
p3198
aS'libcryptoopenssl-OpenSSL_1_0_1b'
p3199
aS'libcryptoopenssl-OpenSSL_1_0_1a'
p3200
atp3201
Rp3202
sS'BN_mod_exp_mont'
p3203
g2
((lp3204
tp3205
Rp3206
sS'ASN1_item_digest'
p3207
g2
((lp3208
tp3209
Rp3210
sS'UI_get_string_type'
p3211
g2
((lp3212
S'libcryptoopenssl-OpenSSL_1_0_2'
p3213
aS'libcryptoopenssl-OpenSSL_1_0_1'
p3214
aS'libcryptoopenssl-OpenSSL_1_0_0'
p3215
aS'libcryptoopenssl-OpenSSL_1_0_0t'
p3216
aS'libcryptoopenssl-OpenSSL_1_0_0p'
p3217
aS'libcryptoopenssl-OpenSSL_1_0_0q'
p3218
aS'libcryptoopenssl-OpenSSL_1_0_0r'
p3219
aS'libcryptoopenssl-OpenSSL_1_0_0s'
p3220
aS'libcryptoopenssl-OpenSSL_1_0_0l'
p3221
aS'libcryptoopenssl-OpenSSL_1_0_0m'
p3222
aS'libcryptoopenssl-OpenSSL_1_0_0n'
p3223
aS'libcryptoopenssl-OpenSSL_1_0_0o'
p3224
aS'libcryptoopenssl-OpenSSL_1_0_0h'
p3225
aS'libcryptoopenssl-OpenSSL_1_0_0i'
p3226
aS'libcryptoopenssl-OpenSSL_1_0_0j'
p3227
aS'libcryptoopenssl-OpenSSL_1_0_0k'
p3228
aS'libcryptoopenssl-OpenSSL_1_0_0d'
p3229
aS'libcryptoopenssl-OpenSSL_1_0_0e'
p3230
aS'libcryptoopenssl-OpenSSL_1_0_0f'
p3231
aS'libcryptoopenssl-OpenSSL_1_0_0g'
p3232
aS'libcryptoopenssl-OpenSSL_1_0_0a'
p3233
aS'libcryptoopenssl-OpenSSL_1_0_0b'
p3234
aS'libcryptoopenssl-OpenSSL_1_0_0c'
p3235
aS'libcryptoopenssl-OpenSSL_0_9_8t'
p3236
aS'libcryptoopenssl-OpenSSL_0_9_8u'
p3237
aS'libcryptoopenssl-OpenSSL_0_9_8v'
p3238
aS'libcryptoopenssl-OpenSSL_0_9_8w'
p3239
aS'libcryptoopenssl-OpenSSL_0_9_8p'
p3240
aS'libcryptoopenssl-OpenSSL_0_9_8q'
p3241
aS'libcryptoopenssl-OpenSSL_0_9_8r'
p3242
aS'libcryptoopenssl-OpenSSL_0_9_8s'
p3243
aS'libcryptoopenssl-OpenSSL_0_9_8x'
p3244
aS'libcryptoopenssl-OpenSSL_0_9_8y'
p3245
aS'libcryptoopenssl-OpenSSL_0_9_8d'
p3246
aS'libcryptoopenssl-OpenSSL_0_9_8e'
p3247
aS'libcryptoopenssl-OpenSSL_0_9_8f'
p3248
aS'libcryptoopenssl-OpenSSL_0_9_8g'
p3249
aS'libcryptoopenssl-OpenSSL_0_9_8a'
p3250
aS'libcryptoopenssl-OpenSSL_0_9_8b'
p3251
aS'libcryptoopenssl-OpenSSL_0_9_8c'
p3252
aS'libcryptoopenssl-OpenSSL_0_9_8l'
p3253
aS'libcryptoopenssl-OpenSSL_0_9_8m'
p3254
aS'libcryptoopenssl-OpenSSL_0_9_8n'
p3255
aS'libcryptoopenssl-OpenSSL_0_9_8o'
p3256
aS'libcryptoopenssl-OpenSSL_0_9_8h'
p3257
aS'libcryptoopenssl-OpenSSL_0_9_8i'
p3258
aS'libcryptoopenssl-OpenSSL_0_9_8j'
p3259
aS'libcryptoopenssl-OpenSSL_0_9_8k'
p3260
aS'libcryptoopenssl-OpenSSL_1_0_1t'
p3261
aS'libcryptoopenssl-OpenSSL_1_0_1s'
p3262
aS'libcryptoopenssl-OpenSSL_1_0_1r'
p3263
aS'libcryptoopenssl-OpenSSL_1_0_1q'
p3264
aS'libcryptoopenssl-OpenSSL_1_0_1p'
p3265
aS'libcryptoopenssl-OpenSSL_1_0_1o'
p3266
aS'libcryptoopenssl-OpenSSL_1_0_1n'
p3267
aS'libcryptoopenssl-OpenSSL_1_0_1m'
p3268
aS'libcryptoopenssl-OpenSSL_1_0_1l'
p3269
aS'libcryptoopenssl-OpenSSL_1_0_1k'
p3270
aS'libcryptoopenssl-OpenSSL_1_0_1j'
p3271
aS'libcryptoopenssl-OpenSSL_1_0_1i'
p3272
aS'libcryptoopenssl-OpenSSL_1_0_1h'
p3273
aS'libcryptoopenssl-OpenSSL_1_0_1g'
p3274
aS'libcryptoopenssl-OpenSSL_1_0_1f'
p3275
aS'libcryptoopenssl-OpenSSL_1_0_1e'
p3276
aS'libcryptoopenssl-OpenSSL_1_0_1d'
p3277
aS'libcryptoopenssl-OpenSSL_1_0_1c'
p3278
aS'libcryptoopenssl-OpenSSL_1_0_1b'
p3279
aS'libcryptoopenssl-OpenSSL_1_0_1a'
p3280
aS'libcryptoopenssl-OpenSSL_1_1_0'
p3281
aS'libcryptoopenssl-OpenSSL_1_0_2q'
p3282
aS'libcryptoopenssl-OpenSSL_1_0_2f'
p3283
aS'libcryptoopenssl-OpenSSL_1_0_2g'
p3284
aS'libcryptoopenssl-OpenSSL_1_0_2d'
p3285
aS'libcryptoopenssl-OpenSSL_1_0_2e'
p3286
aS'libcryptoopenssl-OpenSSL_1_0_2b'
p3287
aS'libcryptoopenssl-OpenSSL_1_0_2c'
p3288
aS'libcryptoopenssl-OpenSSL_1_0_2a'
p3289
aS'libcryptoopenssl-OpenSSL_1_0_2n'
p3290
aS'libcryptoopenssl-OpenSSL_1_0_2o'
p3291
aS'libcryptoopenssl-OpenSSL_1_0_2l'
p3292
aS'libcryptoopenssl-OpenSSL_1_0_2m'
p3293
aS'libcryptoopenssl-OpenSSL_1_0_2j'
p3294
aS'libcryptoopenssl-OpenSSL_1_0_2k'
p3295
aS'libcryptoopenssl-OpenSSL_1_0_2h'
p3296
aS'libcryptoopenssl-OpenSSL_1_0_2i'
p3297
aS'libcryptoopenssl-OpenSSL_0_9_7m'
p3298
aS'libcryptoopenssl-OpenSSL_0_9_7l'
p3299
aS'libcryptoopenssl-OpenSSL_0_9_7i'
p3300
aS'libcryptoopenssl-OpenSSL_0_9_7h'
p3301
aS'libcryptoopenssl-OpenSSL_0_9_7k'
p3302
aS'libcryptoopenssl-OpenSSL_0_9_7j'
p3303
aS'libcryptoopenssl-OpenSSL_0_9_7e'
p3304
aS'libcryptoopenssl-OpenSSL_0_9_7d'
p3305
aS'libcryptoopenssl-OpenSSL_0_9_7g'
p3306
aS'libcryptoopenssl-OpenSSL_0_9_7f'
p3307
aS'libcryptoopenssl-OpenSSL_0_9_7a'
p3308
aS'libcryptoopenssl-OpenSSL_0_9_7c'
p3309
aS'libcryptoopenssl-OpenSSL_0_9_7b'
p3310
aS'libcryptoopenssl-OpenSSL_0_9_8'
p3311
aS'libcryptoopenssl-OpenSSL_0_9_7'
p3312
atp3313
Rp3314
sS'dtls1_clear'
p3315
g2
((lp3316
S'libsslopenssl-OpenSSL_1_0_1'
p3317
aS'libsslopenssl-OpenSSL_1_0_1e'
p3318
aS'libsslopenssl-OpenSSL_1_0_1g'
p3319
aS'libsslopenssl-OpenSSL_1_0_1f'
p3320
aS'libsslopenssl-OpenSSL_1_0_0f'
p3321
aS'libsslopenssl-OpenSSL_1_0_1d'
p3322
aS'libsslopenssl-OpenSSL_1_0_1c'
p3323
aS'libsslopenssl-OpenSSL_1_0_1b'
p3324
aS'libsslopenssl-OpenSSL_1_0_1a'
p3325
aS'libsslopenssl-OpenSSL_1_0_0l'
p3326
aS'libsslopenssl-OpenSSL_1_0_0g'
p3327
aS'libsslopenssl-OpenSSL_1_0_0k'
p3328
atp3329
Rp3330
sS'PKCS7_SIGNER_INFO_set'
p3331
g2
((lp3332
S'libcryptoopenssl-OpenSSL_0_9_8t'
p3333
aS'libcryptoopenssl-OpenSSL_0_9_8u'
p3334
aS'libcryptoopenssl-OpenSSL_0_9_8v'
p3335
aS'libcryptoopenssl-OpenSSL_0_9_8w'
p3336
aS'libcryptoopenssl-OpenSSL_0_9_8p'
p3337
aS'libcryptoopenssl-OpenSSL_0_9_8q'
p3338
aS'libcryptoopenssl-OpenSSL_0_9_8r'
p3339
aS'libcryptoopenssl-OpenSSL_0_9_8s'
p3340
aS'libcryptoopenssl-OpenSSL_0_9_8x'
p3341
aS'libcryptoopenssl-OpenSSL_0_9_8y'
p3342
aS'libcryptoopenssl-OpenSSL_0_9_8e'
p3343
aS'libcryptoopenssl-OpenSSL_0_9_8f'
p3344
aS'libcryptoopenssl-OpenSSL_0_9_8g'
p3345
aS'libcryptoopenssl-OpenSSL_0_9_8l'
p3346
aS'libcryptoopenssl-OpenSSL_0_9_8m'
p3347
aS'libcryptoopenssl-OpenSSL_0_9_8n'
p3348
aS'libcryptoopenssl-OpenSSL_0_9_8o'
p3349
aS'libcryptoopenssl-OpenSSL_0_9_8h'
p3350
aS'libcryptoopenssl-OpenSSL_0_9_8i'
p3351
aS'libcryptoopenssl-OpenSSL_0_9_8j'
p3352
aS'libcryptoopenssl-OpenSSL_0_9_8k'
p3353
atp3354
Rp3355
sS'obj_name_cmp'
p3356
g2
((lp3357
S'libcryptoopenssl-OpenSSL_0_9_8t'
p3358
aS'libcryptoopenssl-OpenSSL_0_9_8u'
p3359
aS'libcryptoopenssl-OpenSSL_0_9_8v'
p3360
aS'libcryptoopenssl-OpenSSL_0_9_8w'
p3361
aS'libcryptoopenssl-OpenSSL_0_9_8s'
p3362
aS'libcryptoopenssl-OpenSSL_0_9_8x'
p3363
aS'libcryptoopenssl-OpenSSL_0_9_8y'
p3364
atp3365
Rp3366
sS'BN_ucmp'
p3367
g2
((lp3368
tp3369
Rp3370
sS'BN_mod_mul_montgomery'
p3371
g2
((lp3372
tp3373
Rp3374
sS'_x86_64_AES_encrypt'
p3375
g2
((lp3376
S'libcryptoopenssl-OpenSSL_0_9_8t'
p3377
aS'libcryptoopenssl-OpenSSL_0_9_8u'
p3378
aS'libcryptoopenssl-OpenSSL_0_9_8v'
p3379
aS'libcryptoopenssl-OpenSSL_0_9_8w'
p3380
aS'libcryptoopenssl-OpenSSL_0_9_8p'
p3381
aS'libcryptoopenssl-OpenSSL_0_9_8q'
p3382
aS'libcryptoopenssl-OpenSSL_0_9_8r'
p3383
aS'libcryptoopenssl-OpenSSL_0_9_8s'
p3384
aS'libcryptoopenssl-OpenSSL_0_9_8x'
p3385
aS'libcryptoopenssl-OpenSSL_0_9_8y'
p3386
aS'libcryptoopenssl-OpenSSL_0_9_8m'
p3387
aS'libcryptoopenssl-OpenSSL_0_9_8n'
p3388
aS'libcryptoopenssl-OpenSSL_0_9_8o'
p3389
atp3390
Rp3391
sS'idea_ofb64_encrypt'
p3392
g2
((lp3393
S'libcryptoopenssl-OpenSSL_0_9_7m'
p3394
aS'libcryptoopenssl-OpenSSL_0_9_7l'
p3395
aS'libcryptoopenssl-OpenSSL_0_9_7i'
p3396
aS'libcryptoopenssl-OpenSSL_0_9_7h'
p3397
aS'libcryptoopenssl-OpenSSL_0_9_7k'
p3398
aS'libcryptoopenssl-OpenSSL_0_9_7j'
p3399
aS'libcryptoopenssl-OpenSSL_0_9_7e'
p3400
aS'libcryptoopenssl-OpenSSL_0_9_7d'
p3401
aS'libcryptoopenssl-OpenSSL_0_9_7g'
p3402
aS'libcryptoopenssl-OpenSSL_0_9_7f'
p3403
aS'libcryptoopenssl-OpenSSL_0_9_7a'
p3404
aS'libcryptoopenssl-OpenSSL_0_9_7c'
p3405
aS'libcryptoopenssl-OpenSSL_0_9_7b'
p3406
aS'libcryptoopenssl-OpenSSL_0_9_8t'
p3407
aS'libcryptoopenssl-OpenSSL_0_9_8u'
p3408
aS'libcryptoopenssl-OpenSSL_0_9_8v'
p3409
aS'libcryptoopenssl-OpenSSL_0_9_8w'
p3410
aS'libcryptoopenssl-OpenSSL_0_9_8p'
p3411
aS'libcryptoopenssl-OpenSSL_0_9_8q'
p3412
aS'libcryptoopenssl-OpenSSL_0_9_8r'
p3413
aS'libcryptoopenssl-OpenSSL_0_9_8s'
p3414
aS'libcryptoopenssl-OpenSSL_0_9_8x'
p3415
aS'libcryptoopenssl-OpenSSL_0_9_8y'
p3416
aS'libcryptoopenssl-OpenSSL_0_9_8d'
p3417
aS'libcryptoopenssl-OpenSSL_0_9_8e'
p3418
aS'libcryptoopenssl-OpenSSL_0_9_8f'
p3419
aS'libcryptoopenssl-OpenSSL_0_9_8g'
p3420
aS'libcryptoopenssl-OpenSSL_0_9_8a'
p3421
aS'libcryptoopenssl-OpenSSL_0_9_8b'
p3422
aS'libcryptoopenssl-OpenSSL_0_9_8c'
p3423
aS'libcryptoopenssl-OpenSSL_0_9_8l'
p3424
aS'libcryptoopenssl-OpenSSL_0_9_8m'
p3425
aS'libcryptoopenssl-OpenSSL_0_9_8n'
p3426
aS'libcryptoopenssl-OpenSSL_0_9_8o'
p3427
aS'libcryptoopenssl-OpenSSL_0_9_8h'
p3428
aS'libcryptoopenssl-OpenSSL_0_9_8i'
p3429
aS'libcryptoopenssl-OpenSSL_0_9_8j'
p3430
aS'libcryptoopenssl-OpenSSL_0_9_8k'
p3431
aS'libcryptoopenssl-OpenSSL_0_9_8'
p3432
aS'libcryptoopenssl-OpenSSL_0_9_7'
p3433
atp3434
Rp3435
sS'RC2_ecb_encrypt'
p3436
g2
((lp3437
S'libcryptoopenssl-OpenSSL_0_9_7m'
p3438
aS'libcryptoopenssl-OpenSSL_0_9_7l'
p3439
aS'libcryptoopenssl-OpenSSL_0_9_7i'
p3440
aS'libcryptoopenssl-OpenSSL_0_9_7h'
p3441
aS'libcryptoopenssl-OpenSSL_0_9_7k'
p3442
aS'libcryptoopenssl-OpenSSL_0_9_7j'
p3443
aS'libcryptoopenssl-OpenSSL_0_9_7e'
p3444
aS'libcryptoopenssl-OpenSSL_0_9_7d'
p3445
aS'libcryptoopenssl-OpenSSL_0_9_7g'
p3446
aS'libcryptoopenssl-OpenSSL_0_9_7f'
p3447
aS'libcryptoopenssl-OpenSSL_0_9_7a'
p3448
aS'libcryptoopenssl-OpenSSL_0_9_7c'
p3449
aS'libcryptoopenssl-OpenSSL_0_9_7b'
p3450
aS'libcryptoopenssl-OpenSSL_0_9_8t'
p3451
aS'libcryptoopenssl-OpenSSL_0_9_8u'
p3452
aS'libcryptoopenssl-OpenSSL_0_9_8v'
p3453
aS'libcryptoopenssl-OpenSSL_0_9_8w'
p3454
aS'libcryptoopenssl-OpenSSL_0_9_8p'
p3455
aS'libcryptoopenssl-OpenSSL_0_9_8q'
p3456
aS'libcryptoopenssl-OpenSSL_0_9_8r'
p3457
aS'libcryptoopenssl-OpenSSL_0_9_8s'
p3458
aS'libcryptoopenssl-OpenSSL_0_9_8x'
p3459
aS'libcryptoopenssl-OpenSSL_0_9_8y'
p3460
aS'libcryptoopenssl-OpenSSL_0_9_8d'
p3461
aS'libcryptoopenssl-OpenSSL_0_9_8e'
p3462
aS'libcryptoopenssl-OpenSSL_0_9_8f'
p3463
aS'libcryptoopenssl-OpenSSL_0_9_8g'
p3464
aS'libcryptoopenssl-OpenSSL_0_9_8a'
p3465
aS'libcryptoopenssl-OpenSSL_0_9_8b'
p3466
aS'libcryptoopenssl-OpenSSL_0_9_8c'
p3467
aS'libcryptoopenssl-OpenSSL_0_9_8l'
p3468
aS'libcryptoopenssl-OpenSSL_0_9_8m'
p3469
aS'libcryptoopenssl-OpenSSL_0_9_8n'
p3470
aS'libcryptoopenssl-OpenSSL_0_9_8o'
p3471
aS'libcryptoopenssl-OpenSSL_0_9_8h'
p3472
aS'libcryptoopenssl-OpenSSL_0_9_8i'
p3473
aS'libcryptoopenssl-OpenSSL_0_9_8j'
p3474
aS'libcryptoopenssl-OpenSSL_0_9_8k'
p3475
aS'libcryptoopenssl-OpenSSL_0_9_8'
p3476
aS'libcryptoopenssl-OpenSSL_0_9_7'
p3477
atp3478
Rp3479
sS'_x86_64_AES_set_encrypt_key'
p3480
g2
((lp3481
S'libcryptoopenssl-OpenSSL_0_9_8t'
p3482
aS'libcryptoopenssl-OpenSSL_0_9_8u'
p3483
aS'libcryptoopenssl-OpenSSL_0_9_8v'
p3484
aS'libcryptoopenssl-OpenSSL_0_9_8w'
p3485
aS'libcryptoopenssl-OpenSSL_0_9_8p'
p3486
aS'libcryptoopenssl-OpenSSL_0_9_8q'
p3487
aS'libcryptoopenssl-OpenSSL_0_9_8r'
p3488
aS'libcryptoopenssl-OpenSSL_0_9_8s'
p3489
aS'libcryptoopenssl-OpenSSL_0_9_8x'
p3490
aS'libcryptoopenssl-OpenSSL_0_9_8y'
p3491
aS'libcryptoopenssl-OpenSSL_0_9_8o'
p3492
atp3493
Rp3494
sS'BN_BLINDING_free'
p3495
g2
((lp3496
S'libcryptoopenssl-OpenSSL_0_9_8t'
p3497
aS'libcryptoopenssl-OpenSSL_0_9_8u'
p3498
aS'libcryptoopenssl-OpenSSL_0_9_8v'
p3499
aS'libcryptoopenssl-OpenSSL_0_9_8w'
p3500
aS'libcryptoopenssl-OpenSSL_0_9_8s'
p3501
aS'libcryptoopenssl-OpenSSL_0_9_8x'
p3502
aS'libcryptoopenssl-OpenSSL_0_9_8y'
p3503
atp3504
Rp3505
sS'ec_GFp_simple_set_compressed_coordinates'
p3506
g2
((lp3507
tp3508
Rp3509
sS'bn_sqr_recursive'
p3510
g2
((lp3511
tp3512
Rp3513
sS'BN_CTX_new'
p3514
g2
((lp3515
tp3516
Rp3517
sS'X509_NAME_get_entry'
p3518
g2
((lp3519
S'libcryptoopenssl-OpenSSL_0_9_8t'
p3520
aS'libcryptoopenssl-OpenSSL_0_9_8u'
p3521
aS'libcryptoopenssl-OpenSSL_0_9_8v'
p3522
aS'libcryptoopenssl-OpenSSL_0_9_8w'
p3523
aS'libcryptoopenssl-OpenSSL_0_9_8s'
p3524
aS'libcryptoopenssl-OpenSSL_0_9_8x'
p3525
aS'libcryptoopenssl-OpenSSL_0_9_8y'
p3526
atp3527
Rp3528
sS'buffer_ctrl'
p3529
g2
((lp3530
S'libcryptoopenssl-OpenSSL_1_0_2e'
p3531
aS'libcryptoopenssl-OpenSSL_1_0_0n'
p3532
aS'libcryptoopenssl-OpenSSL_1_0_2q'
p3533
aS'libcryptoopenssl-OpenSSL_1_0_1'
p3534
aS'libcryptoopenssl-OpenSSL_1_0_0l'
p3535
aS'libcryptoopenssl-OpenSSL_1_0_2b'
p3536
aS'libcryptoopenssl-OpenSSL_1_0_0m'
p3537
aS'libcryptoopenssl-OpenSSL_1_0_0t'
p3538
aS'libcryptoopenssl-OpenSSL_1_0_2i'
p3539
aS'libcryptoopenssl-OpenSSL_1_0_0p'
p3540
aS'libcryptoopenssl-OpenSSL_1_0_0q'
p3541
aS'libcryptoopenssl-OpenSSL_1_0_0r'
p3542
aS'libcryptoopenssl-OpenSSL_1_0_0s'
p3543
aS'libcryptoopenssl-OpenSSL_1_0_2f'
p3544
aS'libcryptoopenssl-OpenSSL_1_0_2g'
p3545
aS'libcryptoopenssl-OpenSSL_1_0_2d'
p3546
aS'libcryptoopenssl-OpenSSL_1_0_0o'
p3547
aS'libcryptoopenssl-OpenSSL_1_0_0h'
p3548
aS'libcryptoopenssl-OpenSSL_1_0_2c'
p3549
aS'libcryptoopenssl-OpenSSL_1_0_0j'
p3550
aS'libcryptoopenssl-OpenSSL_1_0_2a'
p3551
aS'libcryptoopenssl-OpenSSL_1_0_2n'
p3552
aS'libcryptoopenssl-OpenSSL_1_0_2o'
p3553
aS'libcryptoopenssl-OpenSSL_1_0_0f'
p3554
aS'libcryptoopenssl-OpenSSL_1_0_0g'
p3555
aS'libcryptoopenssl-OpenSSL_1_0_2j'
p3556
aS'libcryptoopenssl-OpenSSL_1_0_2k'
p3557
aS'libcryptoopenssl-OpenSSL_1_0_2h'
p3558
aS'libcryptoopenssl-OpenSSL_1_0_0i'
p3559
aS'libcryptoopenssl-OpenSSL_0_9_8t'
p3560
aS'libcryptoopenssl-OpenSSL_0_9_8u'
p3561
aS'libcryptoopenssl-OpenSSL_0_9_8v'
p3562
aS'libcryptoopenssl-OpenSSL_0_9_8w'
p3563
aS'libcryptoopenssl-OpenSSL_0_9_8s'
p3564
aS'libcryptoopenssl-OpenSSL_1_0_0k'
p3565
aS'libcryptoopenssl-OpenSSL_0_9_8x'
p3566
aS'libcryptoopenssl-OpenSSL_0_9_8y'
p3567
aS'libcryptoopenssl-OpenSSL_1_0_2'
p3568
aS'libcryptoopenssl-OpenSSL_1_0_2l'
p3569
aS'libcryptoopenssl-OpenSSL_1_0_2m'
p3570
aS'libcryptoopenssl-OpenSSL_1_0_1t'
p3571
aS'libcryptoopenssl-OpenSSL_1_0_1s'
p3572
aS'libcryptoopenssl-OpenSSL_1_0_1r'
p3573
aS'libcryptoopenssl-OpenSSL_1_0_1q'
p3574
aS'libcryptoopenssl-OpenSSL_1_0_1p'
p3575
aS'libcryptoopenssl-OpenSSL_1_0_1o'
p3576
aS'libcryptoopenssl-OpenSSL_1_0_1n'
p3577
aS'libcryptoopenssl-OpenSSL_1_0_1m'
p3578
aS'libcryptoopenssl-OpenSSL_1_0_1l'
p3579
aS'libcryptoopenssl-OpenSSL_1_0_1k'
p3580
aS'libcryptoopenssl-OpenSSL_1_0_1j'
p3581
aS'libcryptoopenssl-OpenSSL_1_0_1i'
p3582
aS'libcryptoopenssl-OpenSSL_1_0_1h'
p3583
aS'libcryptoopenssl-OpenSSL_1_0_1g'
p3584
aS'libcryptoopenssl-OpenSSL_1_0_1f'
p3585
aS'libcryptoopenssl-OpenSSL_1_0_1e'
p3586
aS'libcryptoopenssl-OpenSSL_1_0_1d'
p3587
aS'libcryptoopenssl-OpenSSL_1_0_1c'
p3588
aS'libcryptoopenssl-OpenSSL_1_0_1b'
p3589
aS'libcryptoopenssl-OpenSSL_1_0_1a'
p3590
atp3591
Rp3592
sS'def_load_bio'
p3593
g2
((lp3594
tp3595
Rp3596
sS'BN_CTX_get'
p3597
g2
((lp3598
tp3599
Rp3600
sS'bf_ecb_cipher'
p3601
g2
((lp3602
S'libcryptoopenssl-OpenSSL_0_9_7m'
p3603
aS'libcryptoopenssl-OpenSSL_0_9_7l'
p3604
aS'libcryptoopenssl-OpenSSL_0_9_7i'
p3605
aS'libcryptoopenssl-OpenSSL_0_9_7h'
p3606
aS'libcryptoopenssl-OpenSSL_0_9_7k'
p3607
aS'libcryptoopenssl-OpenSSL_0_9_7j'
p3608
aS'libcryptoopenssl-OpenSSL_0_9_7e'
p3609
aS'libcryptoopenssl-OpenSSL_0_9_7d'
p3610
aS'libcryptoopenssl-OpenSSL_0_9_7g'
p3611
aS'libcryptoopenssl-OpenSSL_0_9_7f'
p3612
aS'libcryptoopenssl-OpenSSL_0_9_7a'
p3613
aS'libcryptoopenssl-OpenSSL_0_9_7c'
p3614
aS'libcryptoopenssl-OpenSSL_0_9_7b'
p3615
aS'libcryptoopenssl-OpenSSL_0_9_8t'
p3616
aS'libcryptoopenssl-OpenSSL_0_9_8u'
p3617
aS'libcryptoopenssl-OpenSSL_0_9_8v'
p3618
aS'libcryptoopenssl-OpenSSL_0_9_8w'
p3619
aS'libcryptoopenssl-OpenSSL_0_9_8p'
p3620
aS'libcryptoopenssl-OpenSSL_0_9_8q'
p3621
aS'libcryptoopenssl-OpenSSL_0_9_8r'
p3622
aS'libcryptoopenssl-OpenSSL_0_9_8s'
p3623
aS'libcryptoopenssl-OpenSSL_0_9_8x'
p3624
aS'libcryptoopenssl-OpenSSL_0_9_8y'
p3625
aS'libcryptoopenssl-OpenSSL_0_9_8d'
p3626
aS'libcryptoopenssl-OpenSSL_0_9_8e'
p3627
aS'libcryptoopenssl-OpenSSL_0_9_8f'
p3628
aS'libcryptoopenssl-OpenSSL_0_9_8g'
p3629
aS'libcryptoopenssl-OpenSSL_0_9_8a'
p3630
aS'libcryptoopenssl-OpenSSL_0_9_8b'
p3631
aS'libcryptoopenssl-OpenSSL_0_9_8c'
p3632
aS'libcryptoopenssl-OpenSSL_0_9_8l'
p3633
aS'libcryptoopenssl-OpenSSL_0_9_8m'
p3634
aS'libcryptoopenssl-OpenSSL_0_9_8n'
p3635
aS'libcryptoopenssl-OpenSSL_0_9_8o'
p3636
aS'libcryptoopenssl-OpenSSL_0_9_8h'
p3637
aS'libcryptoopenssl-OpenSSL_0_9_8i'
p3638
aS'libcryptoopenssl-OpenSSL_0_9_8j'
p3639
aS'libcryptoopenssl-OpenSSL_0_9_8k'
p3640
aS'libcryptoopenssl-OpenSSL_0_9_8'
p3641
aS'libcryptoopenssl-OpenSSL_0_9_7'
p3642
atp3643
Rp3644
sS'PEM_read_ECPrivateKey'
p3645
g2
((lp3646
tp3647
Rp3648
sS'lh_strhash'
p3649
g2
((lp3650
S'libcryptoopenssl-OpenSSL_0_9_8t'
p3651
aS'libcryptoopenssl-OpenSSL_0_9_8u'
p3652
aS'libcryptoopenssl-OpenSSL_0_9_8v'
p3653
aS'libcryptoopenssl-OpenSSL_0_9_8w'
p3654
aS'libcryptoopenssl-OpenSSL_0_9_8p'
p3655
aS'libcryptoopenssl-OpenSSL_0_9_8q'
p3656
aS'libcryptoopenssl-OpenSSL_0_9_8r'
p3657
aS'libcryptoopenssl-OpenSSL_0_9_8s'
p3658
aS'libcryptoopenssl-OpenSSL_0_9_8x'
p3659
aS'libcryptoopenssl-OpenSSL_0_9_8y'
p3660
atp3661
Rp3662
sS'X509V3_conf_free'
p3663
g2
((lp3664
tp3665
Rp3666
sS'ASN1_STRING_set0'
p3667
g2
((lp3668
tp3669
Rp3670
sS'BN_mul'
p3671
g2
((lp3672
tp3673
Rp3674
sS'bn_mul_normal'
p3675
g2
((lp3676
tp3677
Rp3678
sS'xptable_free'
p3679
g2
((lp3680
tp3681
Rp3682
sS'ec_GFp_simple_group_check_discriminant'
p3683
g2
((lp3684
tp3685
Rp3686
sS'd2i_ocsp_nonce'
p3687
g2
((lp3688
tp3689
Rp3690
sS'BN_mul_word'
p3691
g2
((lp3692
tp3693
Rp3694
sS'idea_ecb_encrypt'
p3695
g2
((lp3696
S'libcryptoopenssl-OpenSSL_0_9_7m'
p3697
aS'libcryptoopenssl-OpenSSL_0_9_7l'
p3698
aS'libcryptoopenssl-OpenSSL_0_9_7i'
p3699
aS'libcryptoopenssl-OpenSSL_0_9_7h'
p3700
aS'libcryptoopenssl-OpenSSL_0_9_7k'
p3701
aS'libcryptoopenssl-OpenSSL_0_9_7j'
p3702
aS'libcryptoopenssl-OpenSSL_0_9_7e'
p3703
aS'libcryptoopenssl-OpenSSL_0_9_7d'
p3704
aS'libcryptoopenssl-OpenSSL_0_9_7g'
p3705
aS'libcryptoopenssl-OpenSSL_0_9_7f'
p3706
aS'libcryptoopenssl-OpenSSL_0_9_7a'
p3707
aS'libcryptoopenssl-OpenSSL_0_9_7c'
p3708
aS'libcryptoopenssl-OpenSSL_0_9_7b'
p3709
aS'libcryptoopenssl-OpenSSL_0_9_8t'
p3710
aS'libcryptoopenssl-OpenSSL_0_9_8u'
p3711
aS'libcryptoopenssl-OpenSSL_0_9_8v'
p3712
aS'libcryptoopenssl-OpenSSL_0_9_8w'
p3713
aS'libcryptoopenssl-OpenSSL_0_9_8p'
p3714
aS'libcryptoopenssl-OpenSSL_0_9_8q'
p3715
aS'libcryptoopenssl-OpenSSL_0_9_8r'
p3716
aS'libcryptoopenssl-OpenSSL_0_9_8s'
p3717
aS'libcryptoopenssl-OpenSSL_0_9_8x'
p3718
aS'libcryptoopenssl-OpenSSL_0_9_8y'
p3719
aS'libcryptoopenssl-OpenSSL_0_9_8d'
p3720
aS'libcryptoopenssl-OpenSSL_0_9_8e'
p3721
aS'libcryptoopenssl-OpenSSL_0_9_8f'
p3722
aS'libcryptoopenssl-OpenSSL_0_9_8g'
p3723
aS'libcryptoopenssl-OpenSSL_0_9_8a'
p3724
aS'libcryptoopenssl-OpenSSL_0_9_8b'
p3725
aS'libcryptoopenssl-OpenSSL_0_9_8c'
p3726
aS'libcryptoopenssl-OpenSSL_0_9_8l'
p3727
aS'libcryptoopenssl-OpenSSL_0_9_8m'
p3728
aS'libcryptoopenssl-OpenSSL_0_9_8n'
p3729
aS'libcryptoopenssl-OpenSSL_0_9_8o'
p3730
aS'libcryptoopenssl-OpenSSL_0_9_8h'
p3731
aS'libcryptoopenssl-OpenSSL_0_9_8i'
p3732
aS'libcryptoopenssl-OpenSSL_0_9_8j'
p3733
aS'libcryptoopenssl-OpenSSL_0_9_8k'
p3734
aS'libcryptoopenssl-OpenSSL_0_9_8'
p3735
aS'libcryptoopenssl-OpenSSL_0_9_7'
p3736
atp3737
Rp3738
sS'idea_encrypt'
p3739
g2
((lp3740
S'libcryptoopenssl-OpenSSL_0_9_7m'
p3741
aS'libcryptoopenssl-OpenSSL_0_9_7l'
p3742
aS'libcryptoopenssl-OpenSSL_0_9_7i'
p3743
aS'libcryptoopenssl-OpenSSL_0_9_7h'
p3744
aS'libcryptoopenssl-OpenSSL_0_9_7k'
p3745
aS'libcryptoopenssl-OpenSSL_0_9_7j'
p3746
aS'libcryptoopenssl-OpenSSL_0_9_7e'
p3747
aS'libcryptoopenssl-OpenSSL_0_9_7d'
p3748
aS'libcryptoopenssl-OpenSSL_0_9_7g'
p3749
aS'libcryptoopenssl-OpenSSL_0_9_7f'
p3750
aS'libcryptoopenssl-OpenSSL_0_9_7a'
p3751
aS'libcryptoopenssl-OpenSSL_0_9_7c'
p3752
aS'libcryptoopenssl-OpenSSL_0_9_7b'
p3753
aS'libcryptoopenssl-OpenSSL_0_9_8t'
p3754
aS'libcryptoopenssl-OpenSSL_0_9_8u'
p3755
aS'libcryptoopenssl-OpenSSL_0_9_8v'
p3756
aS'libcryptoopenssl-OpenSSL_0_9_8w'
p3757
aS'libcryptoopenssl-OpenSSL_0_9_8p'
p3758
aS'libcryptoopenssl-OpenSSL_0_9_8q'
p3759
aS'libcryptoopenssl-OpenSSL_0_9_8r'
p3760
aS'libcryptoopenssl-OpenSSL_0_9_8s'
p3761
aS'libcryptoopenssl-OpenSSL_0_9_8x'
p3762
aS'libcryptoopenssl-OpenSSL_0_9_8y'
p3763
aS'libcryptoopenssl-OpenSSL_0_9_8d'
p3764
aS'libcryptoopenssl-OpenSSL_0_9_8e'
p3765
aS'libcryptoopenssl-OpenSSL_0_9_8f'
p3766
aS'libcryptoopenssl-OpenSSL_0_9_8g'
p3767
aS'libcryptoopenssl-OpenSSL_0_9_8a'
p3768
aS'libcryptoopenssl-OpenSSL_0_9_8b'
p3769
aS'libcryptoopenssl-OpenSSL_0_9_8c'
p3770
aS'libcryptoopenssl-OpenSSL_0_9_8l'
p3771
aS'libcryptoopenssl-OpenSSL_0_9_8m'
p3772
aS'libcryptoopenssl-OpenSSL_0_9_8n'
p3773
aS'libcryptoopenssl-OpenSSL_0_9_8o'
p3774
aS'libcryptoopenssl-OpenSSL_0_9_8h'
p3775
aS'libcryptoopenssl-OpenSSL_0_9_8i'
p3776
aS'libcryptoopenssl-OpenSSL_0_9_8j'
p3777
aS'libcryptoopenssl-OpenSSL_0_9_8k'
p3778
aS'libcryptoopenssl-OpenSSL_0_9_8'
p3779
aS'libcryptoopenssl-OpenSSL_0_9_7'
p3780
atp3781
Rp3782
sS'ssl_check_serverhello_tlsext'
p3783
g2
((lp3784
tp3785
Rp3786
sS'ASN1_put_object'
p3787
g2
((lp3788
S'libcryptoopenssl-OpenSSL_0_9_8t'
p3789
aS'libcryptoopenssl-OpenSSL_0_9_8u'
p3790
aS'libcryptoopenssl-OpenSSL_0_9_8v'
p3791
aS'libcryptoopenssl-OpenSSL_0_9_8w'
p3792
aS'libcryptoopenssl-OpenSSL_0_9_8p'
p3793
aS'libcryptoopenssl-OpenSSL_0_9_8q'
p3794
aS'libcryptoopenssl-OpenSSL_0_9_8r'
p3795
aS'libcryptoopenssl-OpenSSL_0_9_8s'
p3796
aS'libcryptoopenssl-OpenSSL_0_9_8x'
p3797
aS'libcryptoopenssl-OpenSSL_0_9_8y'
p3798
aS'libcryptoopenssl-OpenSSL_0_9_8d'
p3799
aS'libcryptoopenssl-OpenSSL_0_9_8e'
p3800
aS'libcryptoopenssl-OpenSSL_0_9_8f'
p3801
aS'libcryptoopenssl-OpenSSL_0_9_8g'
p3802
aS'libcryptoopenssl-OpenSSL_0_9_8b'
p3803
aS'libcryptoopenssl-OpenSSL_0_9_8c'
p3804
aS'libcryptoopenssl-OpenSSL_0_9_8l'
p3805
aS'libcryptoopenssl-OpenSSL_0_9_8m'
p3806
aS'libcryptoopenssl-OpenSSL_0_9_8n'
p3807
aS'libcryptoopenssl-OpenSSL_0_9_8o'
p3808
aS'libcryptoopenssl-OpenSSL_0_9_8h'
p3809
aS'libcryptoopenssl-OpenSSL_0_9_8i'
p3810
aS'libcryptoopenssl-OpenSSL_0_9_8j'
p3811
aS'libcryptoopenssl-OpenSSL_0_9_8k'
p3812
atp3813
Rp3814
sS'BN_exp'
p3815
g2
((lp3816
tp3817
Rp3818
sS'asn1_ex_i2c'
p3819
g2
((lp3820
S'libcryptoopenssl-OpenSSL_1_0_1'
p3821
aS'libcryptoopenssl-OpenSSL_1_0_0'
p3822
aS'libcryptoopenssl-OpenSSL_1_0_0h'
p3823
aS'libcryptoopenssl-OpenSSL_1_0_0i'
p3824
aS'libcryptoopenssl-OpenSSL_1_0_0j'
p3825
aS'libcryptoopenssl-OpenSSL_1_0_0k'
p3826
aS'libcryptoopenssl-OpenSSL_1_0_0d'
p3827
aS'libcryptoopenssl-OpenSSL_1_0_0e'
p3828
aS'libcryptoopenssl-OpenSSL_1_0_0f'
p3829
aS'libcryptoopenssl-OpenSSL_1_0_0g'
p3830
aS'libcryptoopenssl-OpenSSL_1_0_0a'
p3831
aS'libcryptoopenssl-OpenSSL_1_0_0b'
p3832
aS'libcryptoopenssl-OpenSSL_1_0_0c'
p3833
aS'libcryptoopenssl-OpenSSL_0_9_8t'
p3834
aS'libcryptoopenssl-OpenSSL_0_9_8u'
p3835
aS'libcryptoopenssl-OpenSSL_0_9_8v'
p3836
aS'libcryptoopenssl-OpenSSL_0_9_8w'
p3837
aS'libcryptoopenssl-OpenSSL_0_9_8p'
p3838
aS'libcryptoopenssl-OpenSSL_0_9_8q'
p3839
aS'libcryptoopenssl-OpenSSL_0_9_8r'
p3840
aS'libcryptoopenssl-OpenSSL_0_9_8s'
p3841
aS'libcryptoopenssl-OpenSSL_0_9_8x'
p3842
aS'libcryptoopenssl-OpenSSL_0_9_8y'
p3843
aS'libcryptoopenssl-OpenSSL_0_9_8d'
p3844
aS'libcryptoopenssl-OpenSSL_0_9_8e'
p3845
aS'libcryptoopenssl-OpenSSL_0_9_8f'
p3846
aS'libcryptoopenssl-OpenSSL_0_9_8g'
p3847
aS'libcryptoopenssl-OpenSSL_0_9_8b'
p3848
aS'libcryptoopenssl-OpenSSL_0_9_8c'
p3849
aS'libcryptoopenssl-OpenSSL_0_9_8l'
p3850
aS'libcryptoopenssl-OpenSSL_0_9_8m'
p3851
aS'libcryptoopenssl-OpenSSL_0_9_8n'
p3852
aS'libcryptoopenssl-OpenSSL_0_9_8o'
p3853
aS'libcryptoopenssl-OpenSSL_0_9_8h'
p3854
aS'libcryptoopenssl-OpenSSL_0_9_8i'
p3855
aS'libcryptoopenssl-OpenSSL_0_9_8j'
p3856
aS'libcryptoopenssl-OpenSSL_0_9_8k'
p3857
aS'libcryptoopenssl-OpenSSL_1_0_1e'
p3858
aS'libcryptoopenssl-OpenSSL_1_0_1d'
p3859
aS'libcryptoopenssl-OpenSSL_1_0_1c'
p3860
aS'libcryptoopenssl-OpenSSL_1_0_1b'
p3861
aS'libcryptoopenssl-OpenSSL_1_0_1a'
p3862
atp3863
Rp3864
sS'sk_num'
p3865
g2
((lp3866
S'libcryptoopenssl-OpenSSL_0_9_8t'
p3867
aS'libcryptoopenssl-OpenSSL_0_9_8u'
p3868
aS'libcryptoopenssl-OpenSSL_0_9_8v'
p3869
aS'libcryptoopenssl-OpenSSL_0_9_8w'
p3870
aS'libcryptoopenssl-OpenSSL_0_9_8s'
p3871
aS'libcryptoopenssl-OpenSSL_0_9_8x'
p3872
aS'libcryptoopenssl-OpenSSL_0_9_8y'
p3873
atp3874
Rp3875
sS'free_dir'
p3876
g2
((lp3877
tp3878
Rp3879
sS'DSA_size'
p3880
g2
((lp3881
tp3882
Rp3883
sS'BN_GF2m_poly2arr'
p3884
g2
((lp3885
tp3886
Rp3887
sS'BN_cmp'
p3888
g2
((lp3889
tp3890
Rp3891
sS'obj_trust'
p3892
g2
((lp3893
S'libcryptoopenssl-OpenSSL_0_9_8t'
p3894
aS'libcryptoopenssl-OpenSSL_0_9_8u'
p3895
aS'libcryptoopenssl-OpenSSL_0_9_8v'
p3896
aS'libcryptoopenssl-OpenSSL_0_9_8w'
p3897
aS'libcryptoopenssl-OpenSSL_0_9_8s'
p3898
aS'libcryptoopenssl-OpenSSL_0_9_8x'
p3899
aS'libcryptoopenssl-OpenSSL_0_9_8y'
p3900
atp3901
Rp3902
sS'BN_num_bits_word'
p3903
g2
((lp3904
tp3905
Rp3906
sS'BN_rshift'
p3907
g2
((lp3908
tp3909
Rp3910
sS'i2s_ASN1_ENUMERATED_TABLE'
p3911
g2
((lp3912
S'libcryptoopenssl-OpenSSL_1_0_2e'
p3913
aS'libcryptoopenssl-OpenSSL_1_0_1j'
p3914
aS'libcryptoopenssl-OpenSSL_1_0_0e'
p3915
aS'libcryptoopenssl-OpenSSL_1_0_0n'
p3916
aS'libcryptoopenssl-OpenSSL_1_0_2q'
p3917
aS'libcryptoopenssl-OpenSSL_1_0_1'
p3918
aS'libcryptoopenssl-OpenSSL_1_0_0'
p3919
aS'libcryptoopenssl-OpenSSL_1_0_0l'
p3920
aS'libcryptoopenssl-OpenSSL_1_0_2b'
p3921
aS'libcryptoopenssl-OpenSSL_1_0_0m'
p3922
aS'libcryptoopenssl-OpenSSL_0_9_8e'
p3923
aS'libcryptoopenssl-OpenSSL_1_0_0t'
p3924
aS'libcryptoopenssl-OpenSSL_1_0_2i'
p3925
aS'libcryptoopenssl-OpenSSL_1_0_0p'
p3926
aS'libcryptoopenssl-OpenSSL_1_0_0q'
p3927
aS'libcryptoopenssl-OpenSSL_1_0_0r'
p3928
aS'libcryptoopenssl-OpenSSL_1_0_0s'
p3929
aS'libcryptoopenssl-OpenSSL_1_0_2f'
p3930
aS'libcryptoopenssl-OpenSSL_1_0_2g'
p3931
aS'libcryptoopenssl-OpenSSL_1_0_2d'
p3932
aS'libcryptoopenssl-OpenSSL_1_0_0o'
p3933
aS'libcryptoopenssl-OpenSSL_1_0_0h'
p3934
aS'libcryptoopenssl-OpenSSL_1_0_2c'
p3935
aS'libcryptoopenssl-OpenSSL_1_0_0j'
p3936
aS'libcryptoopenssl-OpenSSL_1_0_2a'
p3937
aS'libcryptoopenssl-OpenSSL_1_0_2n'
p3938
aS'libcryptoopenssl-OpenSSL_1_0_2o'
p3939
aS'libcryptoopenssl-OpenSSL_1_0_0f'
p3940
aS'libcryptoopenssl-OpenSSL_1_0_0g'
p3941
aS'libcryptoopenssl-OpenSSL_1_0_2j'
p3942
aS'libcryptoopenssl-OpenSSL_1_0_0a'
p3943
aS'libcryptoopenssl-OpenSSL_1_0_0b'
p3944
aS'libcryptoopenssl-OpenSSL_1_0_0c'
p3945
aS'libcryptoopenssl-OpenSSL_0_9_8t'
p3946
aS'libcryptoopenssl-OpenSSL_0_9_8u'
p3947
aS'libcryptoopenssl-OpenSSL_0_9_8v'
p3948
aS'libcryptoopenssl-OpenSSL_0_9_8w'
p3949
aS'libcryptoopenssl-OpenSSL_0_9_8p'
p3950
aS'libcryptoopenssl-OpenSSL_0_9_8q'
p3951
aS'libcryptoopenssl-OpenSSL_0_9_8r'
p3952
aS'libcryptoopenssl-OpenSSL_0_9_8s'
p3953
aS'libcryptoopenssl-OpenSSL_1_0_0k'
p3954
aS'libcryptoopenssl-OpenSSL_0_9_8x'
p3955
aS'libcryptoopenssl-OpenSSL_0_9_8y'
p3956
aS'libcryptoopenssl-OpenSSL_0_9_8d'
p3957
aS'libcryptoopenssl-OpenSSL_1_0_0d'
p3958
aS'libcryptoopenssl-OpenSSL_0_9_8f'
p3959
aS'libcryptoopenssl-OpenSSL_0_9_8g'
p3960
aS'libcryptoopenssl-OpenSSL_1_0_2l'
p3961
aS'libcryptoopenssl-OpenSSL_0_9_8a'
p3962
aS'libcryptoopenssl-OpenSSL_0_9_8b'
p3963
aS'libcryptoopenssl-OpenSSL_0_9_8c'
p3964
aS'libcryptoopenssl-OpenSSL_0_9_8l'
p3965
aS'libcryptoopenssl-OpenSSL_0_9_8m'
p3966
aS'libcryptoopenssl-OpenSSL_0_9_8n'
p3967
aS'libcryptoopenssl-OpenSSL_0_9_8o'
p3968
aS'libcryptoopenssl-OpenSSL_0_9_8h'
p3969
aS'libcryptoopenssl-OpenSSL_0_9_8i'
p3970
aS'libcryptoopenssl-OpenSSL_0_9_8j'
p3971
aS'libcryptoopenssl-OpenSSL_0_9_8k'
p3972
aS'libcryptoopenssl-OpenSSL_1_0_2k'
p3973
aS'libcryptoopenssl-OpenSSL_1_0_0i'
p3974
aS'libcryptoopenssl-OpenSSL_1_0_2m'
p3975
aS'libcryptoopenssl-OpenSSL_1_0_2'
p3976
aS'libcryptoopenssl-OpenSSL_0_9_8'
p3977
aS'libcryptoopenssl-OpenSSL_1_0_1t'
p3978
aS'libcryptoopenssl-OpenSSL_1_0_1s'
p3979
aS'libcryptoopenssl-OpenSSL_1_0_1r'
p3980
aS'libcryptoopenssl-OpenSSL_1_0_1q'
p3981
aS'libcryptoopenssl-OpenSSL_1_0_1p'
p3982
aS'libcryptoopenssl-OpenSSL_1_0_1o'
p3983
aS'libcryptoopenssl-OpenSSL_1_0_1n'
p3984
aS'libcryptoopenssl-OpenSSL_1_0_1m'
p3985
aS'libcryptoopenssl-OpenSSL_1_0_1l'
p3986
aS'libcryptoopenssl-OpenSSL_1_0_1k'
p3987
aS'libcryptoopenssl-OpenSSL_1_0_2h'
p3988
aS'libcryptoopenssl-OpenSSL_1_0_1i'
p3989
aS'libcryptoopenssl-OpenSSL_1_0_1h'
p3990
aS'libcryptoopenssl-OpenSSL_1_0_1g'
p3991
aS'libcryptoopenssl-OpenSSL_1_0_1f'
p3992
aS'libcryptoopenssl-OpenSSL_1_0_1e'
p3993
aS'libcryptoopenssl-OpenSSL_1_0_1d'
p3994
aS'libcryptoopenssl-OpenSSL_1_0_1c'
p3995
aS'libcryptoopenssl-OpenSSL_1_0_1b'
p3996
aS'libcryptoopenssl-OpenSSL_1_0_1a'
p3997
atp3998
Rp3999
sS'BN_CTX_end'
p4000
g2
((lp4001
tp4002
Rp4003
sS'ec_GFp_simple_dbl'
p4004
g2
((lp4005
tp4006
Rp4007
sS'i2v_GENERAL_NAMES'
p4008
g2
((lp4009
S'libcryptoopenssl-OpenSSL_0_9_8t'
p4010
aS'libcryptoopenssl-OpenSSL_0_9_8u'
p4011
aS'libcryptoopenssl-OpenSSL_0_9_8v'
p4012
aS'libcryptoopenssl-OpenSSL_0_9_8w'
p4013
aS'libcryptoopenssl-OpenSSL_0_9_8s'
p4014
aS'libcryptoopenssl-OpenSSL_0_9_8x'
p4015
aS'libcryptoopenssl-OpenSSL_0_9_8y'
p4016
atp4017
Rp4018
sS'ASN1_object_size'
p4019
g2
((lp4020
tp4021
Rp4022
sS'aes_256_ecb_cipher'
p4023
g2
((lp4024
S'libcryptoopenssl-OpenSSL_0_9_7m'
p4025
aS'libcryptoopenssl-OpenSSL_0_9_7l'
p4026
aS'libcryptoopenssl-OpenSSL_0_9_7i'
p4027
aS'libcryptoopenssl-OpenSSL_0_9_7h'
p4028
aS'libcryptoopenssl-OpenSSL_0_9_7k'
p4029
aS'libcryptoopenssl-OpenSSL_0_9_7j'
p4030
aS'libcryptoopenssl-OpenSSL_0_9_7e'
p4031
aS'libcryptoopenssl-OpenSSL_0_9_7d'
p4032
aS'libcryptoopenssl-OpenSSL_0_9_7g'
p4033
aS'libcryptoopenssl-OpenSSL_0_9_7f'
p4034
aS'libcryptoopenssl-OpenSSL_0_9_7a'
p4035
aS'libcryptoopenssl-OpenSSL_0_9_7c'
p4036
aS'libcryptoopenssl-OpenSSL_0_9_7b'
p4037
aS'libcryptoopenssl-OpenSSL_0_9_8t'
p4038
aS'libcryptoopenssl-OpenSSL_0_9_8u'
p4039
aS'libcryptoopenssl-OpenSSL_0_9_8v'
p4040
aS'libcryptoopenssl-OpenSSL_0_9_8w'
p4041
aS'libcryptoopenssl-OpenSSL_0_9_8p'
p4042
aS'libcryptoopenssl-OpenSSL_0_9_8q'
p4043
aS'libcryptoopenssl-OpenSSL_0_9_8r'
p4044
aS'libcryptoopenssl-OpenSSL_0_9_8s'
p4045
aS'libcryptoopenssl-OpenSSL_0_9_8x'
p4046
aS'libcryptoopenssl-OpenSSL_0_9_8y'
p4047
aS'libcryptoopenssl-OpenSSL_0_9_8d'
p4048
aS'libcryptoopenssl-OpenSSL_0_9_8e'
p4049
aS'libcryptoopenssl-OpenSSL_0_9_8f'
p4050
aS'libcryptoopenssl-OpenSSL_0_9_8g'
p4051
aS'libcryptoopenssl-OpenSSL_0_9_8a'
p4052
aS'libcryptoopenssl-OpenSSL_0_9_8b'
p4053
aS'libcryptoopenssl-OpenSSL_0_9_8c'
p4054
aS'libcryptoopenssl-OpenSSL_0_9_8l'
p4055
aS'libcryptoopenssl-OpenSSL_0_9_8m'
p4056
aS'libcryptoopenssl-OpenSSL_0_9_8n'
p4057
aS'libcryptoopenssl-OpenSSL_0_9_8o'
p4058
aS'libcryptoopenssl-OpenSSL_0_9_8h'
p4059
aS'libcryptoopenssl-OpenSSL_0_9_8i'
p4060
aS'libcryptoopenssl-OpenSSL_0_9_8j'
p4061
aS'libcryptoopenssl-OpenSSL_0_9_8k'
p4062
aS'libcryptoopenssl-OpenSSL_0_9_8'
p4063
aS'libcryptoopenssl-OpenSSL_0_9_7'
p4064
atp4065
Rp4066
sS'X509_NAME_add_entry'
p4067
g2
((lp4068
S'libcryptoopenssl-OpenSSL_0_9_8t'
p4069
aS'libcryptoopenssl-OpenSSL_0_9_8u'
p4070
aS'libcryptoopenssl-OpenSSL_0_9_8v'
p4071
aS'libcryptoopenssl-OpenSSL_0_9_8w'
p4072
aS'libcryptoopenssl-OpenSSL_0_9_8s'
p4073
aS'libcryptoopenssl-OpenSSL_0_9_8x'
p4074
aS'libcryptoopenssl-OpenSSL_0_9_8y'
p4075
atp4076
Rp4077
sS'bn_mul_low_normal'
p4078
g2
((lp4079
tp4080
Rp4081
sS'BN_mod_word'
p4082
g2
((lp4083
tp4084
Rp4085
sS'ASN1_STRING_free'
p4086
g2
((lp4087
tp4088
Rp4089
sS'RC2_encrypt'
p4090
g2
((lp4091
S'libcryptoopenssl-OpenSSL_0_9_7m'
p4092
aS'libcryptoopenssl-OpenSSL_0_9_7l'
p4093
aS'libcryptoopenssl-OpenSSL_0_9_7i'
p4094
aS'libcryptoopenssl-OpenSSL_0_9_7h'
p4095
aS'libcryptoopenssl-OpenSSL_0_9_7k'
p4096
aS'libcryptoopenssl-OpenSSL_0_9_7j'
p4097
aS'libcryptoopenssl-OpenSSL_0_9_7e'
p4098
aS'libcryptoopenssl-OpenSSL_0_9_7d'
p4099
aS'libcryptoopenssl-OpenSSL_0_9_7g'
p4100
aS'libcryptoopenssl-OpenSSL_0_9_7f'
p4101
aS'libcryptoopenssl-OpenSSL_0_9_7a'
p4102
aS'libcryptoopenssl-OpenSSL_0_9_7c'
p4103
aS'libcryptoopenssl-OpenSSL_0_9_7b'
p4104
aS'libcryptoopenssl-OpenSSL_0_9_8t'
p4105
aS'libcryptoopenssl-OpenSSL_0_9_8u'
p4106
aS'libcryptoopenssl-OpenSSL_0_9_8v'
p4107
aS'libcryptoopenssl-OpenSSL_0_9_8w'
p4108
aS'libcryptoopenssl-OpenSSL_0_9_8p'
p4109
aS'libcryptoopenssl-OpenSSL_0_9_8q'
p4110
aS'libcryptoopenssl-OpenSSL_0_9_8r'
p4111
aS'libcryptoopenssl-OpenSSL_0_9_8s'
p4112
aS'libcryptoopenssl-OpenSSL_0_9_8x'
p4113
aS'libcryptoopenssl-OpenSSL_0_9_8y'
p4114
aS'libcryptoopenssl-OpenSSL_0_9_8d'
p4115
aS'libcryptoopenssl-OpenSSL_0_9_8e'
p4116
aS'libcryptoopenssl-OpenSSL_0_9_8f'
p4117
aS'libcryptoopenssl-OpenSSL_0_9_8g'
p4118
aS'libcryptoopenssl-OpenSSL_0_9_8a'
p4119
aS'libcryptoopenssl-OpenSSL_0_9_8b'
p4120
aS'libcryptoopenssl-OpenSSL_0_9_8c'
p4121
aS'libcryptoopenssl-OpenSSL_0_9_8l'
p4122
aS'libcryptoopenssl-OpenSSL_0_9_8m'
p4123
aS'libcryptoopenssl-OpenSSL_0_9_8n'
p4124
aS'libcryptoopenssl-OpenSSL_0_9_8o'
p4125
aS'libcryptoopenssl-OpenSSL_0_9_8h'
p4126
aS'libcryptoopenssl-OpenSSL_0_9_8i'
p4127
aS'libcryptoopenssl-OpenSSL_0_9_8j'
p4128
aS'libcryptoopenssl-OpenSSL_0_9_8k'
p4129
aS'libcryptoopenssl-OpenSSL_0_9_8'
p4130
aS'libcryptoopenssl-OpenSSL_0_9_7'
p4131
atp4132
Rp4133
sS'sha_block_data_order'
p4134
g2
((lp4135
S'libcryptoopenssl-OpenSSL_1_0_2e'
p4136
aS'libcryptoopenssl-OpenSSL_1_0_1j'
p4137
aS'libcryptoopenssl-OpenSSL_1_0_0n'
p4138
aS'libcryptoopenssl-OpenSSL_1_0_2q'
p4139
aS'libcryptoopenssl-OpenSSL_1_0_1'
p4140
aS'libcryptoopenssl-OpenSSL_1_0_0'
p4141
aS'libcryptoopenssl-OpenSSL_1_0_0l'
p4142
aS'libcryptoopenssl-OpenSSL_1_0_2b'
p4143
aS'libcryptoopenssl-OpenSSL_1_0_0m'
p4144
aS'libcryptoopenssl-OpenSSL_1_0_0t'
p4145
aS'libcryptoopenssl-OpenSSL_1_0_2i'
p4146
aS'libcryptoopenssl-OpenSSL_1_0_0p'
p4147
aS'libcryptoopenssl-OpenSSL_1_0_0q'
p4148
aS'libcryptoopenssl-OpenSSL_1_0_0r'
p4149
aS'libcryptoopenssl-OpenSSL_1_0_0s'
p4150
aS'libcryptoopenssl-OpenSSL_1_0_2f'
p4151
aS'libcryptoopenssl-OpenSSL_1_0_2g'
p4152
aS'libcryptoopenssl-OpenSSL_1_0_2d'
p4153
aS'libcryptoopenssl-OpenSSL_1_0_0o'
p4154
aS'libcryptoopenssl-OpenSSL_1_0_0h'
p4155
aS'libcryptoopenssl-OpenSSL_1_0_2c'
p4156
aS'libcryptoopenssl-OpenSSL_1_0_0j'
p4157
aS'libcryptoopenssl-OpenSSL_1_0_2a'
p4158
aS'libcryptoopenssl-OpenSSL_1_0_2n'
p4159
aS'libcryptoopenssl-OpenSSL_1_0_2o'
p4160
aS'libcryptoopenssl-OpenSSL_1_0_0f'
p4161
aS'libcryptoopenssl-OpenSSL_1_0_0g'
p4162
aS'libcryptoopenssl-OpenSSL_1_0_2j'
p4163
aS'libcryptoopenssl-OpenSSL_1_0_0a'
p4164
aS'libcryptoopenssl-OpenSSL_1_0_0b'
p4165
aS'libcryptoopenssl-OpenSSL_1_0_0c'
p4166
aS'libcryptoopenssl-OpenSSL_0_9_8t'
p4167
aS'libcryptoopenssl-OpenSSL_0_9_8u'
p4168
aS'libcryptoopenssl-OpenSSL_0_9_8v'
p4169
aS'libcryptoopenssl-OpenSSL_0_9_8w'
p4170
aS'libcryptoopenssl-OpenSSL_0_9_8p'
p4171
aS'libcryptoopenssl-OpenSSL_0_9_8q'
p4172
aS'libcryptoopenssl-OpenSSL_0_9_8r'
p4173
aS'libcryptoopenssl-OpenSSL_0_9_8s'
p4174
aS'libcryptoopenssl-OpenSSL_1_0_0k'
p4175
aS'libcryptoopenssl-OpenSSL_0_9_8x'
p4176
aS'libcryptoopenssl-OpenSSL_0_9_8y'
p4177
aS'libcryptoopenssl-OpenSSL_1_0_0d'
p4178
aS'libcryptoopenssl-OpenSSL_1_0_0e'
p4179
aS'libcryptoopenssl-OpenSSL_0_9_8m'
p4180
aS'libcryptoopenssl-OpenSSL_0_9_8n'
p4181
aS'libcryptoopenssl-OpenSSL_0_9_8o'
p4182
aS'libcryptoopenssl-OpenSSL_1_0_2'
p4183
aS'libcryptoopenssl-OpenSSL_1_0_2l'
p4184
aS'libcryptoopenssl-OpenSSL_1_0_2k'
p4185
aS'libcryptoopenssl-OpenSSL_1_0_0i'
p4186
aS'libcryptoopenssl-OpenSSL_1_0_2m'
p4187
aS'libcryptoopenssl-OpenSSL_1_0_1t'
p4188
aS'libcryptoopenssl-OpenSSL_1_0_1s'
p4189
aS'libcryptoopenssl-OpenSSL_1_0_1r'
p4190
aS'libcryptoopenssl-OpenSSL_1_0_1q'
p4191
aS'libcryptoopenssl-OpenSSL_1_0_1p'
p4192
aS'libcryptoopenssl-OpenSSL_1_0_1o'
p4193
aS'libcryptoopenssl-OpenSSL_1_0_1n'
p4194
aS'libcryptoopenssl-OpenSSL_1_0_1m'
p4195
aS'libcryptoopenssl-OpenSSL_1_0_1l'
p4196
aS'libcryptoopenssl-OpenSSL_1_0_1k'
p4197
aS'libcryptoopenssl-OpenSSL_1_0_2h'
p4198
aS'libcryptoopenssl-OpenSSL_1_0_1i'
p4199
aS'libcryptoopenssl-OpenSSL_1_0_1h'
p4200
aS'libcryptoopenssl-OpenSSL_1_0_1g'
p4201
aS'libcryptoopenssl-OpenSSL_1_0_1f'
p4202
aS'libcryptoopenssl-OpenSSL_1_0_1e'
p4203
aS'libcryptoopenssl-OpenSSL_1_0_1d'
p4204
aS'libcryptoopenssl-OpenSSL_1_0_1c'
p4205
aS'libcryptoopenssl-OpenSSL_1_0_1b'
p4206
aS'libcryptoopenssl-OpenSSL_1_0_1a'
p4207
atp4208
Rp4209
sS'ec_GF2m_simple_group_set_curve'
p4210
g2
((lp4211
tp4212
Rp4213
sS'UI_process'
p4214
g2
((lp4215
S'libcryptoopenssl-OpenSSL_0_9_8t'
p4216
aS'libcryptoopenssl-OpenSSL_0_9_8u'
p4217
aS'libcryptoopenssl-OpenSSL_0_9_8v'
p4218
aS'libcryptoopenssl-OpenSSL_0_9_8w'
p4219
aS'libcryptoopenssl-OpenSSL_0_9_8s'
p4220
aS'libcryptoopenssl-OpenSSL_0_9_8x'
p4221
aS'libcryptoopenssl-OpenSSL_0_9_8y'
p4222
atp4223
Rp4224
sS'BN_mod_exp_mont_word'
p4225
g2
((lp4226
tp4227
Rp4228
sS'X509_NAME_get_index_by_OBJ'
p4229
g2
((lp4230
S'libcryptoopenssl-OpenSSL_0_9_8t'
p4231
aS'libcryptoopenssl-OpenSSL_0_9_8u'
p4232
aS'libcryptoopenssl-OpenSSL_0_9_8v'
p4233
aS'libcryptoopenssl-OpenSSL_0_9_8w'
p4234
aS'libcryptoopenssl-OpenSSL_0_9_8s'
p4235
aS'libcryptoopenssl-OpenSSL_0_9_8x'
p4236
aS'libcryptoopenssl-OpenSSL_0_9_8y'
p4237
atp4238
Rp4239
sS'BN_clear_free'
p4240
g2
((lp4241
tp4242
Rp4243
sS'BN_free'
p4244
g2
((lp4245
tp4246
Rp4247
sS'CRYPTO_malloc'
p4248
g2
((lp4249
tp4250
Rp4251
sS'dsa_finish'
p4252
g2
((lp4253
tp4254
Rp4255
sS'sha256_block_data_order'
p4256
g2
((lp4257
S'libcryptoopenssl-OpenSSL_0_9_8t'
p4258
aS'libcryptoopenssl-OpenSSL_0_9_8u'
p4259
aS'libcryptoopenssl-OpenSSL_0_9_8v'
p4260
aS'libcryptoopenssl-OpenSSL_0_9_8w'
p4261
aS'libcryptoopenssl-OpenSSL_0_9_8p'
p4262
aS'libcryptoopenssl-OpenSSL_0_9_8q'
p4263
aS'libcryptoopenssl-OpenSSL_0_9_8r'
p4264
aS'libcryptoopenssl-OpenSSL_0_9_8s'
p4265
aS'libcryptoopenssl-OpenSSL_0_9_8x'
p4266
aS'libcryptoopenssl-OpenSSL_0_9_8y'
p4267
aS'libcryptoopenssl-OpenSSL_0_9_8m'
p4268
aS'libcryptoopenssl-OpenSSL_0_9_8n'
p4269
aS'libcryptoopenssl-OpenSSL_0_9_8o'
p4270
atp4271
Rp4272
sS'add_hash'
p4273
g2
((lp4274
S'libcryptoopenssl-OpenSSL_0_9_8t'
p4275
aS'libcryptoopenssl-OpenSSL_0_9_8u'
p4276
aS'libcryptoopenssl-OpenSSL_0_9_8v'
p4277
aS'libcryptoopenssl-OpenSSL_0_9_8w'
p4278
aS'libcryptoopenssl-OpenSSL_0_9_8p'
p4279
aS'libcryptoopenssl-OpenSSL_0_9_8q'
p4280
aS'libcryptoopenssl-OpenSSL_0_9_8r'
p4281
aS'libcryptoopenssl-OpenSSL_0_9_8s'
p4282
aS'libcryptoopenssl-OpenSSL_0_9_8x'
p4283
aS'libcryptoopenssl-OpenSSL_0_9_8y'
p4284
aS'libcryptoopenssl-OpenSSL_0_9_8e'
p4285
aS'libcryptoopenssl-OpenSSL_0_9_8f'
p4286
aS'libcryptoopenssl-OpenSSL_0_9_8g'
p4287
aS'libcryptoopenssl-OpenSSL_0_9_8l'
p4288
aS'libcryptoopenssl-OpenSSL_0_9_8m'
p4289
aS'libcryptoopenssl-OpenSSL_0_9_8n'
p4290
aS'libcryptoopenssl-OpenSSL_0_9_8o'
p4291
aS'libcryptoopenssl-OpenSSL_0_9_8h'
p4292
aS'libcryptoopenssl-OpenSSL_0_9_8i'
p4293
aS'libcryptoopenssl-OpenSSL_0_9_8j'
p4294
aS'libcryptoopenssl-OpenSSL_0_9_8k'
p4295
atp4296
Rp4297
sS'ec_GF2m_simple_group_copy'
p4298
g2
((lp4299
tp4300
Rp4301
sS'aes_128_ecb_cipher'
p4302
g2
((lp4303
S'libcryptoopenssl-OpenSSL_0_9_7m'
p4304
aS'libcryptoopenssl-OpenSSL_0_9_7l'
p4305
aS'libcryptoopenssl-OpenSSL_0_9_7i'
p4306
aS'libcryptoopenssl-OpenSSL_0_9_7h'
p4307
aS'libcryptoopenssl-OpenSSL_0_9_7k'
p4308
aS'libcryptoopenssl-OpenSSL_0_9_7j'
p4309
aS'libcryptoopenssl-OpenSSL_0_9_7e'
p4310
aS'libcryptoopenssl-OpenSSL_0_9_7d'
p4311
aS'libcryptoopenssl-OpenSSL_0_9_7g'
p4312
aS'libcryptoopenssl-OpenSSL_0_9_7f'
p4313
aS'libcryptoopenssl-OpenSSL_0_9_7a'
p4314
aS'libcryptoopenssl-OpenSSL_0_9_7c'
p4315
aS'libcryptoopenssl-OpenSSL_0_9_7b'
p4316
aS'libcryptoopenssl-OpenSSL_0_9_8t'
p4317
aS'libcryptoopenssl-OpenSSL_0_9_8u'
p4318
aS'libcryptoopenssl-OpenSSL_0_9_8v'
p4319
aS'libcryptoopenssl-OpenSSL_0_9_8w'
p4320
aS'libcryptoopenssl-OpenSSL_0_9_8p'
p4321
aS'libcryptoopenssl-OpenSSL_0_9_8q'
p4322
aS'libcryptoopenssl-OpenSSL_0_9_8r'
p4323
aS'libcryptoopenssl-OpenSSL_0_9_8s'
p4324
aS'libcryptoopenssl-OpenSSL_0_9_8x'
p4325
aS'libcryptoopenssl-OpenSSL_0_9_8y'
p4326
aS'libcryptoopenssl-OpenSSL_0_9_8d'
p4327
aS'libcryptoopenssl-OpenSSL_0_9_8e'
p4328
aS'libcryptoopenssl-OpenSSL_0_9_8f'
p4329
aS'libcryptoopenssl-OpenSSL_0_9_8g'
p4330
aS'libcryptoopenssl-OpenSSL_0_9_8a'
p4331
aS'libcryptoopenssl-OpenSSL_0_9_8b'
p4332
aS'libcryptoopenssl-OpenSSL_0_9_8c'
p4333
aS'libcryptoopenssl-OpenSSL_0_9_8l'
p4334
aS'libcryptoopenssl-OpenSSL_0_9_8m'
p4335
aS'libcryptoopenssl-OpenSSL_0_9_8n'
p4336
aS'libcryptoopenssl-OpenSSL_0_9_8o'
p4337
aS'libcryptoopenssl-OpenSSL_0_9_8h'
p4338
aS'libcryptoopenssl-OpenSSL_0_9_8i'
p4339
aS'libcryptoopenssl-OpenSSL_0_9_8j'
p4340
aS'libcryptoopenssl-OpenSSL_0_9_8k'
p4341
aS'libcryptoopenssl-OpenSSL_0_9_8'
p4342
aS'libcryptoopenssl-OpenSSL_0_9_7'
p4343
atp4344
Rp4345
sS'buffer_free'
p4346
g2
((lp4347
tp4348
Rp4349
sS'X509_STORE_set_default_paths'
p4350
g2
((lp4351
S'libcryptoopenssl-OpenSSL_1_0_2'
p4352
aS'libcryptoopenssl-OpenSSL_1_0_1'
p4353
aS'libcryptoopenssl-OpenSSL_1_0_0'
p4354
aS'libcryptoopenssl-OpenSSL_1_0_0t'
p4355
aS'libcryptoopenssl-OpenSSL_1_0_0p'
p4356
aS'libcryptoopenssl-OpenSSL_1_0_0q'
p4357
aS'libcryptoopenssl-OpenSSL_1_0_0r'
p4358
aS'libcryptoopenssl-OpenSSL_1_0_0s'
p4359
aS'libcryptoopenssl-OpenSSL_1_0_0l'
p4360
aS'libcryptoopenssl-OpenSSL_1_0_0m'
p4361
aS'libcryptoopenssl-OpenSSL_1_0_0n'
p4362
aS'libcryptoopenssl-OpenSSL_1_0_0o'
p4363
aS'libcryptoopenssl-OpenSSL_1_0_0h'
p4364
aS'libcryptoopenssl-OpenSSL_1_0_0i'
p4365
aS'libcryptoopenssl-OpenSSL_1_0_0j'
p4366
aS'libcryptoopenssl-OpenSSL_1_0_0k'
p4367
aS'libcryptoopenssl-OpenSSL_1_0_0d'
p4368
aS'libcryptoopenssl-OpenSSL_1_0_0e'
p4369
aS'libcryptoopenssl-OpenSSL_1_0_0f'
p4370
aS'libcryptoopenssl-OpenSSL_1_0_0g'
p4371
aS'libcryptoopenssl-OpenSSL_1_0_0a'
p4372
aS'libcryptoopenssl-OpenSSL_1_0_0b'
p4373
aS'libcryptoopenssl-OpenSSL_1_0_0c'
p4374
aS'libcryptoopenssl-OpenSSL_0_9_8t'
p4375
aS'libcryptoopenssl-OpenSSL_0_9_8u'
p4376
aS'libcryptoopenssl-OpenSSL_0_9_8v'
p4377
aS'libcryptoopenssl-OpenSSL_0_9_8w'
p4378
aS'libcryptoopenssl-OpenSSL_0_9_8p'
p4379
aS'libcryptoopenssl-OpenSSL_0_9_8q'
p4380
aS'libcryptoopenssl-OpenSSL_0_9_8r'
p4381
aS'libcryptoopenssl-OpenSSL_0_9_8s'
p4382
aS'libcryptoopenssl-OpenSSL_0_9_8x'
p4383
aS'libcryptoopenssl-OpenSSL_0_9_8y'
p4384
aS'libcryptoopenssl-OpenSSL_0_9_8d'
p4385
aS'libcryptoopenssl-OpenSSL_0_9_8e'
p4386
aS'libcryptoopenssl-OpenSSL_0_9_8f'
p4387
aS'libcryptoopenssl-OpenSSL_0_9_8g'
p4388
aS'libcryptoopenssl-OpenSSL_0_9_8a'
p4389
aS'libcryptoopenssl-OpenSSL_0_9_8b'
p4390
aS'libcryptoopenssl-OpenSSL_0_9_8c'
p4391
aS'libcryptoopenssl-OpenSSL_0_9_8l'
p4392
aS'libcryptoopenssl-OpenSSL_0_9_8m'
p4393
aS'libcryptoopenssl-OpenSSL_0_9_8n'
p4394
aS'libcryptoopenssl-OpenSSL_0_9_8o'
p4395
aS'libcryptoopenssl-OpenSSL_0_9_8h'
p4396
aS'libcryptoopenssl-OpenSSL_0_9_8i'
p4397
aS'libcryptoopenssl-OpenSSL_0_9_8j'
p4398
aS'libcryptoopenssl-OpenSSL_0_9_8k'
p4399
aS'libcryptoopenssl-OpenSSL_1_0_1t'
p4400
aS'libcryptoopenssl-OpenSSL_1_0_1s'
p4401
aS'libcryptoopenssl-OpenSSL_1_0_1r'
p4402
aS'libcryptoopenssl-OpenSSL_1_0_1q'
p4403
aS'libcryptoopenssl-OpenSSL_1_0_1p'
p4404
aS'libcryptoopenssl-OpenSSL_1_0_1o'
p4405
aS'libcryptoopenssl-OpenSSL_1_0_1n'
p4406
aS'libcryptoopenssl-OpenSSL_1_0_1m'
p4407
aS'libcryptoopenssl-OpenSSL_1_0_1l'
p4408
aS'libcryptoopenssl-OpenSSL_1_0_1k'
p4409
aS'libcryptoopenssl-OpenSSL_1_0_1j'
p4410
aS'libcryptoopenssl-OpenSSL_1_0_1i'
p4411
aS'libcryptoopenssl-OpenSSL_1_0_1h'
p4412
aS'libcryptoopenssl-OpenSSL_1_0_1g'
p4413
aS'libcryptoopenssl-OpenSSL_1_0_1f'
p4414
aS'libcryptoopenssl-OpenSSL_1_0_1e'
p4415
aS'libcryptoopenssl-OpenSSL_1_0_1d'
p4416
aS'libcryptoopenssl-OpenSSL_1_0_1c'
p4417
aS'libcryptoopenssl-OpenSSL_1_0_1b'
p4418
aS'libcryptoopenssl-OpenSSL_1_0_1a'
p4419
aS'libcryptoopenssl-OpenSSL_1_1_0'
p4420
aS'libcryptoopenssl-OpenSSL_1_0_2q'
p4421
aS'libcryptoopenssl-OpenSSL_1_0_2f'
p4422
aS'libcryptoopenssl-OpenSSL_1_0_2g'
p4423
aS'libcryptoopenssl-OpenSSL_1_0_2d'
p4424
aS'libcryptoopenssl-OpenSSL_1_0_2e'
p4425
aS'libcryptoopenssl-OpenSSL_1_0_2b'
p4426
aS'libcryptoopenssl-OpenSSL_1_0_2c'
p4427
aS'libcryptoopenssl-OpenSSL_1_0_2a'
p4428
aS'libcryptoopenssl-OpenSSL_1_0_2n'
p4429
aS'libcryptoopenssl-OpenSSL_1_0_2o'
p4430
aS'libcryptoopenssl-OpenSSL_1_0_2l'
p4431
aS'libcryptoopenssl-OpenSSL_1_0_2m'
p4432
aS'libcryptoopenssl-OpenSSL_1_0_2j'
p4433
aS'libcryptoopenssl-OpenSSL_1_0_2k'
p4434
aS'libcryptoopenssl-OpenSSL_1_0_2h'
p4435
aS'libcryptoopenssl-OpenSSL_1_0_2i'
p4436
aS'libcryptoopenssl-OpenSSL_0_9_7m'
p4437
aS'libcryptoopenssl-OpenSSL_0_9_7l'
p4438
aS'libcryptoopenssl-OpenSSL_0_9_7i'
p4439
aS'libcryptoopenssl-OpenSSL_0_9_7h'
p4440
aS'libcryptoopenssl-OpenSSL_0_9_7k'
p4441
aS'libcryptoopenssl-OpenSSL_0_9_7j'
p4442
aS'libcryptoopenssl-OpenSSL_0_9_7e'
p4443
aS'libcryptoopenssl-OpenSSL_0_9_7d'
p4444
aS'libcryptoopenssl-OpenSSL_0_9_7g'
p4445
aS'libcryptoopenssl-OpenSSL_0_9_7f'
p4446
aS'libcryptoopenssl-OpenSSL_0_9_7a'
p4447
aS'libcryptoopenssl-OpenSSL_0_9_7c'
p4448
aS'libcryptoopenssl-OpenSSL_0_9_7b'
p4449
aS'libcryptoopenssl-OpenSSL_1_1_0g'
p4450
aS'libcryptoopenssl-OpenSSL_1_1_0f'
p4451
aS'libcryptoopenssl-OpenSSL_1_1_0e'
p4452
aS'libcryptoopenssl-OpenSSL_1_1_0d'
p4453
aS'libcryptoopenssl-OpenSSL_1_1_0c'
p4454
aS'libcryptoopenssl-OpenSSL_1_1_0b'
p4455
aS'libcryptoopenssl-OpenSSL_1_1_0a'
p4456
aS'libcryptoopenssl-OpenSSL_1_1_0h'
p4457
aS'libcryptoopenssl-OpenSSL_0_9_8'
p4458
aS'libcryptoopenssl-OpenSSL_0_9_7'
p4459
atp4460
Rp4461
sS'SHA384_Update'
p4462
g2
((lp4463
S'libcryptoopenssl-OpenSSL_0_9_8t'
p4464
aS'libcryptoopenssl-OpenSSL_0_9_8u'
p4465
aS'libcryptoopenssl-OpenSSL_0_9_8v'
p4466
aS'libcryptoopenssl-OpenSSL_0_9_8w'
p4467
aS'libcryptoopenssl-OpenSSL_0_9_8p'
p4468
aS'libcryptoopenssl-OpenSSL_0_9_8q'
p4469
aS'libcryptoopenssl-OpenSSL_0_9_8r'
p4470
aS'libcryptoopenssl-OpenSSL_0_9_8s'
p4471
aS'libcryptoopenssl-OpenSSL_0_9_8x'
p4472
aS'libcryptoopenssl-OpenSSL_0_9_8y'
p4473
aS'libcryptoopenssl-OpenSSL_0_9_8m'
p4474
aS'libcryptoopenssl-OpenSSL_0_9_8n'
p4475
aS'libcryptoopenssl-OpenSSL_0_9_8o'
p4476
atp4477
Rp4478
sS'SXNET_get_id_INTEGER'
p4479
g2
((lp4480
S'libcryptoopenssl-OpenSSL_0_9_8t'
p4481
aS'libcryptoopenssl-OpenSSL_0_9_8u'
p4482
aS'libcryptoopenssl-OpenSSL_0_9_8v'
p4483
aS'libcryptoopenssl-OpenSSL_0_9_8w'
p4484
aS'libcryptoopenssl-OpenSSL_0_9_8s'
p4485
aS'libcryptoopenssl-OpenSSL_0_9_8x'
p4486
aS'libcryptoopenssl-OpenSSL_0_9_8y'
p4487
atp4488
Rp4489
sS'dtls1_clear_queues.isra.1'
p4490
g2
((lp4491
S'libsslopenssl-OpenSSL_1_0_1'
p4492
aS'libsslopenssl-OpenSSL_1_0_1e'
p4493
aS'libsslopenssl-OpenSSL_1_0_1g'
p4494
aS'libsslopenssl-OpenSSL_1_0_1f'
p4495
aS'libsslopenssl-OpenSSL_1_0_0f'
p4496
aS'libsslopenssl-OpenSSL_1_0_1d'
p4497
aS'libsslopenssl-OpenSSL_1_0_1c'
p4498
aS'libsslopenssl-OpenSSL_1_0_1b'
p4499
aS'libsslopenssl-OpenSSL_1_0_1a'
p4500
aS'libsslopenssl-OpenSSL_1_0_0l'
p4501
aS'libsslopenssl-OpenSSL_1_0_0g'
p4502
aS'libsslopenssl-OpenSSL_1_0_0k'
p4503
atp4504
Rp4505
sS'X509_PKEY_free'
p4506
g2
((lp4507
tp4508
Rp4509
sS'CAST_ecb_encrypt'
p4510
g2
((lp4511
S'libcryptoopenssl-OpenSSL_0_9_7m'
p4512
aS'libcryptoopenssl-OpenSSL_0_9_7l'
p4513
aS'libcryptoopenssl-OpenSSL_0_9_7i'
p4514
aS'libcryptoopenssl-OpenSSL_0_9_7h'
p4515
aS'libcryptoopenssl-OpenSSL_0_9_7k'
p4516
aS'libcryptoopenssl-OpenSSL_0_9_7j'
p4517
aS'libcryptoopenssl-OpenSSL_0_9_7e'
p4518
aS'libcryptoopenssl-OpenSSL_0_9_7d'
p4519
aS'libcryptoopenssl-OpenSSL_0_9_7g'
p4520
aS'libcryptoopenssl-OpenSSL_0_9_7f'
p4521
aS'libcryptoopenssl-OpenSSL_0_9_7a'
p4522
aS'libcryptoopenssl-OpenSSL_0_9_7c'
p4523
aS'libcryptoopenssl-OpenSSL_0_9_7b'
p4524
aS'libcryptoopenssl-OpenSSL_0_9_8t'
p4525
aS'libcryptoopenssl-OpenSSL_0_9_8u'
p4526
aS'libcryptoopenssl-OpenSSL_0_9_8v'
p4527
aS'libcryptoopenssl-OpenSSL_0_9_8w'
p4528
aS'libcryptoopenssl-OpenSSL_0_9_8p'
p4529
aS'libcryptoopenssl-OpenSSL_0_9_8q'
p4530
aS'libcryptoopenssl-OpenSSL_0_9_8r'
p4531
aS'libcryptoopenssl-OpenSSL_0_9_8s'
p4532
aS'libcryptoopenssl-OpenSSL_0_9_8x'
p4533
aS'libcryptoopenssl-OpenSSL_0_9_8y'
p4534
aS'libcryptoopenssl-OpenSSL_0_9_8d'
p4535
aS'libcryptoopenssl-OpenSSL_0_9_8e'
p4536
aS'libcryptoopenssl-OpenSSL_0_9_8f'
p4537
aS'libcryptoopenssl-OpenSSL_0_9_8g'
p4538
aS'libcryptoopenssl-OpenSSL_0_9_8a'
p4539
aS'libcryptoopenssl-OpenSSL_0_9_8b'
p4540
aS'libcryptoopenssl-OpenSSL_0_9_8c'
p4541
aS'libcryptoopenssl-OpenSSL_0_9_8l'
p4542
aS'libcryptoopenssl-OpenSSL_0_9_8m'
p4543
aS'libcryptoopenssl-OpenSSL_0_9_8n'
p4544
aS'libcryptoopenssl-OpenSSL_0_9_8o'
p4545
aS'libcryptoopenssl-OpenSSL_0_9_8h'
p4546
aS'libcryptoopenssl-OpenSSL_0_9_8i'
p4547
aS'libcryptoopenssl-OpenSSL_0_9_8j'
p4548
aS'libcryptoopenssl-OpenSSL_0_9_8k'
p4549
aS'libcryptoopenssl-OpenSSL_0_9_8'
p4550
aS'libcryptoopenssl-OpenSSL_0_9_7'
p4551
atp4552
Rp4553
sS'EVP_PKEY_type'
p4554
g2
((lp4555
S'libcryptoopenssl-OpenSSL_0_9_8t'
p4556
aS'libcryptoopenssl-OpenSSL_0_9_8u'
p4557
aS'libcryptoopenssl-OpenSSL_0_9_8v'
p4558
aS'libcryptoopenssl-OpenSSL_0_9_8w'
p4559
aS'libcryptoopenssl-OpenSSL_0_9_8p'
p4560
aS'libcryptoopenssl-OpenSSL_0_9_8q'
p4561
aS'libcryptoopenssl-OpenSSL_0_9_8r'
p4562
aS'libcryptoopenssl-OpenSSL_0_9_8s'
p4563
aS'libcryptoopenssl-OpenSSL_0_9_8x'
p4564
aS'libcryptoopenssl-OpenSSL_0_9_8y'
p4565
aS'libcryptoopenssl-OpenSSL_0_9_8e'
p4566
aS'libcryptoopenssl-OpenSSL_0_9_8f'
p4567
aS'libcryptoopenssl-OpenSSL_0_9_8g'
p4568
aS'libcryptoopenssl-OpenSSL_0_9_8l'
p4569
aS'libcryptoopenssl-OpenSSL_0_9_8m'
p4570
aS'libcryptoopenssl-OpenSSL_0_9_8n'
p4571
aS'libcryptoopenssl-OpenSSL_0_9_8o'
p4572
aS'libcryptoopenssl-OpenSSL_0_9_8h'
p4573
aS'libcryptoopenssl-OpenSSL_0_9_8i'
p4574
aS'libcryptoopenssl-OpenSSL_0_9_8j'
p4575
aS'libcryptoopenssl-OpenSSL_0_9_8k'
p4576
atp4577
Rp4578
sS'RIPEMD160_Update'
p4579
g2
((lp4580
S'libcryptoopenssl-OpenSSL_1_0_2e'
p4581
aS'libcryptoopenssl-OpenSSL_1_1_0'
p4582
aS'libcryptoopenssl-OpenSSL_1_0_0l'
p4583
aS'libcryptoopenssl-OpenSSL_1_0_1j'
p4584
aS'libcryptoopenssl-OpenSSL_1_0_0n'
p4585
aS'libcryptoopenssl-OpenSSL_1_1_0h'
p4586
aS'libcryptoopenssl-OpenSSL_1_0_2q'
p4587
aS'libcryptoopenssl-OpenSSL_1_0_1'
p4588
aS'libcryptoopenssl-OpenSSL_0_9_8q'
p4589
aS'libcryptoopenssl-OpenSSL_1_1_0g'
p4590
aS'libcryptoopenssl-OpenSSL_1_0_2b'
p4591
aS'libcryptoopenssl-OpenSSL_1_0_0m'
p4592
aS'libcryptoopenssl-OpenSSL_1_0_0t'
p4593
aS'libcryptoopenssl-OpenSSL_1_0_2i'
p4594
aS'libcryptoopenssl-OpenSSL_1_0_0p'
p4595
aS'libcryptoopenssl-OpenSSL_1_1_0e'
p4596
aS'libcryptoopenssl-OpenSSL_1_0_0r'
p4597
aS'libcryptoopenssl-OpenSSL_1_0_0s'
p4598
aS'libcryptoopenssl-OpenSSL_1_0_2f'
p4599
aS'libcryptoopenssl-OpenSSL_1_0_2g'
p4600
aS'libcryptoopenssl-OpenSSL_1_0_2d'
p4601
aS'libcryptoopenssl-OpenSSL_1_0_0o'
p4602
aS'libcryptoopenssl-OpenSSL_1_1_0c'
p4603
aS'libcryptoopenssl-OpenSSL_1_1_0b'
p4604
aS'libcryptoopenssl-OpenSSL_1_1_0a'
p4605
aS'libcryptoopenssl-OpenSSL_1_0_2a'
p4606
aS'libcryptoopenssl-OpenSSL_1_0_2n'
p4607
aS'libcryptoopenssl-OpenSSL_1_0_2o'
p4608
aS'libcryptoopenssl-OpenSSL_1_0_0f'
p4609
aS'libcryptoopenssl-OpenSSL_1_0_0g'
p4610
aS'libcryptoopenssl-OpenSSL_1_0_2j'
p4611
aS'libcryptoopenssl-OpenSSL_1_0_0a'
p4612
aS'libcryptoopenssl-OpenSSL_1_0_0b'
p4613
aS'libcryptoopenssl-OpenSSL_1_0_2c'
p4614
aS'libcryptoopenssl-OpenSSL_0_9_8t'
p4615
aS'libcryptoopenssl-OpenSSL_0_9_8u'
p4616
aS'libcryptoopenssl-OpenSSL_0_9_8v'
p4617
aS'libcryptoopenssl-OpenSSL_0_9_8w'
p4618
aS'libcryptoopenssl-OpenSSL_0_9_8p'
p4619
aS'libcryptoopenssl-OpenSSL_1_0_0j'
p4620
aS'libcryptoopenssl-OpenSSL_0_9_8r'
p4621
aS'libcryptoopenssl-OpenSSL_0_9_8s'
p4622
aS'libcryptoopenssl-OpenSSL_1_0_2k'
p4623
aS'libcryptoopenssl-OpenSSL_1_0_0c'
p4624
aS'libcryptoopenssl-OpenSSL_1_0_0k'
p4625
aS'libcryptoopenssl-OpenSSL_0_9_8x'
p4626
aS'libcryptoopenssl-OpenSSL_0_9_8y'
p4627
aS'libcryptoopenssl-OpenSSL_1_0_0d'
p4628
aS'libcryptoopenssl-OpenSSL_1_0_2l'
p4629
aS'libcryptoopenssl-OpenSSL_1_0_0e'
p4630
aS'libcryptoopenssl-OpenSSL_0_9_8m'
p4631
aS'libcryptoopenssl-OpenSSL_0_9_8n'
p4632
aS'libcryptoopenssl-OpenSSL_0_9_8o'
p4633
aS'libcryptoopenssl-OpenSSL_1_0_2'
p4634
aS'libcryptoopenssl-OpenSSL_1_1_0d'
p4635
aS'libcryptoopenssl-OpenSSL_1_0_0'
p4636
aS'libcryptoopenssl-OpenSSL_1_0_0i'
p4637
aS'libcryptoopenssl-OpenSSL_1_0_2m'
p4638
aS'libcryptoopenssl-OpenSSL_1_1_0f'
p4639
aS'libcryptoopenssl-OpenSSL_1_0_0q'
p4640
aS'libcryptoopenssl-OpenSSL_1_0_1t'
p4641
aS'libcryptoopenssl-OpenSSL_1_0_1s'
p4642
aS'libcryptoopenssl-OpenSSL_1_0_1r'
p4643
aS'libcryptoopenssl-OpenSSL_1_0_1q'
p4644
aS'libcryptoopenssl-OpenSSL_1_0_1p'
p4645
aS'libcryptoopenssl-OpenSSL_1_0_1o'
p4646
aS'libcryptoopenssl-OpenSSL_1_0_1n'
p4647
aS'libcryptoopenssl-OpenSSL_1_0_1m'
p4648
aS'libcryptoopenssl-OpenSSL_1_0_1l'
p4649
aS'libcryptoopenssl-OpenSSL_1_0_1k'
p4650
aS'libcryptoopenssl-OpenSSL_1_0_2h'
p4651
aS'libcryptoopenssl-OpenSSL_1_0_1i'
p4652
aS'libcryptoopenssl-OpenSSL_1_0_1h'
p4653
aS'libcryptoopenssl-OpenSSL_1_0_1g'
p4654
aS'libcryptoopenssl-OpenSSL_1_0_1f'
p4655
aS'libcryptoopenssl-OpenSSL_1_0_1e'
p4656
aS'libcryptoopenssl-OpenSSL_1_0_1d'
p4657
aS'libcryptoopenssl-OpenSSL_1_0_1c'
p4658
aS'libcryptoopenssl-OpenSSL_1_0_1b'
p4659
aS'libcryptoopenssl-OpenSSL_1_0_1a'
p4660
aS'libcryptoopenssl-OpenSSL_1_0_0h'
p4661
atp4662
Rp4663
sS'MD2_Final'
p4664
g2
((lp4665
S'libcryptoopenssl-OpenSSL_0_9_8t'
p4666
aS'libcryptoopenssl-OpenSSL_0_9_8u'
p4667
aS'libcryptoopenssl-OpenSSL_0_9_8v'
p4668
aS'libcryptoopenssl-OpenSSL_0_9_8w'
p4669
aS'libcryptoopenssl-OpenSSL_0_9_8p'
p4670
aS'libcryptoopenssl-OpenSSL_0_9_8q'
p4671
aS'libcryptoopenssl-OpenSSL_0_9_8r'
p4672
aS'libcryptoopenssl-OpenSSL_0_9_8s'
p4673
aS'libcryptoopenssl-OpenSSL_0_9_8x'
p4674
aS'libcryptoopenssl-OpenSSL_0_9_8y'
p4675
aS'libcryptoopenssl-OpenSSL_0_9_8d'
p4676
aS'libcryptoopenssl-OpenSSL_0_9_8f'
p4677
aS'libcryptoopenssl-OpenSSL_0_9_8g'
p4678
aS'libcryptoopenssl-OpenSSL_0_9_8a'
p4679
aS'libcryptoopenssl-OpenSSL_0_9_8b'
p4680
aS'libcryptoopenssl-OpenSSL_0_9_8l'
p4681
aS'libcryptoopenssl-OpenSSL_0_9_8m'
p4682
aS'libcryptoopenssl-OpenSSL_0_9_8n'
p4683
aS'libcryptoopenssl-OpenSSL_0_9_8o'
p4684
aS'libcryptoopenssl-OpenSSL_0_9_8h'
p4685
aS'libcryptoopenssl-OpenSSL_0_9_8i'
p4686
aS'libcryptoopenssl-OpenSSL_0_9_8j'
p4687
aS'libcryptoopenssl-OpenSSL_0_9_8k'
p4688
aS'libcryptoopenssl-OpenSSL_0_9_8'
p4689
atp4690
Rp4691
sS'EC_EX_DATA_clear_free_data'
p4692
g2
((lp4693
tp4694
Rp4695
sS'OCSP_resp_find'
p4696
g2
((lp4697
S'libcryptoopenssl-OpenSSL_0_9_8t'
p4698
aS'libcryptoopenssl-OpenSSL_0_9_8u'
p4699
aS'libcryptoopenssl-OpenSSL_0_9_8v'
p4700
aS'libcryptoopenssl-OpenSSL_0_9_8w'
p4701
aS'libcryptoopenssl-OpenSSL_0_9_8s'
p4702
aS'libcryptoopenssl-OpenSSL_0_9_8x'
p4703
aS'libcryptoopenssl-OpenSSL_0_9_8y'
p4704
atp4705
Rp4706
sS'AES_ofb128_encrypt'
p4707
g2
((lp4708
S'libcryptoopenssl-OpenSSL_0_9_8t'
p4709
aS'libcryptoopenssl-OpenSSL_0_9_8u'
p4710
aS'libcryptoopenssl-OpenSSL_0_9_8v'
p4711
aS'libcryptoopenssl-OpenSSL_0_9_8w'
p4712
aS'libcryptoopenssl-OpenSSL_0_9_8p'
p4713
aS'libcryptoopenssl-OpenSSL_0_9_8q'
p4714
aS'libcryptoopenssl-OpenSSL_0_9_8r'
p4715
aS'libcryptoopenssl-OpenSSL_0_9_8s'
p4716
aS'libcryptoopenssl-OpenSSL_0_9_8x'
p4717
aS'libcryptoopenssl-OpenSSL_0_9_8y'
p4718
aS'libcryptoopenssl-OpenSSL_0_9_8m'
p4719
aS'libcryptoopenssl-OpenSSL_0_9_8n'
p4720
aS'libcryptoopenssl-OpenSSL_0_9_8o'
p4721
atp4722
Rp4723
sS'EC_EX_DATA_free_all_data'
p4724
g2
((lp4725
tp4726
Rp4727
sS'ec_pre_comp_free'
p4728
g2
((lp4729
tp4730
Rp4731
sS'policy_cache_find_data'
p4732
g2
((lp4733
S'libcryptoopenssl-OpenSSL_0_9_8t'
p4734
aS'libcryptoopenssl-OpenSSL_0_9_8u'
p4735
aS'libcryptoopenssl-OpenSSL_0_9_8v'
p4736
aS'libcryptoopenssl-OpenSSL_0_9_8w'
p4737
aS'libcryptoopenssl-OpenSSL_0_9_8s'
p4738
aS'libcryptoopenssl-OpenSSL_0_9_8x'
p4739
aS'libcryptoopenssl-OpenSSL_0_9_8y'
p4740
atp4741
Rp4742
sS'EVP_PKEY_bits'
p4743
g2
((lp4744
tp4745
Rp4746
sS'ssl3_cleanup_key_block'
p4747
g2
((lp4748
S'libsslopenssl-OpenSSL_0_9_8l'
p4749
aS'libsslopenssl-OpenSSL_0_9_8m'
p4750
aS'libsslopenssl-OpenSSL_0_9_8n'
p4751
aS'libsslopenssl-OpenSSL_0_9_8o'
p4752
aS'libsslopenssl-OpenSSL_0_9_8e'
p4753
aS'libsslopenssl-OpenSSL_0_9_8f'
p4754
aS'libsslopenssl-OpenSSL_0_9_8g'
p4755
aS'libsslopenssl-OpenSSL_0_9_8x'
p4756
aS'libsslopenssl-OpenSSL_0_9_8y'
p4757
aS'libsslopenssl-OpenSSL_0_9_8t'
p4758
aS'libsslopenssl-OpenSSL_0_9_8u'
p4759
aS'libsslopenssl-OpenSSL_0_9_8v'
p4760
aS'libsslopenssl-OpenSSL_0_9_8w'
p4761
aS'libsslopenssl-OpenSSL_0_9_8p'
p4762
aS'libsslopenssl-OpenSSL_0_9_8q'
p4763
aS'libsslopenssl-OpenSSL_0_9_8r'
p4764
aS'libsslopenssl-OpenSSL_0_9_8s'
p4765
atp4766
Rp4767
sS'OCSP_id_issuer_cmp'
p4768
g2
((lp4769
S'libcryptoopenssl-OpenSSL_0_9_8t'
p4770
aS'libcryptoopenssl-OpenSSL_0_9_8u'
p4771
aS'libcryptoopenssl-OpenSSL_0_9_8v'
p4772
aS'libcryptoopenssl-OpenSSL_0_9_8w'
p4773
aS'libcryptoopenssl-OpenSSL_0_9_8p'
p4774
aS'libcryptoopenssl-OpenSSL_0_9_8q'
p4775
aS'libcryptoopenssl-OpenSSL_0_9_8r'
p4776
aS'libcryptoopenssl-OpenSSL_0_9_8s'
p4777
aS'libcryptoopenssl-OpenSSL_0_9_8x'
p4778
aS'libcryptoopenssl-OpenSSL_0_9_8y'
p4779
aS'libcryptoopenssl-OpenSSL_0_9_8e'
p4780
aS'libcryptoopenssl-OpenSSL_0_9_8f'
p4781
aS'libcryptoopenssl-OpenSSL_0_9_8g'
p4782
aS'libcryptoopenssl-OpenSSL_0_9_8l'
p4783
aS'libcryptoopenssl-OpenSSL_0_9_8m'
p4784
aS'libcryptoopenssl-OpenSSL_0_9_8n'
p4785
aS'libcryptoopenssl-OpenSSL_0_9_8o'
p4786
aS'libcryptoopenssl-OpenSSL_0_9_8h'
p4787
aS'libcryptoopenssl-OpenSSL_0_9_8i'
p4788
aS'libcryptoopenssl-OpenSSL_0_9_8j'
p4789
aS'libcryptoopenssl-OpenSSL_0_9_8k'
p4790
atp4791
Rp4792
sS'ERR_peek_error'
p4793
g2
((lp4794
S'libcryptoopenssl-OpenSSL_0_9_7m'
p4795
aS'libcryptoopenssl-OpenSSL_0_9_7l'
p4796
aS'libcryptoopenssl-OpenSSL_0_9_7i'
p4797
aS'libcryptoopenssl-OpenSSL_0_9_7h'
p4798
aS'libcryptoopenssl-OpenSSL_0_9_7k'
p4799
aS'libcryptoopenssl-OpenSSL_0_9_7j'
p4800
aS'libcryptoopenssl-OpenSSL_0_9_7e'
p4801
aS'libcryptoopenssl-OpenSSL_0_9_7d'
p4802
aS'libcryptoopenssl-OpenSSL_0_9_7g'
p4803
aS'libcryptoopenssl-OpenSSL_0_9_7f'
p4804
aS'libcryptoopenssl-OpenSSL_0_9_7a'
p4805
aS'libcryptoopenssl-OpenSSL_0_9_7c'
p4806
aS'libcryptoopenssl-OpenSSL_0_9_7b'
p4807
aS'libcryptoopenssl-OpenSSL_1_0_0t'
p4808
aS'libcryptoopenssl-OpenSSL_1_0_0p'
p4809
aS'libcryptoopenssl-OpenSSL_1_0_0q'
p4810
aS'libcryptoopenssl-OpenSSL_1_0_0r'
p4811
aS'libcryptoopenssl-OpenSSL_1_0_0s'
p4812
aS'libcryptoopenssl-OpenSSL_1_0_0l'
p4813
aS'libcryptoopenssl-OpenSSL_1_0_0m'
p4814
aS'libcryptoopenssl-OpenSSL_1_0_0n'
p4815
aS'libcryptoopenssl-OpenSSL_1_0_0o'
p4816
aS'libcryptoopenssl-OpenSSL_1_0_0h'
p4817
aS'libcryptoopenssl-OpenSSL_1_0_0i'
p4818
aS'libcryptoopenssl-OpenSSL_1_0_0j'
p4819
aS'libcryptoopenssl-OpenSSL_1_0_0k'
p4820
aS'libcryptoopenssl-OpenSSL_1_0_0d'
p4821
aS'libcryptoopenssl-OpenSSL_1_0_0e'
p4822
aS'libcryptoopenssl-OpenSSL_1_0_0f'
p4823
aS'libcryptoopenssl-OpenSSL_1_0_0g'
p4824
aS'libcryptoopenssl-OpenSSL_1_0_0a'
p4825
aS'libcryptoopenssl-OpenSSL_1_0_0b'
p4826
aS'libcryptoopenssl-OpenSSL_1_0_0c'
p4827
aS'libcryptoopenssl-OpenSSL_0_9_8t'
p4828
aS'libcryptoopenssl-OpenSSL_0_9_8u'
p4829
aS'libcryptoopenssl-OpenSSL_0_9_8v'
p4830
aS'libcryptoopenssl-OpenSSL_0_9_8w'
p4831
aS'libcryptoopenssl-OpenSSL_0_9_8p'
p4832
aS'libcryptoopenssl-OpenSSL_0_9_8q'
p4833
aS'libcryptoopenssl-OpenSSL_0_9_8r'
p4834
aS'libcryptoopenssl-OpenSSL_0_9_8s'
p4835
aS'libcryptoopenssl-OpenSSL_0_9_8x'
p4836
aS'libcryptoopenssl-OpenSSL_0_9_8y'
p4837
aS'libcryptoopenssl-OpenSSL_0_9_8d'
p4838
aS'libcryptoopenssl-OpenSSL_0_9_8e'
p4839
aS'libcryptoopenssl-OpenSSL_0_9_8f'
p4840
aS'libcryptoopenssl-OpenSSL_0_9_8g'
p4841
aS'libcryptoopenssl-OpenSSL_0_9_8a'
p4842
aS'libcryptoopenssl-OpenSSL_0_9_8b'
p4843
aS'libcryptoopenssl-OpenSSL_0_9_8c'
p4844
aS'libcryptoopenssl-OpenSSL_0_9_8l'
p4845
aS'libcryptoopenssl-OpenSSL_0_9_8m'
p4846
aS'libcryptoopenssl-OpenSSL_0_9_8n'
p4847
aS'libcryptoopenssl-OpenSSL_0_9_8o'
p4848
aS'libcryptoopenssl-OpenSSL_0_9_8h'
p4849
aS'libcryptoopenssl-OpenSSL_0_9_8i'
p4850
aS'libcryptoopenssl-OpenSSL_0_9_8j'
p4851
aS'libcryptoopenssl-OpenSSL_0_9_8k'
p4852
aS'libcryptoopenssl-OpenSSL_1_0_0'
p4853
aS'libcryptoopenssl-OpenSSL_0_9_8'
p4854
aS'libcryptoopenssl-OpenSSL_0_9_7'
p4855
atp4856
Rp4857
sS'BN_sqr'
p4858
g2
((lp4859
tp4860
Rp4861
sS'trust_1oidany'
p4862
g2
((lp4863
S'libcryptoopenssl-OpenSSL_0_9_8t'
p4864
aS'libcryptoopenssl-OpenSSL_0_9_8u'
p4865
aS'libcryptoopenssl-OpenSSL_0_9_8v'
p4866
aS'libcryptoopenssl-OpenSSL_0_9_8w'
p4867
aS'libcryptoopenssl-OpenSSL_0_9_8s'
p4868
aS'libcryptoopenssl-OpenSSL_0_9_8x'
p4869
aS'libcryptoopenssl-OpenSSL_0_9_8y'
p4870
atp4871
Rp4872
s.